
/Users/marcelochsendorf/Downloads/WordClock/src/base/wordclock/WORDCLOCK_V2_RP2040_RP2040RTC_4.0.0_Debug.elf:     file format elf32-littlearm

Sections:
Idx Name          Size      VMA       LMA       File off  Algn
  0 .boot2        00000100  10000000  10000000  00001000  2**0
                  CONTENTS, ALLOC, LOAD, READONLY, CODE
  1 .text         0002acb8  10000100  10000100  00001100  2**3
                  CONTENTS, ALLOC, LOAD, READONLY, CODE
  2 .rodata       0000634c  1002adb8  1002adb8  0002bdb8  2**3
                  CONTENTS, ALLOC, LOAD, READONLY, DATA
  3 .ARM.extab    00002198  10031104  10031104  00032104  2**2
                  CONTENTS, ALLOC, LOAD, READONLY, DATA
  4 .ARM.exidx    000007e0  1003329c  1003329c  0003429c  2**2
                  CONTENTS, ALLOC, LOAD, READONLY, DATA
  5 .binary_info  0000002c  10033a7c  10033a7c  00034a7c  2**2
                  CONTENTS, ALLOC, LOAD, DATA
  6 .ram_vector_table 000000c0  20000000  20000000  00036e9c  2**2
                  CONTENTS
  7 .data         00001ddc  200000c0  10033aa8  000350c0  2**4
                  CONTENTS, ALLOC, LOAD, READONLY, CODE
  8 .uninitialized_data 00000000  20001e9c  20001e9c  00036f5c  2**0
                  CONTENTS
  9 .scratch_x    00000000  20040000  20040000  00036f5c  2**0
                  CONTENTS
 10 .scratch_y    00000000  20041000  20041000  00036f5c  2**0
                  CONTENTS
 11 .bss          00001c48  20001ea0  20001ea0  00036ea0  2**3
                  ALLOC
 12 .heap         00000800  20003ae8  20003ae8  00036f5c  2**2
                  CONTENTS, READONLY
 13 .stack_dummy  00000800  20041000  20041000  00037760  2**5
                  CONTENTS, READONLY
 14 .ARM.attributes 00000028  00000000  00000000  00037f60  2**0
                  CONTENTS, READONLY
 15 .comment      00000049  00000000  00000000  00037f88  2**0
                  CONTENTS, READONLY
 16 .debug_info   0033c470  00000000  00000000  00037fd1  2**0
                  CONTENTS, READONLY, DEBUGGING, OCTETS
 17 .debug_abbrev 0001ed70  00000000  00000000  00374441  2**0
                  CONTENTS, READONLY, DEBUGGING, OCTETS
 18 .debug_loc    00123954  00000000  00000000  003931b1  2**0
                  CONTENTS, READONLY, DEBUGGING, OCTETS
 19 .debug_aranges 00003140  00000000  00000000  004b6b08  2**3
                  CONTENTS, READONLY, DEBUGGING, OCTETS
 20 .debug_ranges 0000f508  00000000  00000000  004b9c48  2**3
                  CONTENTS, READONLY, DEBUGGING, OCTETS
 21 .debug_line   00082aeb  00000000  00000000  004c9150  2**0
                  CONTENTS, READONLY, DEBUGGING, OCTETS
 22 .debug_str    0007dfd3  00000000  00000000  0054bc3b  2**0
                  CONTENTS, READONLY, DEBUGGING, OCTETS
 23 .debug_frame  0000e468  00000000  00000000  005c9c10  2**2
                  CONTENTS, READONLY, DEBUGGING, OCTETS
 24 .stab         0000009c  00000000  00000000  005d8078  2**2
                  CONTENTS, READONLY, DEBUGGING
 25 .stabstr      0000014f  00000000  00000000  005d8114  2**0
                  CONTENTS, READONLY, DEBUGGING

/Users/marcelochsendorf/Downloads/WordClock/src/base/wordclock/WORDCLOCK_V2_RP2040_RP2040RTC_4.0.0_Debug.elf:     file format elf32-littlearm


Disassembly of section .boot2:

10000000 <__boot2_start__>:
10000000:	4b0cb500 	.word	0x4b0cb500
10000004:	60992100 	.word	0x60992100
10000008:	61592104 	.word	0x61592104
1000000c:	6019490a 	.word	0x6019490a
10000010:	480b490a 	.word	0x480b490a
10000014:	21006001 	.word	0x21006001
10000018:	21016059 	.word	0x21016059
1000001c:	bc016099 	.word	0xbc016099
10000020:	d0002800 	.word	0xd0002800
10000024:	48074700 	.word	0x48074700
10000028:	60084907 	.word	0x60084907
1000002c:	f380c803 	.word	0xf380c803
10000030:	47088808 	.word	0x47088808
10000034:	18000000 	.word	0x18000000
10000038:	001f0300 	.word	0x001f0300
1000003c:	03000218 	.word	0x03000218
10000040:	180000f4 	.word	0x180000f4
10000044:	10000100 	.word	0x10000100
10000048:	e000ed08 	.word	0xe000ed08
	...
100000fc:	0d21ec2c 	.word	0x0d21ec2c

Disassembly of section .text:

10000100 <__VECTOR_TABLE>:
10000100:	20042000 	.word	0x20042000
10000104:	100001f7 	.word	0x100001f7
10000108:	100001c3 	.word	0x100001c3
1000010c:	100001c5 	.word	0x100001c5
10000110:	100001c1 	.word	0x100001c1
10000114:	100001c1 	.word	0x100001c1
10000118:	100001c1 	.word	0x100001c1
1000011c:	100001c1 	.word	0x100001c1
10000120:	100001c1 	.word	0x100001c1
10000124:	100001c1 	.word	0x100001c1
10000128:	100001c1 	.word	0x100001c1
1000012c:	100001c7 	.word	0x100001c7
10000130:	100001c1 	.word	0x100001c1
10000134:	100001c1 	.word	0x100001c1
10000138:	100001c9 	.word	0x100001c9
1000013c:	100001cb 	.word	0x100001cb
10000140:	100001cd 	.word	0x100001cd
10000144:	100001cd 	.word	0x100001cd
10000148:	100001cd 	.word	0x100001cd
1000014c:	100001cd 	.word	0x100001cd
10000150:	100001cd 	.word	0x100001cd
10000154:	100001cd 	.word	0x100001cd
10000158:	100001cd 	.word	0x100001cd
1000015c:	100001cd 	.word	0x100001cd
10000160:	100001cd 	.word	0x100001cd
10000164:	100001cd 	.word	0x100001cd
10000168:	100001cd 	.word	0x100001cd
1000016c:	100001cd 	.word	0x100001cd
10000170:	100001cd 	.word	0x100001cd
10000174:	100001cd 	.word	0x100001cd
10000178:	100001cd 	.word	0x100001cd
1000017c:	100001cd 	.word	0x100001cd
10000180:	100001cd 	.word	0x100001cd
10000184:	100001cd 	.word	0x100001cd
10000188:	100001cd 	.word	0x100001cd
1000018c:	100001cd 	.word	0x100001cd
10000190:	100001cd 	.word	0x100001cd
10000194:	100001cd 	.word	0x100001cd
10000198:	100001cd 	.word	0x100001cd
1000019c:	100001cd 	.word	0x100001cd
100001a0:	100001cd 	.word	0x100001cd
100001a4:	100001cd 	.word	0x100001cd
100001a8:	100001cd 	.word	0x100001cd
100001ac:	100001cd 	.word	0x100001cd
100001b0:	100001cd 	.word	0x100001cd
100001b4:	100001cd 	.word	0x100001cd
100001b8:	100001cd 	.word	0x100001cd
100001bc:	100001cd 	.word	0x100001cd

100001c0 <isr_invalid>:
100001c0:	be00      	bkpt	0x0000

100001c2 <isr_nmi>:
100001c2:	be00      	bkpt	0x0000

100001c4 <isr_hardfault>:
100001c4:	be00      	bkpt	0x0000

100001c6 <isr_svcall>:
100001c6:	be00      	bkpt	0x0000

100001c8 <isr_pendsv>:
100001c8:	be00      	bkpt	0x0000

100001ca <isr_systick>:
100001ca:	be00      	bkpt	0x0000

100001cc <__unhandled_user_irq>:
100001cc:	f000 f84b 	bl	10000266 <__get_current_exception>
100001d0:	3810      	subs	r0, #16

100001d2 <unhandled_user_irq_num_in_r0>:
100001d2:	be00      	bkpt	0x0000

100001d4 <binary_info_header>:
100001d4:	7188ebf2 	.word	0x7188ebf2
100001d8:	10033a7c 	.word	0x10033a7c
100001dc:	10033aa8 	.word	0x10033aa8
100001e0:	10000234 	.word	0x10000234
100001e4:	e71aa390 	.word	0xe71aa390

100001e8 <_entry_point>:
100001e8:	2000      	movs	r0, #0
100001ea:	4921      	ldr	r1, [pc, #132]	; (10000270 <__get_current_exception+0xa>)
100001ec:	6008      	str	r0, [r1, #0]
100001ee:	c806      	ldmia	r0!, {r1, r2}
100001f0:	f381 8808 	msr	MSP, r1
100001f4:	4710      	bx	r2

100001f6 <_reset_handler>:
100001f6:	481f      	ldr	r0, [pc, #124]	; (10000274 <__get_current_exception+0xe>)
100001f8:	6800      	ldr	r0, [r0, #0]
100001fa:	2800      	cmp	r0, #0
100001fc:	d12f      	bne.n	1000025e <hold_non_core0_in_bootrom>
100001fe:	a40d      	add	r4, pc, #52	; (adr r4, 10000234 <data_cpy_table>)
10000200:	cc0e      	ldmia	r4!, {r1, r2, r3}
10000202:	2900      	cmp	r1, #0
10000204:	d002      	beq.n	1000020c <_reset_handler+0x16>
10000206:	f000 f812 	bl	1000022e <data_cpy>
1000020a:	e7f9      	b.n	10000200 <_reset_handler+0xa>
1000020c:	491a      	ldr	r1, [pc, #104]	; (10000278 <__get_current_exception+0x12>)
1000020e:	4a1b      	ldr	r2, [pc, #108]	; (1000027c <__get_current_exception+0x16>)
10000210:	2000      	movs	r0, #0
10000212:	e000      	b.n	10000216 <bss_fill_test>

10000214 <bss_fill_loop>:
10000214:	c101      	stmia	r1!, {r0}

10000216 <bss_fill_test>:
10000216:	4291      	cmp	r1, r2
10000218:	d1fc      	bne.n	10000214 <bss_fill_loop>

1000021a <platform_entry>:
1000021a:	4919      	ldr	r1, [pc, #100]	; (10000280 <__get_current_exception+0x1a>)
1000021c:	4788      	blx	r1
1000021e:	4919      	ldr	r1, [pc, #100]	; (10000284 <__get_current_exception+0x1e>)
10000220:	4788      	blx	r1
10000222:	4919      	ldr	r1, [pc, #100]	; (10000288 <__get_current_exception+0x22>)
10000224:	4788      	blx	r1
10000226:	be00      	bkpt	0x0000
10000228:	e7fd      	b.n	10000226 <platform_entry+0xc>

1000022a <data_cpy_loop>:
1000022a:	c901      	ldmia	r1!, {r0}
1000022c:	c201      	stmia	r2!, {r0}

1000022e <data_cpy>:
1000022e:	429a      	cmp	r2, r3
10000230:	d3fb      	bcc.n	1000022a <data_cpy_loop>
10000232:	4770      	bx	lr

10000234 <data_cpy_table>:
10000234:	10033aa8 	.word	0x10033aa8
10000238:	200000c0 	.word	0x200000c0
1000023c:	20001e9c 	.word	0x20001e9c
10000240:	10035884 	.word	0x10035884
10000244:	20040000 	.word	0x20040000
10000248:	20040000 	.word	0x20040000
1000024c:	10035884 	.word	0x10035884
10000250:	20041000 	.word	0x20041000
10000254:	20041000 	.word	0x20041000
10000258:	00000000 	.word	0x00000000
1000025c:	4770      	bx	lr

1000025e <hold_non_core0_in_bootrom>:
1000025e:	480b      	ldr	r0, [pc, #44]	; (1000028c <__get_current_exception+0x26>)
10000260:	f01a fc8a 	bl	1001ab78 <rom_func_lookup>
10000264:	4700      	bx	r0

10000266 <__get_current_exception>:
10000266:	f3ef 8005 	mrs	r0, IPSR
1000026a:	b2c0      	uxtb	r0, r0
1000026c:	4770      	bx	lr
1000026e:	0000      	.short	0x0000
10000270:	e000ed08 	.word	0xe000ed08
10000274:	d0000000 	.word	0xd0000000
10000278:	20001ea0 	.word	0x20001ea0
1000027c:	20003ae8 	.word	0x20003ae8
10000280:	10019471 	.word	0x10019471
10000284:	10014145 	.word	0x10014145
10000288:	1001942d 	.word	0x1001942d
1000028c:	00005657 	.word	0x00005657

10000290 <__bi_50>:
10000290:	50520006 5360b3ab 1002df44              ..RP..`SD...

1000029c <__bi_38>:
1000029c:	50520006 02031c86 1002df6c              ..RP....l...

100002a8 <__bi_30>:
100002a8:	50520006 9da22254 1002beb8              ..RPT"......

100002b4 <__bi_22>:
100002b4:	50520005 68f465de 10035884              ..RP.e.h.X..

100002c0 <_init>:
100002c0:	b5f8      	push	{r3, r4, r5, r6, r7, lr}
100002c2:	46c0      	nop			; (mov r8, r8)

100002c4 <__do_global_dtors_aux>:
100002c4:	b510      	push	{r4, lr}
100002c6:	4c06      	ldr	r4, [pc, #24]	; (100002e0 <__do_global_dtors_aux+0x1c>)
100002c8:	7823      	ldrb	r3, [r4, #0]
100002ca:	2b00      	cmp	r3, #0
100002cc:	d107      	bne.n	100002de <__do_global_dtors_aux+0x1a>
100002ce:	4b05      	ldr	r3, [pc, #20]	; (100002e4 <__do_global_dtors_aux+0x20>)
100002d0:	2b00      	cmp	r3, #0
100002d2:	d002      	beq.n	100002da <__do_global_dtors_aux+0x16>
100002d4:	4804      	ldr	r0, [pc, #16]	; (100002e8 <__do_global_dtors_aux+0x24>)
100002d6:	e000      	b.n	100002da <__do_global_dtors_aux+0x16>
100002d8:	bf00      	nop
100002da:	2301      	movs	r3, #1
100002dc:	7023      	strb	r3, [r4, #0]
100002de:	bd10      	pop	{r4, pc}
100002e0:	20001fb0 	.word	0x20001fb0
100002e4:	00000000 	.word	0x00000000
100002e8:	1002adb8 	.word	0x1002adb8

100002ec <frame_dummy>:
100002ec:	4b04      	ldr	r3, [pc, #16]	; (10000300 <frame_dummy+0x14>)
100002ee:	b510      	push	{r4, lr}
100002f0:	2b00      	cmp	r3, #0
100002f2:	d003      	beq.n	100002fc <frame_dummy+0x10>
100002f4:	4903      	ldr	r1, [pc, #12]	; (10000304 <frame_dummy+0x18>)
100002f6:	4804      	ldr	r0, [pc, #16]	; (10000308 <frame_dummy+0x1c>)
100002f8:	e000      	b.n	100002fc <frame_dummy+0x10>
100002fa:	bf00      	nop
100002fc:	bd10      	pop	{r4, pc}
100002fe:	46c0      	nop			; (mov r8, r8)
10000300:	00000000 	.word	0x00000000
10000304:	20001fb4 	.word	0x20001fb4
10000308:	1002adb8 	.word	0x1002adb8

1000030c <_ZN13ambient_lightD1Ev>:
1000030c:	4b01      	ldr	r3, [pc, #4]	; (10000314 <_ZN13ambient_lightD1Ev+0x8>)
1000030e:	3308      	adds	r3, #8
10000310:	6003      	str	r3, [r0, #0]
10000312:	4770      	bx	lr
10000314:	1002add0 	.word	0x1002add0

10000318 <_ZN13ambient_light14get_brightnessEv>:
10000318:	20c8      	movs	r0, #200	; 0xc8
1000031a:	4770      	bx	lr

1000031c <_ZN13ambient_light22get_average_brightnessEv>:
1000031c:	b510      	push	{r4, lr}
1000031e:	f7ff fffb 	bl	10000318 <_ZN13ambient_light14get_brightnessEv>
10000322:	bd10      	pop	{r4, pc}

10000324 <_ZN13ambient_light4initEv>:
10000324:	4770      	bx	lr

10000326 <_ZN13ambient_lightD0Ev>:
10000326:	b510      	push	{r4, lr}
10000328:	0004      	movs	r4, r0
1000032a:	f7ff ffef 	bl	1000030c <_ZN13ambient_lightD1Ev>
1000032e:	2104      	movs	r1, #4
10000330:	0020      	movs	r0, r4
10000332:	f01f ffa1 	bl	10020278 <_ZdlPvj>
10000336:	0020      	movs	r0, r4
10000338:	bd10      	pop	{r4, pc}
	...

1000033c <_ZN13ambient_lightC1Ev>:
1000033c:	4b01      	ldr	r3, [pc, #4]	; (10000344 <_ZN13ambient_lightC1Ev+0x8>)
1000033e:	3308      	adds	r3, #8
10000340:	6003      	str	r3, [r0, #0]
10000342:	4770      	bx	lr
10000344:	1002add0 	.word	0x1002add0

10000348 <_ZN20ambient_light_bh1750D1Ev>:
10000348:	b510      	push	{r4, lr}
1000034a:	0004      	movs	r4, r0
1000034c:	4b03      	ldr	r3, [pc, #12]	; (1000035c <_ZN20ambient_light_bh1750D1Ev+0x14>)
1000034e:	3308      	adds	r3, #8
10000350:	6003      	str	r3, [r0, #0]
10000352:	f7ff ffdb 	bl	1000030c <_ZN13ambient_lightD1Ev>
10000356:	0020      	movs	r0, r4
10000358:	bd10      	pop	{r4, pc}
1000035a:	46c0      	nop			; (mov r8, r8)
1000035c:	1002ae10 	.word	0x1002ae10

10000360 <_ZN20ambient_light_bh1750D0Ev>:
10000360:	b510      	push	{r4, lr}
10000362:	0004      	movs	r4, r0
10000364:	f7ff fff0 	bl	10000348 <_ZN20ambient_light_bh1750D1Ev>
10000368:	210c      	movs	r1, #12
1000036a:	0020      	movs	r0, r4
1000036c:	f01f ff84 	bl	10020278 <_ZdlPvj>
10000370:	0020      	movs	r0, r4
10000372:	bd10      	pop	{r4, pc}

10000374 <_ZN20ambient_light_bh17504initEv>:
10000374:	b5f0      	push	{r4, r5, r6, r7, lr}
10000376:	b085      	sub	sp, #20
10000378:	ac03      	add	r4, sp, #12
1000037a:	2700      	movs	r7, #0
1000037c:	7027      	strb	r7, [r4, #0]
1000037e:	4d12      	ldr	r5, [pc, #72]	; (100003c8 <_ZN20ambient_light_bh17504initEv+0x54>)
10000380:	2601      	movs	r6, #1
10000382:	9600      	str	r6, [sp, #0]
10000384:	2301      	movs	r3, #1
10000386:	0022      	movs	r2, r4
10000388:	2123      	movs	r1, #35	; 0x23
1000038a:	0028      	movs	r0, r5
1000038c:	f01f fa10 	bl	1001f7b0 <i2c_write_blocking>
10000390:	7026      	strb	r6, [r4, #0]
10000392:	9600      	str	r6, [sp, #0]
10000394:	2301      	movs	r3, #1
10000396:	0022      	movs	r2, r4
10000398:	2123      	movs	r1, #35	; 0x23
1000039a:	0028      	movs	r0, r5
1000039c:	f01f fa08 	bl	1001f7b0 <i2c_write_blocking>
100003a0:	2307      	movs	r3, #7
100003a2:	7023      	strb	r3, [r4, #0]
100003a4:	9600      	str	r6, [sp, #0]
100003a6:	3b06      	subs	r3, #6
100003a8:	0022      	movs	r2, r4
100003aa:	2123      	movs	r1, #35	; 0x23
100003ac:	0028      	movs	r0, r5
100003ae:	f01f f9ff 	bl	1001f7b0 <i2c_write_blocking>
100003b2:	2313      	movs	r3, #19
100003b4:	7023      	strb	r3, [r4, #0]
100003b6:	9700      	str	r7, [sp, #0]
100003b8:	3b12      	subs	r3, #18
100003ba:	0022      	movs	r2, r4
100003bc:	2123      	movs	r1, #35	; 0x23
100003be:	0028      	movs	r0, r5
100003c0:	f01f f9f6 	bl	1001f7b0 <i2c_write_blocking>
100003c4:	b005      	add	sp, #20
100003c6:	bdf0      	pop	{r4, r5, r6, r7, pc}
100003c8:	200015d8 	.word	0x200015d8

100003cc <_ZN20ambient_light_bh175014get_brightnessEv>:
100003cc:	b510      	push	{r4, lr}
100003ce:	b084      	sub	sp, #16
100003d0:	0004      	movs	r4, r0
100003d2:	2300      	movs	r3, #0
100003d4:	9300      	str	r3, [sp, #0]
100003d6:	3302      	adds	r3, #2
100003d8:	aa03      	add	r2, sp, #12
100003da:	2123      	movs	r1, #35	; 0x23
100003dc:	480d      	ldr	r0, [pc, #52]	; (10000414 <_ZN20ambient_light_bh175014get_brightnessEv+0x48>)
100003de:	f01f f9f3 	bl	1001f7c8 <i2c_read_blocking>
100003e2:	2800      	cmp	r0, #0
100003e4:	dd12      	ble.n	1000040c <_ZN20ambient_light_bh175014get_brightnessEv+0x40>
100003e6:	ab03      	add	r3, sp, #12
100003e8:	7818      	ldrb	r0, [r3, #0]
100003ea:	0200      	lsls	r0, r0, #8
100003ec:	785b      	ldrb	r3, [r3, #1]
100003ee:	18c0      	adds	r0, r0, r3
100003f0:	f01a fef2 	bl	1001b1d8 <__wrap___aeabi_i2d>
100003f4:	4a08      	ldr	r2, [pc, #32]	; (10000418 <_ZN20ambient_light_bh175014get_brightnessEv+0x4c>)
100003f6:	4b09      	ldr	r3, [pc, #36]	; (1000041c <_ZN20ambient_light_bh175014get_brightnessEv+0x50>)
100003f8:	f01a fe5f 	bl	1001b0ba <__wrap___aeabi_ddiv>
100003fc:	f01a ff04 	bl	1001b208 <__wrap___aeabi_d2iz>
10000400:	6861      	ldr	r1, [r4, #4]
10000402:	68a2      	ldr	r2, [r4, #8]
10000404:	f00f fcbd 	bl	1000fd82 <_ZN6helper5limitEiii>
10000408:	b004      	add	sp, #16
1000040a:	bd10      	pop	{r4, pc}
1000040c:	2001      	movs	r0, #1
1000040e:	4240      	negs	r0, r0
10000410:	e7fa      	b.n	10000408 <_ZN20ambient_light_bh175014get_brightnessEv+0x3c>
10000412:	46c0      	nop			; (mov r8, r8)
10000414:	200015d8 	.word	0x200015d8
10000418:	cccccccc 	.word	0xcccccccc
1000041c:	400ccccc 	.word	0x400ccccc

10000420 <_ZN20ambient_light_bh175022get_average_brightnessEv>:
10000420:	b510      	push	{r4, lr}
10000422:	b082      	sub	sp, #8
10000424:	0004      	movs	r4, r0
10000426:	6803      	ldr	r3, [r0, #0]
10000428:	689b      	ldr	r3, [r3, #8]
1000042a:	4798      	blx	r3
1000042c:	6861      	ldr	r1, [r4, #4]
1000042e:	68a2      	ldr	r2, [r4, #8]
10000430:	23c8      	movs	r3, #200	; 0xc8
10000432:	9300      	str	r3, [sp, #0]
10000434:	3bbe      	subs	r3, #190	; 0xbe
10000436:	f00f fc99 	bl	1000fd6c <_ZN6helper3mapEiiiii>
1000043a:	b002      	add	sp, #8
1000043c:	bd10      	pop	{r4, pc}
	...

10000440 <_ZN20ambient_light_bh1750C1Ev>:
10000440:	b510      	push	{r4, lr}
10000442:	0004      	movs	r4, r0
10000444:	f7ff ff7a 	bl	1000033c <_ZN13ambient_lightC1Ev>
10000448:	4b04      	ldr	r3, [pc, #16]	; (1000045c <_ZN20ambient_light_bh1750C1Ev+0x1c>)
1000044a:	3308      	adds	r3, #8
1000044c:	6023      	str	r3, [r4, #0]
1000044e:	2300      	movs	r3, #0
10000450:	6063      	str	r3, [r4, #4]
10000452:	3396      	adds	r3, #150	; 0x96
10000454:	60a3      	str	r3, [r4, #8]
10000456:	0020      	movs	r0, r4
10000458:	bd10      	pop	{r4, pc}
1000045a:	46c0      	nop			; (mov r8, r8)
1000045c:	1002ae10 	.word	0x1002ae10

10000460 <_ZN16settings_storageD1Ev>:
10000460:	4b01      	ldr	r3, [pc, #4]	; (10000468 <_ZN16settings_storageD1Ev+0x8>)
10000462:	3308      	adds	r3, #8
10000464:	6003      	str	r3, [r0, #0]
10000466:	4770      	bx	lr
10000468:	1002b088 	.word	0x1002b088

1000046c <_ZN16settings_storage6formatEv>:
1000046c:	2300      	movs	r3, #0
1000046e:	e003      	b.n	10000478 <_ZN16settings_storage6formatEv+0xc>
10000470:	18c2      	adds	r2, r0, r3
10000472:	2100      	movs	r1, #0
10000474:	7111      	strb	r1, [r2, #4]
10000476:	3301      	adds	r3, #1
10000478:	2b10      	cmp	r3, #16
1000047a:	d9f9      	bls.n	10000470 <_ZN16settings_storage6formatEv+0x4>
1000047c:	4770      	bx	lr

1000047e <_ZN16settings_storage4initEv>:
1000047e:	b510      	push	{r4, lr}
10000480:	6803      	ldr	r3, [r0, #0]
10000482:	68db      	ldr	r3, [r3, #12]
10000484:	4798      	blx	r3
10000486:	bd10      	pop	{r4, pc}

10000488 <_ZN16settings_storage4readEN14wifi_interface9CMD_INDEXE>:
10000488:	1840      	adds	r0, r0, r1
1000048a:	7900      	ldrb	r0, [r0, #4]
1000048c:	4770      	bx	lr

1000048e <_ZN16settings_storage5writeEN14wifi_interface9CMD_INDEXEh>:
1000048e:	2900      	cmp	r1, #0
10000490:	d005      	beq.n	1000049e <_ZN16settings_storage5writeEN14wifi_interface9CMD_INDEXEh+0x10>
10000492:	2910      	cmp	r1, #16
10000494:	d005      	beq.n	100004a2 <_ZN16settings_storage5writeEN14wifi_interface9CMD_INDEXEh+0x14>
10000496:	1840      	adds	r0, r0, r1
10000498:	7102      	strb	r2, [r0, #4]
1000049a:	2001      	movs	r0, #1
1000049c:	4770      	bx	lr
1000049e:	2000      	movs	r0, #0
100004a0:	e7fc      	b.n	1000049c <_ZN16settings_storage5writeEN14wifi_interface9CMD_INDEXEh+0xe>
100004a2:	2000      	movs	r0, #0
100004a4:	e7fa      	b.n	1000049c <_ZN16settings_storage5writeEN14wifi_interface9CMD_INDEXEh+0xe>
	...

100004a8 <_ZNSt17_Function_handlerIFvNSt7__cxx1112basic_stringIcSt11char_traitsIcESaIcEEEEPS6_E10_M_managerERSt9_Any_dataRKS9_St18_Manager_operation>:
100004a8:	2a00      	cmp	r2, #0
100004aa:	d00a      	beq.n	100004c2 <_ZNSt17_Function_handlerIFvNSt7__cxx1112basic_stringIcSt11char_traitsIcESaIcEEEEPS6_E10_M_managerERSt9_Any_dataRKS9_St18_Manager_operation+0x1a>
100004ac:	2a01      	cmp	r2, #1
100004ae:	d00c      	beq.n	100004ca <_ZNSt17_Function_handlerIFvNSt7__cxx1112basic_stringIcSt11char_traitsIcESaIcEEEEPS6_E10_M_managerERSt9_Any_dataRKS9_St18_Manager_operation+0x22>
100004b0:	2a02      	cmp	r2, #2
100004b2:	d00f      	beq.n	100004d4 <_ZNSt17_Function_handlerIFvNSt7__cxx1112basic_stringIcSt11char_traitsIcESaIcEEEEPS6_E10_M_managerERSt9_Any_dataRKS9_St18_Manager_operation+0x2c>
100004b4:	d807      	bhi.n	100004c6 <_ZNSt17_Function_handlerIFvNSt7__cxx1112basic_stringIcSt11char_traitsIcESaIcEEEEPS6_E10_M_managerERSt9_Any_dataRKS9_St18_Manager_operation+0x1e>
100004b6:	2a00      	cmp	r2, #0
100004b8:	d009      	beq.n	100004ce <_ZNSt17_Function_handlerIFvNSt7__cxx1112basic_stringIcSt11char_traitsIcESaIcEEEEPS6_E10_M_managerERSt9_Any_dataRKS9_St18_Manager_operation+0x26>
100004ba:	2a01      	cmp	r2, #1
100004bc:	d103      	bne.n	100004c6 <_ZNSt17_Function_handlerIFvNSt7__cxx1112basic_stringIcSt11char_traitsIcESaIcEEEEPS6_E10_M_managerERSt9_Any_dataRKS9_St18_Manager_operation+0x1e>
100004be:	6001      	str	r1, [r0, #0]
100004c0:	e001      	b.n	100004c6 <_ZNSt17_Function_handlerIFvNSt7__cxx1112basic_stringIcSt11char_traitsIcESaIcEEEEPS6_E10_M_managerERSt9_Any_dataRKS9_St18_Manager_operation+0x1e>
100004c2:	4b06      	ldr	r3, [pc, #24]	; (100004dc <_ZNSt17_Function_handlerIFvNSt7__cxx1112basic_stringIcSt11char_traitsIcESaIcEEEEPS6_E10_M_managerERSt9_Any_dataRKS9_St18_Manager_operation+0x34>)
100004c4:	6003      	str	r3, [r0, #0]
100004c6:	2000      	movs	r0, #0
100004c8:	4770      	bx	lr
100004ca:	6001      	str	r1, [r0, #0]
100004cc:	e7fb      	b.n	100004c6 <_ZNSt17_Function_handlerIFvNSt7__cxx1112basic_stringIcSt11char_traitsIcESaIcEEEEPS6_E10_M_managerERSt9_Any_dataRKS9_St18_Manager_operation+0x1e>
100004ce:	4b03      	ldr	r3, [pc, #12]	; (100004dc <_ZNSt17_Function_handlerIFvNSt7__cxx1112basic_stringIcSt11char_traitsIcESaIcEEEEPS6_E10_M_managerERSt9_Any_dataRKS9_St18_Manager_operation+0x34>)
100004d0:	6003      	str	r3, [r0, #0]
100004d2:	e7f8      	b.n	100004c6 <_ZNSt17_Function_handlerIFvNSt7__cxx1112basic_stringIcSt11char_traitsIcESaIcEEEEPS6_E10_M_managerERSt9_Any_dataRKS9_St18_Manager_operation+0x1e>
100004d4:	680b      	ldr	r3, [r1, #0]
100004d6:	6003      	str	r3, [r0, #0]
100004d8:	e7f5      	b.n	100004c6 <_ZNSt17_Function_handlerIFvNSt7__cxx1112basic_stringIcSt11char_traitsIcESaIcEEEEPS6_E10_M_managerERSt9_Any_dataRKS9_St18_Manager_operation+0x1e>
100004da:	46c0      	nop			; (mov r8, r8)
100004dc:	1002b05c 	.word	0x1002b05c

100004e0 <_ZN16settings_storageD0Ev>:
100004e0:	b510      	push	{r4, lr}
100004e2:	0004      	movs	r4, r0
100004e4:	f7ff ffbc 	bl	10000460 <_ZN16settings_storageD1Ev>
100004e8:	2118      	movs	r1, #24
100004ea:	0020      	movs	r0, r4
100004ec:	f01f fec4 	bl	10020278 <_ZdlPvj>
100004f0:	0020      	movs	r0, r4
100004f2:	bd10      	pop	{r4, pc}

100004f4 <_ZNSt17_Function_handlerIFvNSt7__cxx1112basic_stringIcSt11char_traitsIcESaIcEEEEPS6_E9_M_invokeERKSt9_Any_dataOS5_>:
100004f4:	b570      	push	{r4, r5, r6, lr}
100004f6:	b086      	sub	sp, #24
100004f8:	000c      	movs	r4, r1
100004fa:	6806      	ldr	r6, [r0, #0]
100004fc:	ab02      	add	r3, sp, #8
100004fe:	9300      	str	r3, [sp, #0]
10000500:	680b      	ldr	r3, [r1, #0]
10000502:	000d      	movs	r5, r1
10000504:	3508      	adds	r5, #8
10000506:	42ab      	cmp	r3, r5
10000508:	d00b      	beq.n	10000522 <_ZNSt17_Function_handlerIFvNSt7__cxx1112basic_stringIcSt11char_traitsIcESaIcEEEEPS6_E9_M_invokeERKSt9_Any_dataOS5_+0x2e>
1000050a:	9300      	str	r3, [sp, #0]
1000050c:	688b      	ldr	r3, [r1, #8]
1000050e:	9302      	str	r3, [sp, #8]
10000510:	6863      	ldr	r3, [r4, #4]
10000512:	9301      	str	r3, [sp, #4]
10000514:	6025      	str	r5, [r4, #0]
10000516:	2300      	movs	r3, #0
10000518:	6063      	str	r3, [r4, #4]
1000051a:	7223      	strb	r3, [r4, #8]
1000051c:	4668      	mov	r0, sp
1000051e:	47b0      	blx	r6
10000520:	e005      	b.n	1000052e <_ZNSt17_Function_handlerIFvNSt7__cxx1112basic_stringIcSt11char_traitsIcESaIcEEEEPS6_E9_M_invokeERKSt9_Any_dataOS5_+0x3a>
10000522:	2210      	movs	r2, #16
10000524:	0029      	movs	r1, r5
10000526:	a802      	add	r0, sp, #8
10000528:	f01b fd92 	bl	1001c050 <__wrap___aeabi_memcpy>
1000052c:	e7f0      	b.n	10000510 <_ZNSt17_Function_handlerIFvNSt7__cxx1112basic_stringIcSt11char_traitsIcESaIcEEEEPS6_E9_M_invokeERKSt9_Any_dataOS5_+0x1c>
1000052e:	9800      	ldr	r0, [sp, #0]
10000530:	ab02      	add	r3, sp, #8
10000532:	4298      	cmp	r0, r3
10000534:	d003      	beq.n	1000053e <_ZNSt17_Function_handlerIFvNSt7__cxx1112basic_stringIcSt11char_traitsIcESaIcEEEEPS6_E9_M_invokeERKSt9_Any_dataOS5_+0x4a>
10000536:	9b02      	ldr	r3, [sp, #8]
10000538:	1c59      	adds	r1, r3, #1
1000053a:	f01f fe9d 	bl	10020278 <_ZdlPvj>
1000053e:	b006      	add	sp, #24
10000540:	bd70      	pop	{r4, r5, r6, pc}
10000542:	4668      	mov	r0, sp
10000544:	f021 fa58 	bl	100219f8 <_ZNSt7__cxx1112basic_stringIcSt11char_traitsIcESaIcEE10_M_disposeEv>
10000548:	f01f ff3e 	bl	100203c8 <__cxa_end_cleanup>

1000054c <_ZNSt14_Function_baseD1Ev>:
1000054c:	b510      	push	{r4, lr}
1000054e:	0004      	movs	r4, r0
10000550:	6883      	ldr	r3, [r0, #8]
10000552:	2b00      	cmp	r3, #0
10000554:	d002      	beq.n	1000055c <_ZNSt14_Function_baseD1Ev+0x10>
10000556:	2203      	movs	r2, #3
10000558:	0001      	movs	r1, r0
1000055a:	4798      	blx	r3
1000055c:	0020      	movs	r0, r4
1000055e:	bd10      	pop	{r4, pc}

10000560 <_ZNSt11_Tuple_implILj0EJKNSt7__cxx1112basic_stringIcSt11char_traitsIcESaIcEEES6_N14wifi_interface12CMD_DATATYPEEiibSt6vectorIS5_SaIS5_EEEED1Ev>:
10000560:	b570      	push	{r4, r5, r6, lr}
10000562:	0005      	movs	r5, r0
10000564:	0002      	movs	r2, r0
10000566:	3234      	adds	r2, #52	; 0x34
10000568:	6b40      	ldr	r0, [r0, #52]	; 0x34
1000056a:	002b      	movs	r3, r5
1000056c:	333c      	adds	r3, #60	; 0x3c
1000056e:	4298      	cmp	r0, r3
10000570:	d003      	beq.n	1000057a <_ZNSt11_Tuple_implILj0EJKNSt7__cxx1112basic_stringIcSt11char_traitsIcESaIcEEES6_N14wifi_interface12CMD_DATATYPEEiibSt6vectorIS5_SaIS5_EEEED1Ev+0x1a>
10000572:	6891      	ldr	r1, [r2, #8]
10000574:	3101      	adds	r1, #1
10000576:	f01f fe7f 	bl	10020278 <_ZdlPvj>
1000057a:	002a      	movs	r2, r5
1000057c:	321c      	adds	r2, #28
1000057e:	69e8      	ldr	r0, [r5, #28]
10000580:	002b      	movs	r3, r5
10000582:	3324      	adds	r3, #36	; 0x24
10000584:	4298      	cmp	r0, r3
10000586:	d003      	beq.n	10000590 <_ZNSt11_Tuple_implILj0EJKNSt7__cxx1112basic_stringIcSt11char_traitsIcESaIcEEES6_N14wifi_interface12CMD_DATATYPEEiibSt6vectorIS5_SaIS5_EEEED1Ev+0x30>
10000588:	6891      	ldr	r1, [r2, #8]
1000058a:	3101      	adds	r1, #1
1000058c:	f01f fe74 	bl	10020278 <_ZdlPvj>
10000590:	682c      	ldr	r4, [r5, #0]
10000592:	686e      	ldr	r6, [r5, #4]
10000594:	e000      	b.n	10000598 <_ZNSt11_Tuple_implILj0EJKNSt7__cxx1112basic_stringIcSt11char_traitsIcESaIcEEES6_N14wifi_interface12CMD_DATATYPEEiibSt6vectorIS5_SaIS5_EEEED1Ev+0x38>
10000596:	3418      	adds	r4, #24
10000598:	42a6      	cmp	r6, r4
1000059a:	d009      	beq.n	100005b0 <_ZNSt11_Tuple_implILj0EJKNSt7__cxx1112basic_stringIcSt11char_traitsIcESaIcEEES6_N14wifi_interface12CMD_DATATYPEEiibSt6vectorIS5_SaIS5_EEEED1Ev+0x50>
1000059c:	6820      	ldr	r0, [r4, #0]
1000059e:	0023      	movs	r3, r4
100005a0:	3308      	adds	r3, #8
100005a2:	4298      	cmp	r0, r3
100005a4:	d0f7      	beq.n	10000596 <_ZNSt11_Tuple_implILj0EJKNSt7__cxx1112basic_stringIcSt11char_traitsIcESaIcEEES6_N14wifi_interface12CMD_DATATYPEEiibSt6vectorIS5_SaIS5_EEEED1Ev+0x36>
100005a6:	68a3      	ldr	r3, [r4, #8]
100005a8:	1c59      	adds	r1, r3, #1
100005aa:	f01f fe65 	bl	10020278 <_ZdlPvj>
100005ae:	e7f2      	b.n	10000596 <_ZNSt11_Tuple_implILj0EJKNSt7__cxx1112basic_stringIcSt11char_traitsIcESaIcEEES6_N14wifi_interface12CMD_DATATYPEEiibSt6vectorIS5_SaIS5_EEEED1Ev+0x36>
100005b0:	6828      	ldr	r0, [r5, #0]
100005b2:	68ab      	ldr	r3, [r5, #8]
100005b4:	1a19      	subs	r1, r3, r0
100005b6:	2800      	cmp	r0, #0
100005b8:	d001      	beq.n	100005be <_ZNSt11_Tuple_implILj0EJKNSt7__cxx1112basic_stringIcSt11char_traitsIcESaIcEEES6_N14wifi_interface12CMD_DATATYPEEiibSt6vectorIS5_SaIS5_EEEED1Ev+0x5e>
100005ba:	f01f fe5d 	bl	10020278 <_ZdlPvj>
100005be:	0028      	movs	r0, r5
100005c0:	bd70      	pop	{r4, r5, r6, pc}
	...

100005c4 <_ZN16settings_storageC1Ev>:
100005c4:	4b01      	ldr	r3, [pc, #4]	; (100005cc <_ZN16settings_storageC1Ev+0x8>)
100005c6:	3308      	adds	r3, #8
100005c8:	6003      	str	r3, [r0, #0]
100005ca:	4770      	bx	lr
100005cc:	1002b088 	.word	0x1002b088

100005d0 <_ZNSt12_Vector_baseINSt7__cxx1112basic_stringIcSt11char_traitsIcESaIcEEESaIS5_EED1Ev>:
100005d0:	b510      	push	{r4, lr}
100005d2:	0004      	movs	r4, r0
100005d4:	6800      	ldr	r0, [r0, #0]
100005d6:	68a3      	ldr	r3, [r4, #8]
100005d8:	1a19      	subs	r1, r3, r0
100005da:	2800      	cmp	r0, #0
100005dc:	d001      	beq.n	100005e2 <_ZNSt12_Vector_baseINSt7__cxx1112basic_stringIcSt11char_traitsIcESaIcEEESaIS5_EED1Ev+0x12>
100005de:	f01f fe4b 	bl	10020278 <_ZdlPvj>
100005e2:	0020      	movs	r0, r4
100005e4:	bd10      	pop	{r4, pc}

100005e6 <_ZNSt6vectorINSt7__cxx1112basic_stringIcSt11char_traitsIcESaIcEEESaIS5_EED1Ev>:
100005e6:	b570      	push	{r4, r5, r6, lr}
100005e8:	0006      	movs	r6, r0
100005ea:	6804      	ldr	r4, [r0, #0]
100005ec:	6845      	ldr	r5, [r0, #4]
100005ee:	e000      	b.n	100005f2 <_ZNSt6vectorINSt7__cxx1112basic_stringIcSt11char_traitsIcESaIcEEESaIS5_EED1Ev+0xc>
100005f0:	3418      	adds	r4, #24
100005f2:	42a5      	cmp	r5, r4
100005f4:	d009      	beq.n	1000060a <_ZNSt6vectorINSt7__cxx1112basic_stringIcSt11char_traitsIcESaIcEEESaIS5_EED1Ev+0x24>
100005f6:	6820      	ldr	r0, [r4, #0]
100005f8:	0023      	movs	r3, r4
100005fa:	3308      	adds	r3, #8
100005fc:	4298      	cmp	r0, r3
100005fe:	d0f7      	beq.n	100005f0 <_ZNSt6vectorINSt7__cxx1112basic_stringIcSt11char_traitsIcESaIcEEESaIS5_EED1Ev+0xa>
10000600:	68a3      	ldr	r3, [r4, #8]
10000602:	1c59      	adds	r1, r3, #1
10000604:	f01f fe38 	bl	10020278 <_ZdlPvj>
10000608:	e7f2      	b.n	100005f0 <_ZNSt6vectorINSt7__cxx1112basic_stringIcSt11char_traitsIcESaIcEEESaIS5_EED1Ev+0xa>
1000060a:	6830      	ldr	r0, [r6, #0]
1000060c:	68b3      	ldr	r3, [r6, #8]
1000060e:	1a19      	subs	r1, r3, r0
10000610:	2800      	cmp	r0, #0
10000612:	d001      	beq.n	10000618 <_ZNSt6vectorINSt7__cxx1112basic_stringIcSt11char_traitsIcESaIcEEESaIS5_EED1Ev+0x32>
10000614:	f01f fe30 	bl	10020278 <_ZdlPvj>
10000618:	0030      	movs	r0, r6
1000061a:	bd70      	pop	{r4, r5, r6, pc}

1000061c <_ZNSt8functionIFvNSt7__cxx1112basic_stringIcSt11char_traitsIcESaIcEEEEEC1IPS6_vvEET_>:
1000061c:	2300      	movs	r3, #0
1000061e:	6083      	str	r3, [r0, #8]
10000620:	2900      	cmp	r1, #0
10000622:	d004      	beq.n	1000062e <_ZNSt8functionIFvNSt7__cxx1112basic_stringIcSt11char_traitsIcESaIcEEEEEC1IPS6_vvEET_+0x12>
10000624:	6001      	str	r1, [r0, #0]
10000626:	4b02      	ldr	r3, [pc, #8]	; (10000630 <_ZNSt8functionIFvNSt7__cxx1112basic_stringIcSt11char_traitsIcESaIcEEEEEC1IPS6_vvEET_+0x14>)
10000628:	60c3      	str	r3, [r0, #12]
1000062a:	4b02      	ldr	r3, [pc, #8]	; (10000634 <_ZNSt8functionIFvNSt7__cxx1112basic_stringIcSt11char_traitsIcESaIcEEEEEC1IPS6_vvEET_+0x18>)
1000062c:	6083      	str	r3, [r0, #8]
1000062e:	4770      	bx	lr
10000630:	100004f5 	.word	0x100004f5
10000634:	100004a9 	.word	0x100004a9

10000638 <_ZNSt7__cxx1112basic_stringIcSt11char_traitsIcESaIcEE12_M_constructIPKcEEvT_S8_St20forward_iterator_tag>:
10000638:	b570      	push	{r4, r5, r6, lr}
1000063a:	b082      	sub	sp, #8
1000063c:	0005      	movs	r5, r0
1000063e:	1e0e      	subs	r6, r1, #0
10000640:	d00d      	beq.n	1000065e <_ZNSt7__cxx1112basic_stringIcSt11char_traitsIcESaIcEE12_M_constructIPKcEEvT_S8_St20forward_iterator_tag+0x26>
10000642:	1b94      	subs	r4, r2, r6
10000644:	9401      	str	r4, [sp, #4]
10000646:	2c0f      	cmp	r4, #15
10000648:	d80e      	bhi.n	10000668 <_ZNSt7__cxx1112basic_stringIcSt11char_traitsIcESaIcEE12_M_constructIPKcEEvT_S8_St20forward_iterator_tag+0x30>
1000064a:	6828      	ldr	r0, [r5, #0]
1000064c:	2c01      	cmp	r4, #1
1000064e:	d014      	beq.n	1000067a <_ZNSt7__cxx1112basic_stringIcSt11char_traitsIcESaIcEE12_M_constructIPKcEEvT_S8_St20forward_iterator_tag+0x42>
10000650:	2c00      	cmp	r4, #0
10000652:	d014      	beq.n	1000067e <_ZNSt7__cxx1112basic_stringIcSt11char_traitsIcESaIcEE12_M_constructIPKcEEvT_S8_St20forward_iterator_tag+0x46>
10000654:	0022      	movs	r2, r4
10000656:	0031      	movs	r1, r6
10000658:	f01b fcfa 	bl	1001c050 <__wrap___aeabi_memcpy>
1000065c:	e00f      	b.n	1000067e <_ZNSt7__cxx1112basic_stringIcSt11char_traitsIcESaIcEE12_M_constructIPKcEEvT_S8_St20forward_iterator_tag+0x46>
1000065e:	4291      	cmp	r1, r2
10000660:	d0ef      	beq.n	10000642 <_ZNSt7__cxx1112basic_stringIcSt11char_traitsIcESaIcEE12_M_constructIPKcEEvT_S8_St20forward_iterator_tag+0xa>
10000662:	480b      	ldr	r0, [pc, #44]	; (10000690 <_ZNSt7__cxx1112basic_stringIcSt11char_traitsIcESaIcEE12_M_constructIPKcEEvT_S8_St20forward_iterator_tag+0x58>)
10000664:	f020 ff9a 	bl	1002159c <_ZSt19__throw_logic_errorPKc>
10000668:	2200      	movs	r2, #0
1000066a:	a901      	add	r1, sp, #4
1000066c:	0028      	movs	r0, r5
1000066e:	f021 f9a5 	bl	100219bc <_ZNSt7__cxx1112basic_stringIcSt11char_traitsIcESaIcEE9_M_createERjj>
10000672:	6028      	str	r0, [r5, #0]
10000674:	9b01      	ldr	r3, [sp, #4]
10000676:	60ab      	str	r3, [r5, #8]
10000678:	e7e7      	b.n	1000064a <_ZNSt7__cxx1112basic_stringIcSt11char_traitsIcESaIcEE12_M_constructIPKcEEvT_S8_St20forward_iterator_tag+0x12>
1000067a:	7833      	ldrb	r3, [r6, #0]
1000067c:	7003      	strb	r3, [r0, #0]
1000067e:	9a01      	ldr	r2, [sp, #4]
10000680:	606a      	str	r2, [r5, #4]
10000682:	682b      	ldr	r3, [r5, #0]
10000684:	189b      	adds	r3, r3, r2
10000686:	2200      	movs	r2, #0
10000688:	701a      	strb	r2, [r3, #0]
1000068a:	b002      	add	sp, #8
1000068c:	bd70      	pop	{r4, r5, r6, pc}
1000068e:	46c0      	nop			; (mov r8, r8)
10000690:	1002ae2c 	.word	0x1002ae2c

10000694 <_ZNSt7__cxx1112basic_stringIcSt11char_traitsIcESaIcEEC1IS3_EEPKcRKS3_>:
10000694:	b570      	push	{r4, r5, r6, lr}
10000696:	0004      	movs	r4, r0
10000698:	000d      	movs	r5, r1
1000069a:	0003      	movs	r3, r0
1000069c:	3308      	adds	r3, #8
1000069e:	6003      	str	r3, [r0, #0]
100006a0:	2900      	cmp	r1, #0
100006a2:	d00a      	beq.n	100006ba <_ZNSt7__cxx1112basic_stringIcSt11char_traitsIcESaIcEEC1IS3_EEPKcRKS3_+0x26>
100006a4:	0008      	movs	r0, r1
100006a6:	f029 fbf7 	bl	10029e98 <strlen>
100006aa:	182a      	adds	r2, r5, r0
100006ac:	2300      	movs	r3, #0
100006ae:	0029      	movs	r1, r5
100006b0:	0020      	movs	r0, r4
100006b2:	f7ff ffc1 	bl	10000638 <_ZNSt7__cxx1112basic_stringIcSt11char_traitsIcESaIcEE12_M_constructIPKcEEvT_S8_St20forward_iterator_tag>
100006b6:	0020      	movs	r0, r4
100006b8:	bd70      	pop	{r4, r5, r6, pc}
100006ba:	2201      	movs	r2, #1
100006bc:	e7f6      	b.n	100006ac <_ZNSt7__cxx1112basic_stringIcSt11char_traitsIcESaIcEEC1IS3_EEPKcRKS3_+0x18>

100006be <_ZNSt11_Deque_baseINSt7__cxx1112basic_stringIcSt11char_traitsIcESaIcEEESaIS5_EE16_M_destroy_nodesEPPS5_S9_>:
100006be:	b570      	push	{r4, r5, r6, lr}
100006c0:	000c      	movs	r4, r1
100006c2:	0015      	movs	r5, r2
100006c4:	e004      	b.n	100006d0 <_ZNSt11_Deque_baseINSt7__cxx1112basic_stringIcSt11char_traitsIcESaIcEEESaIS5_EE16_M_destroy_nodesEPPS5_S9_+0x12>
100006c6:	cc01      	ldmia	r4!, {r0}
100006c8:	21fc      	movs	r1, #252	; 0xfc
100006ca:	0049      	lsls	r1, r1, #1
100006cc:	f01f fdd4 	bl	10020278 <_ZdlPvj>
100006d0:	42ac      	cmp	r4, r5
100006d2:	d3f8      	bcc.n	100006c6 <_ZNSt11_Deque_baseINSt7__cxx1112basic_stringIcSt11char_traitsIcESaIcEEESaIS5_EE16_M_destroy_nodesEPPS5_S9_+0x8>
100006d4:	bd70      	pop	{r4, r5, r6, pc}

100006d6 <_ZNSt11_Deque_baseINSt7__cxx1112basic_stringIcSt11char_traitsIcESaIcEEESaIS5_EED1Ev>:
100006d6:	b510      	push	{r4, lr}
100006d8:	0004      	movs	r4, r0
100006da:	6803      	ldr	r3, [r0, #0]
100006dc:	2b00      	cmp	r3, #0
100006de:	d009      	beq.n	100006f4 <_ZNSt11_Deque_baseINSt7__cxx1112basic_stringIcSt11char_traitsIcESaIcEEESaIS5_EED1Ev+0x1e>
100006e0:	6a43      	ldr	r3, [r0, #36]	; 0x24
100006e2:	1d1a      	adds	r2, r3, #4
100006e4:	6941      	ldr	r1, [r0, #20]
100006e6:	f7ff ffea 	bl	100006be <_ZNSt11_Deque_baseINSt7__cxx1112basic_stringIcSt11char_traitsIcESaIcEEESaIS5_EE16_M_destroy_nodesEPPS5_S9_>
100006ea:	6863      	ldr	r3, [r4, #4]
100006ec:	0099      	lsls	r1, r3, #2
100006ee:	6820      	ldr	r0, [r4, #0]
100006f0:	f01f fdc2 	bl	10020278 <_ZdlPvj>
100006f4:	0020      	movs	r0, r4
100006f6:	bd10      	pop	{r4, pc}

100006f8 <_ZNSt8__detail16_Hashtable_allocISaINS_10_Hash_nodeISt4pairIKNSt7__cxx1112basic_stringIcSt11char_traitsIcESaIcEEESt8functionIFvS8_EEELb1EEEEE21_M_deallocate_bucketsEPPNS_15_Hash_node_baseEj>:
100006f8:	b510      	push	{r4, lr}
100006fa:	0008      	movs	r0, r1
100006fc:	0091      	lsls	r1, r2, #2
100006fe:	f01f fdbb 	bl	10020278 <_ZdlPvj>
10000702:	bd10      	pop	{r4, pc}

10000704 <_ZNSt11_Deque_baseINSt7__cxx1112basic_stringIcSt11char_traitsIcESaIcEEESaIS5_EE15_M_create_nodesEPPS5_S9_>:
10000704:	b5f8      	push	{r3, r4, r5, r6, r7, lr}
10000706:	0006      	movs	r6, r0
10000708:	000d      	movs	r5, r1
1000070a:	0017      	movs	r7, r2
1000070c:	000c      	movs	r4, r1
1000070e:	e000      	b.n	10000712 <_ZNSt11_Deque_baseINSt7__cxx1112basic_stringIcSt11char_traitsIcESaIcEEESaIS5_EE15_M_create_nodesEPPS5_S9_+0xe>
10000710:	c401      	stmia	r4!, {r0}
10000712:	42bc      	cmp	r4, r7
10000714:	d211      	bcs.n	1000073a <_ZNSt11_Deque_baseINSt7__cxx1112basic_stringIcSt11char_traitsIcESaIcEEESaIS5_EE15_M_create_nodesEPPS5_S9_+0x36>
10000716:	20fc      	movs	r0, #252	; 0xfc
10000718:	0040      	lsls	r0, r0, #1
1000071a:	f020 fc6f 	bl	10020ffc <_Znwj>
1000071e:	e7f7      	b.n	10000710 <_ZNSt11_Deque_baseINSt7__cxx1112basic_stringIcSt11char_traitsIcESaIcEEESaIS5_EE15_M_create_nodesEPPS5_S9_+0xc>
10000720:	f01f ff40 	bl	100205a4 <__cxa_begin_catch>
10000724:	0022      	movs	r2, r4
10000726:	0029      	movs	r1, r5
10000728:	0030      	movs	r0, r6
1000072a:	f7ff ffc8 	bl	100006be <_ZNSt11_Deque_baseINSt7__cxx1112basic_stringIcSt11char_traitsIcESaIcEEESaIS5_EE16_M_destroy_nodesEPPS5_S9_>
1000072e:	f020 fbcb 	bl	10020ec8 <__cxa_rethrow>
10000732:	f01f ff71 	bl	10020618 <__cxa_end_catch>
10000736:	f01f fe47 	bl	100203c8 <__cxa_end_cleanup>
1000073a:	bdf8      	pop	{r3, r4, r5, r6, r7, pc}

1000073c <_ZNSt11_Deque_baseINSt7__cxx1112basic_stringIcSt11char_traitsIcESaIcEEESaIS5_EE17_M_initialize_mapEj>:
1000073c:	b5f0      	push	{r4, r5, r6, r7, lr}
1000073e:	b083      	sub	sp, #12
10000740:	0004      	movs	r4, r0
10000742:	000f      	movs	r7, r1
10000744:	2115      	movs	r1, #21
10000746:	0038      	movs	r0, r7
10000748:	f01a fa6a 	bl	1001ac20 <__wrap___aeabi_uidiv>
1000074c:	1c45      	adds	r5, r0, #1
1000074e:	2308      	movs	r3, #8
10000750:	9300      	str	r3, [sp, #0]
10000752:	3003      	adds	r0, #3
10000754:	9001      	str	r0, [sp, #4]
10000756:	2808      	cmp	r0, #8
10000758:	d818      	bhi.n	1000078c <_ZNSt11_Deque_baseINSt7__cxx1112basic_stringIcSt11char_traitsIcESaIcEEESaIS5_EE17_M_initialize_mapEj+0x50>
1000075a:	466b      	mov	r3, sp
1000075c:	6818      	ldr	r0, [r3, #0]
1000075e:	6060      	str	r0, [r4, #4]
10000760:	2380      	movs	r3, #128	; 0x80
10000762:	059b      	lsls	r3, r3, #22
10000764:	4298      	cmp	r0, r3
10000766:	d213      	bcs.n	10000790 <_ZNSt11_Deque_baseINSt7__cxx1112basic_stringIcSt11char_traitsIcESaIcEEESaIS5_EE17_M_initialize_mapEj+0x54>
10000768:	0080      	lsls	r0, r0, #2
1000076a:	f020 fc47 	bl	10020ffc <_Znwj>
1000076e:	0006      	movs	r6, r0
10000770:	6020      	str	r0, [r4, #0]
10000772:	6863      	ldr	r3, [r4, #4]
10000774:	1b58      	subs	r0, r3, r5
10000776:	0840      	lsrs	r0, r0, #1
10000778:	0080      	lsls	r0, r0, #2
1000077a:	1836      	adds	r6, r6, r0
1000077c:	00ad      	lsls	r5, r5, #2
1000077e:	1975      	adds	r5, r6, r5
10000780:	002a      	movs	r2, r5
10000782:	0031      	movs	r1, r6
10000784:	0020      	movs	r0, r4
10000786:	f7ff ffbd 	bl	10000704 <_ZNSt11_Deque_baseINSt7__cxx1112basic_stringIcSt11char_traitsIcESaIcEEESaIS5_EE15_M_create_nodesEPPS5_S9_>
1000078a:	e003      	b.n	10000794 <_ZNSt11_Deque_baseINSt7__cxx1112basic_stringIcSt11char_traitsIcESaIcEEESaIS5_EE17_M_initialize_mapEj+0x58>
1000078c:	ab01      	add	r3, sp, #4
1000078e:	e7e5      	b.n	1000075c <_ZNSt11_Deque_baseINSt7__cxx1112basic_stringIcSt11char_traitsIcESaIcEEESaIS5_EE17_M_initialize_mapEj+0x20>
10000790:	f020 fef4 	bl	1002157c <_ZSt17__throw_bad_allocv>
10000794:	6166      	str	r6, [r4, #20]
10000796:	6833      	ldr	r3, [r6, #0]
10000798:	60e3      	str	r3, [r4, #12]
1000079a:	001a      	movs	r2, r3
1000079c:	32f9      	adds	r2, #249	; 0xf9
1000079e:	32ff      	adds	r2, #255	; 0xff
100007a0:	6122      	str	r2, [r4, #16]
100007a2:	3d04      	subs	r5, #4
100007a4:	6265      	str	r5, [r4, #36]	; 0x24
100007a6:	682d      	ldr	r5, [r5, #0]
100007a8:	61e5      	str	r5, [r4, #28]
100007aa:	002a      	movs	r2, r5
100007ac:	32f9      	adds	r2, #249	; 0xf9
100007ae:	32ff      	adds	r2, #255	; 0xff
100007b0:	6222      	str	r2, [r4, #32]
100007b2:	60a3      	str	r3, [r4, #8]
100007b4:	2115      	movs	r1, #21
100007b6:	0038      	movs	r0, r7
100007b8:	f01a fa32 	bl	1001ac20 <__wrap___aeabi_uidiv>
100007bc:	000b      	movs	r3, r1
100007be:	0049      	lsls	r1, r1, #1
100007c0:	18c9      	adds	r1, r1, r3
100007c2:	00c9      	lsls	r1, r1, #3
100007c4:	186d      	adds	r5, r5, r1
100007c6:	61a5      	str	r5, [r4, #24]
100007c8:	b003      	add	sp, #12
100007ca:	bdf0      	pop	{r4, r5, r6, r7, pc}
100007cc:	f01f feea 	bl	100205a4 <__cxa_begin_catch>
100007d0:	6863      	ldr	r3, [r4, #4]
100007d2:	0099      	lsls	r1, r3, #2
100007d4:	6820      	ldr	r0, [r4, #0]
100007d6:	f01f fd4f 	bl	10020278 <_ZdlPvj>
100007da:	2300      	movs	r3, #0
100007dc:	6023      	str	r3, [r4, #0]
100007de:	6063      	str	r3, [r4, #4]
100007e0:	f020 fb72 	bl	10020ec8 <__cxa_rethrow>
100007e4:	f01f ff18 	bl	10020618 <__cxa_end_catch>
100007e8:	f01f fdee 	bl	100203c8 <__cxa_end_cleanup>

100007ec <_ZNSt5dequeINSt7__cxx1112basic_stringIcSt11char_traitsIcESaIcEEESaIS5_EE19_M_destroy_data_auxESt15_Deque_iteratorIS5_RS5_PS5_ESB_>:
100007ec:	b5f0      	push	{r4, r5, r6, r7, lr}
100007ee:	46c6      	mov	lr, r8
100007f0:	b500      	push	{lr}
100007f2:	4688      	mov	r8, r1
100007f4:	0017      	movs	r7, r2
100007f6:	68cb      	ldr	r3, [r1, #12]
100007f8:	1d1e      	adds	r6, r3, #4
100007fa:	e00d      	b.n	10000818 <_ZNSt5dequeINSt7__cxx1112basic_stringIcSt11char_traitsIcESaIcEEESaIS5_EE19_M_destroy_data_auxESt15_Deque_iteratorIS5_RS5_PS5_ESB_+0x2c>
100007fc:	3418      	adds	r4, #24
100007fe:	42a5      	cmp	r5, r4
10000800:	d009      	beq.n	10000816 <_ZNSt5dequeINSt7__cxx1112basic_stringIcSt11char_traitsIcESaIcEEESaIS5_EE19_M_destroy_data_auxESt15_Deque_iteratorIS5_RS5_PS5_ESB_+0x2a>
10000802:	6820      	ldr	r0, [r4, #0]
10000804:	0023      	movs	r3, r4
10000806:	3308      	adds	r3, #8
10000808:	4298      	cmp	r0, r3
1000080a:	d0f7      	beq.n	100007fc <_ZNSt5dequeINSt7__cxx1112basic_stringIcSt11char_traitsIcESaIcEEESaIS5_EE19_M_destroy_data_auxESt15_Deque_iteratorIS5_RS5_PS5_ESB_+0x10>
1000080c:	68a3      	ldr	r3, [r4, #8]
1000080e:	1c59      	adds	r1, r3, #1
10000810:	f01f fd32 	bl	10020278 <_ZdlPvj>
10000814:	e7f2      	b.n	100007fc <_ZNSt5dequeINSt7__cxx1112basic_stringIcSt11char_traitsIcESaIcEEESaIS5_EE19_M_destroy_data_auxESt15_Deque_iteratorIS5_RS5_PS5_ESB_+0x10>
10000816:	3604      	adds	r6, #4
10000818:	68fb      	ldr	r3, [r7, #12]
1000081a:	42b3      	cmp	r3, r6
1000081c:	d904      	bls.n	10000828 <_ZNSt5dequeINSt7__cxx1112basic_stringIcSt11char_traitsIcESaIcEEESaIS5_EE19_M_destroy_data_auxESt15_Deque_iteratorIS5_RS5_PS5_ESB_+0x3c>
1000081e:	6834      	ldr	r4, [r6, #0]
10000820:	0025      	movs	r5, r4
10000822:	35f9      	adds	r5, #249	; 0xf9
10000824:	35ff      	adds	r5, #255	; 0xff
10000826:	e7ea      	b.n	100007fe <_ZNSt5dequeINSt7__cxx1112basic_stringIcSt11char_traitsIcESaIcEEESaIS5_EE19_M_destroy_data_auxESt15_Deque_iteratorIS5_RS5_PS5_ESB_+0x12>
10000828:	4642      	mov	r2, r8
1000082a:	68d2      	ldr	r2, [r2, #12]
1000082c:	4293      	cmp	r3, r2
1000082e:	d020      	beq.n	10000872 <_ZNSt5dequeINSt7__cxx1112basic_stringIcSt11char_traitsIcESaIcEEESaIS5_EE19_M_destroy_data_auxESt15_Deque_iteratorIS5_RS5_PS5_ESB_+0x86>
10000830:	4643      	mov	r3, r8
10000832:	681c      	ldr	r4, [r3, #0]
10000834:	689d      	ldr	r5, [r3, #8]
10000836:	e000      	b.n	1000083a <_ZNSt5dequeINSt7__cxx1112basic_stringIcSt11char_traitsIcESaIcEEESaIS5_EE19_M_destroy_data_auxESt15_Deque_iteratorIS5_RS5_PS5_ESB_+0x4e>
10000838:	3418      	adds	r4, #24
1000083a:	42a5      	cmp	r5, r4
1000083c:	d009      	beq.n	10000852 <_ZNSt5dequeINSt7__cxx1112basic_stringIcSt11char_traitsIcESaIcEEESaIS5_EE19_M_destroy_data_auxESt15_Deque_iteratorIS5_RS5_PS5_ESB_+0x66>
1000083e:	6820      	ldr	r0, [r4, #0]
10000840:	0023      	movs	r3, r4
10000842:	3308      	adds	r3, #8
10000844:	4298      	cmp	r0, r3
10000846:	d0f7      	beq.n	10000838 <_ZNSt5dequeINSt7__cxx1112basic_stringIcSt11char_traitsIcESaIcEEESaIS5_EE19_M_destroy_data_auxESt15_Deque_iteratorIS5_RS5_PS5_ESB_+0x4c>
10000848:	68a3      	ldr	r3, [r4, #8]
1000084a:	1c59      	adds	r1, r3, #1
1000084c:	f01f fd14 	bl	10020278 <_ZdlPvj>
10000850:	e7f2      	b.n	10000838 <_ZNSt5dequeINSt7__cxx1112basic_stringIcSt11char_traitsIcESaIcEEESaIS5_EE19_M_destroy_data_auxESt15_Deque_iteratorIS5_RS5_PS5_ESB_+0x4c>
10000852:	687c      	ldr	r4, [r7, #4]
10000854:	683d      	ldr	r5, [r7, #0]
10000856:	e000      	b.n	1000085a <_ZNSt5dequeINSt7__cxx1112basic_stringIcSt11char_traitsIcESaIcEEESaIS5_EE19_M_destroy_data_auxESt15_Deque_iteratorIS5_RS5_PS5_ESB_+0x6e>
10000858:	3418      	adds	r4, #24
1000085a:	42a5      	cmp	r5, r4
1000085c:	d01a      	beq.n	10000894 <_ZNSt5dequeINSt7__cxx1112basic_stringIcSt11char_traitsIcESaIcEEESaIS5_EE19_M_destroy_data_auxESt15_Deque_iteratorIS5_RS5_PS5_ESB_+0xa8>
1000085e:	6820      	ldr	r0, [r4, #0]
10000860:	0023      	movs	r3, r4
10000862:	3308      	adds	r3, #8
10000864:	4298      	cmp	r0, r3
10000866:	d0f7      	beq.n	10000858 <_ZNSt5dequeINSt7__cxx1112basic_stringIcSt11char_traitsIcESaIcEEESaIS5_EE19_M_destroy_data_auxESt15_Deque_iteratorIS5_RS5_PS5_ESB_+0x6c>
10000868:	68a3      	ldr	r3, [r4, #8]
1000086a:	1c59      	adds	r1, r3, #1
1000086c:	f01f fd04 	bl	10020278 <_ZdlPvj>
10000870:	e7f2      	b.n	10000858 <_ZNSt5dequeINSt7__cxx1112basic_stringIcSt11char_traitsIcESaIcEEESaIS5_EE19_M_destroy_data_auxESt15_Deque_iteratorIS5_RS5_PS5_ESB_+0x6c>
10000872:	4643      	mov	r3, r8
10000874:	681c      	ldr	r4, [r3, #0]
10000876:	683d      	ldr	r5, [r7, #0]
10000878:	e000      	b.n	1000087c <_ZNSt5dequeINSt7__cxx1112basic_stringIcSt11char_traitsIcESaIcEEESaIS5_EE19_M_destroy_data_auxESt15_Deque_iteratorIS5_RS5_PS5_ESB_+0x90>
1000087a:	3418      	adds	r4, #24
1000087c:	42a5      	cmp	r5, r4
1000087e:	d009      	beq.n	10000894 <_ZNSt5dequeINSt7__cxx1112basic_stringIcSt11char_traitsIcESaIcEEESaIS5_EE19_M_destroy_data_auxESt15_Deque_iteratorIS5_RS5_PS5_ESB_+0xa8>
10000880:	6820      	ldr	r0, [r4, #0]
10000882:	0023      	movs	r3, r4
10000884:	3308      	adds	r3, #8
10000886:	4298      	cmp	r0, r3
10000888:	d0f7      	beq.n	1000087a <_ZNSt5dequeINSt7__cxx1112basic_stringIcSt11char_traitsIcESaIcEEESaIS5_EE19_M_destroy_data_auxESt15_Deque_iteratorIS5_RS5_PS5_ESB_+0x8e>
1000088a:	68a3      	ldr	r3, [r4, #8]
1000088c:	1c59      	adds	r1, r3, #1
1000088e:	f01f fcf3 	bl	10020278 <_ZdlPvj>
10000892:	e7f2      	b.n	1000087a <_ZNSt5dequeINSt7__cxx1112basic_stringIcSt11char_traitsIcESaIcEEESaIS5_EE19_M_destroy_data_auxESt15_Deque_iteratorIS5_RS5_PS5_ESB_+0x8e>
10000894:	bc80      	pop	{r7}
10000896:	46b8      	mov	r8, r7
10000898:	bdf0      	pop	{r4, r5, r6, r7, pc}
	...

1000089c <_ZNSt7__cxx1112basic_stringIcSt11char_traitsIcESaIcEE12_M_constructIPcEEvT_S7_St20forward_iterator_tag>:
1000089c:	b570      	push	{r4, r5, r6, lr}
1000089e:	b082      	sub	sp, #8
100008a0:	0005      	movs	r5, r0
100008a2:	1e0e      	subs	r6, r1, #0
100008a4:	d00d      	beq.n	100008c2 <_ZNSt7__cxx1112basic_stringIcSt11char_traitsIcESaIcEE12_M_constructIPcEEvT_S7_St20forward_iterator_tag+0x26>
100008a6:	1b94      	subs	r4, r2, r6
100008a8:	9401      	str	r4, [sp, #4]
100008aa:	2c0f      	cmp	r4, #15
100008ac:	d80e      	bhi.n	100008cc <_ZNSt7__cxx1112basic_stringIcSt11char_traitsIcESaIcEE12_M_constructIPcEEvT_S7_St20forward_iterator_tag+0x30>
100008ae:	6828      	ldr	r0, [r5, #0]
100008b0:	2c01      	cmp	r4, #1
100008b2:	d014      	beq.n	100008de <_ZNSt7__cxx1112basic_stringIcSt11char_traitsIcESaIcEE12_M_constructIPcEEvT_S7_St20forward_iterator_tag+0x42>
100008b4:	2c00      	cmp	r4, #0
100008b6:	d014      	beq.n	100008e2 <_ZNSt7__cxx1112basic_stringIcSt11char_traitsIcESaIcEE12_M_constructIPcEEvT_S7_St20forward_iterator_tag+0x46>
100008b8:	0022      	movs	r2, r4
100008ba:	0031      	movs	r1, r6
100008bc:	f01b fbc8 	bl	1001c050 <__wrap___aeabi_memcpy>
100008c0:	e00f      	b.n	100008e2 <_ZNSt7__cxx1112basic_stringIcSt11char_traitsIcESaIcEE12_M_constructIPcEEvT_S7_St20forward_iterator_tag+0x46>
100008c2:	4291      	cmp	r1, r2
100008c4:	d0ef      	beq.n	100008a6 <_ZNSt7__cxx1112basic_stringIcSt11char_traitsIcESaIcEE12_M_constructIPcEEvT_S7_St20forward_iterator_tag+0xa>
100008c6:	480b      	ldr	r0, [pc, #44]	; (100008f4 <_ZNSt7__cxx1112basic_stringIcSt11char_traitsIcESaIcEE12_M_constructIPcEEvT_S7_St20forward_iterator_tag+0x58>)
100008c8:	f020 fe68 	bl	1002159c <_ZSt19__throw_logic_errorPKc>
100008cc:	2200      	movs	r2, #0
100008ce:	a901      	add	r1, sp, #4
100008d0:	0028      	movs	r0, r5
100008d2:	f021 f873 	bl	100219bc <_ZNSt7__cxx1112basic_stringIcSt11char_traitsIcESaIcEE9_M_createERjj>
100008d6:	6028      	str	r0, [r5, #0]
100008d8:	9b01      	ldr	r3, [sp, #4]
100008da:	60ab      	str	r3, [r5, #8]
100008dc:	e7e7      	b.n	100008ae <_ZNSt7__cxx1112basic_stringIcSt11char_traitsIcESaIcEE12_M_constructIPcEEvT_S7_St20forward_iterator_tag+0x12>
100008de:	7833      	ldrb	r3, [r6, #0]
100008e0:	7003      	strb	r3, [r0, #0]
100008e2:	9a01      	ldr	r2, [sp, #4]
100008e4:	606a      	str	r2, [r5, #4]
100008e6:	682b      	ldr	r3, [r5, #0]
100008e8:	189b      	adds	r3, r3, r2
100008ea:	2200      	movs	r2, #0
100008ec:	701a      	strb	r2, [r3, #0]
100008ee:	b002      	add	sp, #8
100008f0:	bd70      	pop	{r4, r5, r6, pc}
100008f2:	46c0      	nop			; (mov r8, r8)
100008f4:	1002ae2c 	.word	0x1002ae2c

100008f8 <_ZNSt6vectorINSt7__cxx1112basic_stringIcSt11char_traitsIcESaIcEEESaIS5_EEC1ESt16initializer_listIS5_ERKS6_>:
100008f8:	b5f0      	push	{r4, r5, r6, r7, lr}
100008fa:	46c6      	mov	lr, r8
100008fc:	b500      	push	{lr}
100008fe:	b082      	sub	sp, #8
10000900:	0007      	movs	r7, r0
10000902:	9100      	str	r1, [sp, #0]
10000904:	9201      	str	r2, [sp, #4]
10000906:	2300      	movs	r3, #0
10000908:	6003      	str	r3, [r0, #0]
1000090a:	6043      	str	r3, [r0, #4]
1000090c:	6083      	str	r3, [r0, #8]
1000090e:	000c      	movs	r4, r1
10000910:	0055      	lsls	r5, r2, #1
10000912:	18ad      	adds	r5, r5, r2
10000914:	00ed      	lsls	r5, r5, #3
10000916:	194e      	adds	r6, r1, r5
10000918:	10e8      	asrs	r0, r5, #3
1000091a:	106a      	asrs	r2, r5, #1
1000091c:	1812      	adds	r2, r2, r0
1000091e:	0113      	lsls	r3, r2, #4
10000920:	18d2      	adds	r2, r2, r3
10000922:	0213      	lsls	r3, r2, #8
10000924:	18d2      	adds	r2, r2, r3
10000926:	0413      	lsls	r3, r2, #16
10000928:	18d3      	adds	r3, r2, r3
1000092a:	005b      	lsls	r3, r3, #1
1000092c:	181b      	adds	r3, r3, r0
1000092e:	4924      	ldr	r1, [pc, #144]	; (100009c0 <_ZNSt6vectorINSt7__cxx1112basic_stringIcSt11char_traitsIcESaIcEEESaIS5_EEC1ESt16initializer_listIS5_ERKS6_+0xc8>)
10000930:	428d      	cmp	r5, r1
10000932:	d80a      	bhi.n	1000094a <_ZNSt6vectorINSt7__cxx1112basic_stringIcSt11char_traitsIcESaIcEEESaIS5_EEC1ESt16initializer_listIS5_ERKS6_+0x52>
10000934:	2b00      	cmp	r3, #0
10000936:	d015      	beq.n	10000964 <_ZNSt6vectorINSt7__cxx1112basic_stringIcSt11char_traitsIcESaIcEEESaIS5_EEC1ESt16initializer_listIS5_ERKS6_+0x6c>
10000938:	4922      	ldr	r1, [pc, #136]	; (100009c4 <_ZNSt6vectorINSt7__cxx1112basic_stringIcSt11char_traitsIcESaIcEEESaIS5_EEC1ESt16initializer_listIS5_ERKS6_+0xcc>)
1000093a:	428b      	cmp	r3, r1
1000093c:	d809      	bhi.n	10000952 <_ZNSt6vectorINSt7__cxx1112basic_stringIcSt11char_traitsIcESaIcEEESaIS5_EEC1ESt16initializer_listIS5_ERKS6_+0x5a>
1000093e:	0058      	lsls	r0, r3, #1
10000940:	18c0      	adds	r0, r0, r3
10000942:	00c0      	lsls	r0, r0, #3
10000944:	f020 fb5a 	bl	10020ffc <_Znwj>
10000948:	e005      	b.n	10000956 <_ZNSt6vectorINSt7__cxx1112basic_stringIcSt11char_traitsIcESaIcEEESaIS5_EEC1ESt16initializer_listIS5_ERKS6_+0x5e>
1000094a:	481f      	ldr	r0, [pc, #124]	; (100009c8 <_ZNSt6vectorINSt7__cxx1112basic_stringIcSt11char_traitsIcESaIcEEESaIS5_EEC1ESt16initializer_listIS5_ERKS6_+0xd0>)
1000094c:	f020 fe3e 	bl	100215cc <_ZSt20__throw_length_errorPKc>
10000950:	e02b      	b.n	100009aa <_ZNSt6vectorINSt7__cxx1112basic_stringIcSt11char_traitsIcESaIcEEESaIS5_EEC1ESt16initializer_listIS5_ERKS6_+0xb2>
10000952:	f020 fe13 	bl	1002157c <_ZSt17__throw_bad_allocv>
10000956:	4680      	mov	r8, r0
10000958:	4643      	mov	r3, r8
1000095a:	603b      	str	r3, [r7, #0]
1000095c:	4445      	add	r5, r8
1000095e:	60bd      	str	r5, [r7, #8]
10000960:	4645      	mov	r5, r8
10000962:	e004      	b.n	1000096e <_ZNSt6vectorINSt7__cxx1112basic_stringIcSt11char_traitsIcESaIcEEESaIS5_EEC1ESt16initializer_listIS5_ERKS6_+0x76>
10000964:	2300      	movs	r3, #0
10000966:	4698      	mov	r8, r3
10000968:	e7f6      	b.n	10000958 <_ZNSt6vectorINSt7__cxx1112basic_stringIcSt11char_traitsIcESaIcEEESaIS5_EEC1ESt16initializer_listIS5_ERKS6_+0x60>
1000096a:	3418      	adds	r4, #24
1000096c:	3518      	adds	r5, #24
1000096e:	42a6      	cmp	r6, r4
10000970:	d020      	beq.n	100009b4 <_ZNSt6vectorINSt7__cxx1112basic_stringIcSt11char_traitsIcESaIcEEESaIS5_EEC1ESt16initializer_listIS5_ERKS6_+0xbc>
10000972:	002b      	movs	r3, r5
10000974:	3308      	adds	r3, #8
10000976:	602b      	str	r3, [r5, #0]
10000978:	6822      	ldr	r2, [r4, #0]
1000097a:	6863      	ldr	r3, [r4, #4]
1000097c:	469c      	mov	ip, r3
1000097e:	4462      	add	r2, ip
10000980:	2300      	movs	r3, #0
10000982:	6821      	ldr	r1, [r4, #0]
10000984:	0028      	movs	r0, r5
10000986:	f7ff ff89 	bl	1000089c <_ZNSt7__cxx1112basic_stringIcSt11char_traitsIcESaIcEE12_M_constructIPcEEvT_S7_St20forward_iterator_tag>
1000098a:	e7ee      	b.n	1000096a <_ZNSt6vectorINSt7__cxx1112basic_stringIcSt11char_traitsIcESaIcEEESaIS5_EEC1ESt16initializer_listIS5_ERKS6_+0x72>
1000098c:	f01f fe0a 	bl	100205a4 <__cxa_begin_catch>
10000990:	4545      	cmp	r5, r8
10000992:	d006      	beq.n	100009a2 <_ZNSt6vectorINSt7__cxx1112basic_stringIcSt11char_traitsIcESaIcEEESaIS5_EEC1ESt16initializer_listIS5_ERKS6_+0xaa>
10000994:	4640      	mov	r0, r8
10000996:	f021 f82f 	bl	100219f8 <_ZNSt7__cxx1112basic_stringIcSt11char_traitsIcESaIcEE10_M_disposeEv>
1000099a:	2318      	movs	r3, #24
1000099c:	469c      	mov	ip, r3
1000099e:	44e0      	add	r8, ip
100009a0:	e7f6      	b.n	10000990 <_ZNSt6vectorINSt7__cxx1112basic_stringIcSt11char_traitsIcESaIcEEESaIS5_EEC1ESt16initializer_listIS5_ERKS6_+0x98>
100009a2:	f020 fa91 	bl	10020ec8 <__cxa_rethrow>
100009a6:	f01f fe37 	bl	10020618 <__cxa_end_catch>
100009aa:	0038      	movs	r0, r7
100009ac:	f7ff fe10 	bl	100005d0 <_ZNSt12_Vector_baseINSt7__cxx1112basic_stringIcSt11char_traitsIcESaIcEEESaIS5_EED1Ev>
100009b0:	f01f fd0a 	bl	100203c8 <__cxa_end_cleanup>
100009b4:	607d      	str	r5, [r7, #4]
100009b6:	0038      	movs	r0, r7
100009b8:	b002      	add	sp, #8
100009ba:	bc80      	pop	{r7}
100009bc:	46b8      	mov	r8, r7
100009be:	bdf0      	pop	{r4, r5, r6, r7, pc}
100009c0:	7ffffff8 	.word	0x7ffffff8
100009c4:	05555555 	.word	0x05555555
100009c8:	1002ae58 	.word	0x1002ae58

100009cc <_ZNSt11_Tuple_implILj0EJKNSt7__cxx1112basic_stringIcSt11char_traitsIcESaIcEEES6_N14wifi_interface12CMD_DATATYPEEiibSt6vectorIS5_SaIS5_EEEEC1ERS6_SD_RKS8_RKiSH_RKbRKSB_>:
100009cc:	b5f8      	push	{r3, r4, r5, r6, r7, lr}
100009ce:	46de      	mov	lr, fp
100009d0:	4657      	mov	r7, sl
100009d2:	464e      	mov	r6, r9
100009d4:	4645      	mov	r5, r8
100009d6:	b5e0      	push	{r5, r6, r7, lr}
100009d8:	0006      	movs	r6, r0
100009da:	4688      	mov	r8, r1
100009dc:	4691      	mov	r9, r2
100009de:	469a      	mov	sl, r3
100009e0:	9d0d      	ldr	r5, [sp, #52]	; 0x34
100009e2:	686b      	ldr	r3, [r5, #4]
100009e4:	682a      	ldr	r2, [r5, #0]
100009e6:	1a9a      	subs	r2, r3, r2
100009e8:	10d2      	asrs	r2, r2, #3
100009ea:	0093      	lsls	r3, r2, #2
100009ec:	189b      	adds	r3, r3, r2
100009ee:	011c      	lsls	r4, r3, #4
100009f0:	191b      	adds	r3, r3, r4
100009f2:	021c      	lsls	r4, r3, #8
100009f4:	191b      	adds	r3, r3, r4
100009f6:	041c      	lsls	r4, r3, #16
100009f8:	191c      	adds	r4, r3, r4
100009fa:	0064      	lsls	r4, r4, #1
100009fc:	18a4      	adds	r4, r4, r2
100009fe:	2300      	movs	r3, #0
10000a00:	6003      	str	r3, [r0, #0]
10000a02:	6043      	str	r3, [r0, #4]
10000a04:	6083      	str	r3, [r0, #8]
10000a06:	2c00      	cmp	r4, #0
10000a08:	d016      	beq.n	10000a38 <_ZNSt11_Tuple_implILj0EJKNSt7__cxx1112basic_stringIcSt11char_traitsIcESaIcEEES6_N14wifi_interface12CMD_DATATYPEEiibSt6vectorIS5_SaIS5_EEEEC1ERS6_SD_RKS8_RKiSH_RKbRKSB_+0x6c>
10000a0a:	4b3d      	ldr	r3, [pc, #244]	; (10000b00 <_ZNSt11_Tuple_implILj0EJKNSt7__cxx1112basic_stringIcSt11char_traitsIcESaIcEEES6_N14wifi_interface12CMD_DATATYPEEiibSt6vectorIS5_SaIS5_EEEEC1ERS6_SD_RKS8_RKiSH_RKbRKSB_+0x134>)
10000a0c:	429c      	cmp	r4, r3
10000a0e:	d811      	bhi.n	10000a34 <_ZNSt11_Tuple_implILj0EJKNSt7__cxx1112basic_stringIcSt11char_traitsIcESaIcEEES6_N14wifi_interface12CMD_DATATYPEEiibSt6vectorIS5_SaIS5_EEEEC1ERS6_SD_RKS8_RKiSH_RKbRKSB_+0x68>
10000a10:	0060      	lsls	r0, r4, #1
10000a12:	1900      	adds	r0, r0, r4
10000a14:	00c0      	lsls	r0, r0, #3
10000a16:	f020 faf1 	bl	10020ffc <_Znwj>
10000a1a:	6030      	str	r0, [r6, #0]
10000a1c:	6070      	str	r0, [r6, #4]
10000a1e:	0063      	lsls	r3, r4, #1
10000a20:	191c      	adds	r4, r3, r4
10000a22:	00e4      	lsls	r4, r4, #3
10000a24:	1900      	adds	r0, r0, r4
10000a26:	60b0      	str	r0, [r6, #8]
10000a28:	6833      	ldr	r3, [r6, #0]
10000a2a:	469b      	mov	fp, r3
10000a2c:	682b      	ldr	r3, [r5, #0]
10000a2e:	686f      	ldr	r7, [r5, #4]
10000a30:	465c      	mov	r4, fp
10000a32:	e006      	b.n	10000a42 <_ZNSt11_Tuple_implILj0EJKNSt7__cxx1112basic_stringIcSt11char_traitsIcESaIcEEES6_N14wifi_interface12CMD_DATATYPEEiibSt6vectorIS5_SaIS5_EEEEC1ERS6_SD_RKS8_RKiSH_RKbRKSB_+0x76>
10000a34:	f020 fda2 	bl	1002157c <_ZSt17__throw_bad_allocv>
10000a38:	2000      	movs	r0, #0
10000a3a:	e7ee      	b.n	10000a1a <_ZNSt11_Tuple_implILj0EJKNSt7__cxx1112basic_stringIcSt11char_traitsIcESaIcEEES6_N14wifi_interface12CMD_DATATYPEEiibSt6vectorIS5_SaIS5_EEEEC1ERS6_SD_RKS8_RKiSH_RKbRKSB_+0x4e>
10000a3c:	002b      	movs	r3, r5
10000a3e:	3318      	adds	r3, #24
10000a40:	3418      	adds	r4, #24
10000a42:	001d      	movs	r5, r3
10000a44:	42bb      	cmp	r3, r7
10000a46:	d00a      	beq.n	10000a5e <_ZNSt11_Tuple_implILj0EJKNSt7__cxx1112basic_stringIcSt11char_traitsIcESaIcEEES6_N14wifi_interface12CMD_DATATYPEEiibSt6vectorIS5_SaIS5_EEEEC1ERS6_SD_RKS8_RKiSH_RKbRKSB_+0x92>
10000a48:	0022      	movs	r2, r4
10000a4a:	3208      	adds	r2, #8
10000a4c:	6022      	str	r2, [r4, #0]
10000a4e:	6819      	ldr	r1, [r3, #0]
10000a50:	685a      	ldr	r2, [r3, #4]
10000a52:	188a      	adds	r2, r1, r2
10000a54:	2300      	movs	r3, #0
10000a56:	0020      	movs	r0, r4
10000a58:	f7ff ff20 	bl	1000089c <_ZNSt7__cxx1112basic_stringIcSt11char_traitsIcESaIcEE12_M_constructIPcEEvT_S7_St20forward_iterator_tag>
10000a5c:	e7ee      	b.n	10000a3c <_ZNSt11_Tuple_implILj0EJKNSt7__cxx1112basic_stringIcSt11char_traitsIcESaIcEEES6_N14wifi_interface12CMD_DATATYPEEiibSt6vectorIS5_SaIS5_EEEEC1ERS6_SD_RKS8_RKiSH_RKbRKSB_+0x70>
10000a5e:	6074      	str	r4, [r6, #4]
10000a60:	9b0c      	ldr	r3, [sp, #48]	; 0x30
10000a62:	781b      	ldrb	r3, [r3, #0]
10000a64:	7333      	strb	r3, [r6, #12]
10000a66:	9b0b      	ldr	r3, [sp, #44]	; 0x2c
10000a68:	681b      	ldr	r3, [r3, #0]
10000a6a:	6133      	str	r3, [r6, #16]
10000a6c:	9b0a      	ldr	r3, [sp, #40]	; 0x28
10000a6e:	681b      	ldr	r3, [r3, #0]
10000a70:	6173      	str	r3, [r6, #20]
10000a72:	4653      	mov	r3, sl
10000a74:	681b      	ldr	r3, [r3, #0]
10000a76:	61b3      	str	r3, [r6, #24]
10000a78:	0030      	movs	r0, r6
10000a7a:	301c      	adds	r0, #28
10000a7c:	0033      	movs	r3, r6
10000a7e:	3324      	adds	r3, #36	; 0x24
10000a80:	61f3      	str	r3, [r6, #28]
10000a82:	464b      	mov	r3, r9
10000a84:	6819      	ldr	r1, [r3, #0]
10000a86:	685a      	ldr	r2, [r3, #4]
10000a88:	188a      	adds	r2, r1, r2
10000a8a:	2300      	movs	r3, #0
10000a8c:	f7ff ff06 	bl	1000089c <_ZNSt7__cxx1112basic_stringIcSt11char_traitsIcESaIcEE12_M_constructIPcEEvT_S7_St20forward_iterator_tag>
10000a90:	e013      	b.n	10000aba <_ZNSt11_Tuple_implILj0EJKNSt7__cxx1112basic_stringIcSt11char_traitsIcESaIcEEES6_N14wifi_interface12CMD_DATATYPEEiibSt6vectorIS5_SaIS5_EEEEC1ERS6_SD_RKS8_RKiSH_RKbRKSB_+0xee>
10000a92:	f01f fd87 	bl	100205a4 <__cxa_begin_catch>
10000a96:	455c      	cmp	r4, fp
10000a98:	d006      	beq.n	10000aa8 <_ZNSt11_Tuple_implILj0EJKNSt7__cxx1112basic_stringIcSt11char_traitsIcESaIcEEES6_N14wifi_interface12CMD_DATATYPEEiibSt6vectorIS5_SaIS5_EEEEC1ERS6_SD_RKS8_RKiSH_RKbRKSB_+0xdc>
10000a9a:	4658      	mov	r0, fp
10000a9c:	f020 ffac 	bl	100219f8 <_ZNSt7__cxx1112basic_stringIcSt11char_traitsIcESaIcEE10_M_disposeEv>
10000aa0:	2318      	movs	r3, #24
10000aa2:	469c      	mov	ip, r3
10000aa4:	44e3      	add	fp, ip
10000aa6:	e7f6      	b.n	10000a96 <_ZNSt11_Tuple_implILj0EJKNSt7__cxx1112basic_stringIcSt11char_traitsIcESaIcEEES6_N14wifi_interface12CMD_DATATYPEEiibSt6vectorIS5_SaIS5_EEEEC1ERS6_SD_RKS8_RKiSH_RKbRKSB_+0xca>
10000aa8:	f020 fa0e 	bl	10020ec8 <__cxa_rethrow>
10000aac:	f01f fdb4 	bl	10020618 <__cxa_end_catch>
10000ab0:	0030      	movs	r0, r6
10000ab2:	f7ff fd8d 	bl	100005d0 <_ZNSt12_Vector_baseINSt7__cxx1112basic_stringIcSt11char_traitsIcESaIcEEESaIS5_EED1Ev>
10000ab6:	f01f fc87 	bl	100203c8 <__cxa_end_cleanup>
10000aba:	0030      	movs	r0, r6
10000abc:	3034      	adds	r0, #52	; 0x34
10000abe:	0033      	movs	r3, r6
10000ac0:	333c      	adds	r3, #60	; 0x3c
10000ac2:	6373      	str	r3, [r6, #52]	; 0x34
10000ac4:	4643      	mov	r3, r8
10000ac6:	6819      	ldr	r1, [r3, #0]
10000ac8:	685a      	ldr	r2, [r3, #4]
10000aca:	188a      	adds	r2, r1, r2
10000acc:	2300      	movs	r3, #0
10000ace:	f7ff fee5 	bl	1000089c <_ZNSt7__cxx1112basic_stringIcSt11char_traitsIcESaIcEE12_M_constructIPcEEvT_S7_St20forward_iterator_tag>
10000ad2:	e00d      	b.n	10000af0 <_ZNSt11_Tuple_implILj0EJKNSt7__cxx1112basic_stringIcSt11char_traitsIcESaIcEEES6_N14wifi_interface12CMD_DATATYPEEiibSt6vectorIS5_SaIS5_EEEEC1ERS6_SD_RKS8_RKiSH_RKbRKSB_+0x124>
10000ad4:	0030      	movs	r0, r6
10000ad6:	f7ff fd86 	bl	100005e6 <_ZNSt6vectorINSt7__cxx1112basic_stringIcSt11char_traitsIcESaIcEEESaIS5_EED1Ev>
10000ada:	f01f fc75 	bl	100203c8 <__cxa_end_cleanup>
10000ade:	0030      	movs	r0, r6
10000ae0:	301c      	adds	r0, #28
10000ae2:	f020 ff89 	bl	100219f8 <_ZNSt7__cxx1112basic_stringIcSt11char_traitsIcESaIcEE10_M_disposeEv>
10000ae6:	0030      	movs	r0, r6
10000ae8:	f7ff fd7d 	bl	100005e6 <_ZNSt6vectorINSt7__cxx1112basic_stringIcSt11char_traitsIcESaIcEEESaIS5_EED1Ev>
10000aec:	f01f fc6c 	bl	100203c8 <__cxa_end_cleanup>
10000af0:	0030      	movs	r0, r6
10000af2:	bcf0      	pop	{r4, r5, r6, r7}
10000af4:	46bb      	mov	fp, r7
10000af6:	46b2      	mov	sl, r6
10000af8:	46a9      	mov	r9, r5
10000afa:	46a0      	mov	r8, r4
10000afc:	bdf8      	pop	{r3, r4, r5, r6, r7, pc}
10000afe:	46c0      	nop			; (mov r8, r8)
10000b00:	05555555 	.word	0x05555555

10000b04 <_ZNSt8__detail16_Hashtable_allocISaINS_10_Hash_nodeISt4pairIKNSt7__cxx1112basic_stringIcSt11char_traitsIcESaIcEEESt8functionIFvS8_EEELb1EEEEE19_M_allocate_bucketsEj>:
10000b04:	b570      	push	{r4, r5, r6, lr}
10000b06:	2380      	movs	r3, #128	; 0x80
10000b08:	059b      	lsls	r3, r3, #22
10000b0a:	4299      	cmp	r1, r3
10000b0c:	d20a      	bcs.n	10000b24 <_ZNSt8__detail16_Hashtable_allocISaINS_10_Hash_nodeISt4pairIKNSt7__cxx1112basic_stringIcSt11char_traitsIcESaIcEEESt8functionIFvS8_EEELb1EEEEE19_M_allocate_bucketsEj+0x20>
10000b0e:	008c      	lsls	r4, r1, #2
10000b10:	0020      	movs	r0, r4
10000b12:	f020 fa73 	bl	10020ffc <_Znwj>
10000b16:	0005      	movs	r5, r0
10000b18:	0022      	movs	r2, r4
10000b1a:	2100      	movs	r1, #0
10000b1c:	f01b fa92 	bl	1001c044 <__wrap_memset>
10000b20:	0028      	movs	r0, r5
10000b22:	bd70      	pop	{r4, r5, r6, pc}
10000b24:	f020 fd2a 	bl	1002157c <_ZSt17__throw_bad_allocv>

10000b28 <_ZNSt8__detail16_Hashtable_allocISaINS_10_Hash_nodeISt4pairIKNSt7__cxx1112basic_stringIcSt11char_traitsIcESaIcEEESt8functionIFvS8_EEELb1EEEEE22_M_deallocate_node_ptrEPSE_>:
10000b28:	b510      	push	{r4, lr}
10000b2a:	0008      	movs	r0, r1
10000b2c:	2130      	movs	r1, #48	; 0x30
10000b2e:	f01f fba3 	bl	10020278 <_ZdlPvj>
10000b32:	bd10      	pop	{r4, pc}

10000b34 <_ZNSt8__detail16_Hashtable_allocISaINS_10_Hash_nodeISt4pairIKNSt7__cxx1112basic_stringIcSt11char_traitsIcESaIcEEESt8functionIFvS8_EEELb1EEEEE18_M_deallocate_nodeEPSE_>:
10000b34:	b570      	push	{r4, r5, r6, lr}
10000b36:	0005      	movs	r5, r0
10000b38:	000c      	movs	r4, r1
10000b3a:	0008      	movs	r0, r1
10000b3c:	301c      	adds	r0, #28
10000b3e:	6883      	ldr	r3, [r0, #8]
10000b40:	2b00      	cmp	r3, #0
10000b42:	d002      	beq.n	10000b4a <_ZNSt8__detail16_Hashtable_allocISaINS_10_Hash_nodeISt4pairIKNSt7__cxx1112basic_stringIcSt11char_traitsIcESaIcEEESt8functionIFvS8_EEELb1EEEEE18_M_deallocate_nodeEPSE_+0x16>
10000b44:	2203      	movs	r2, #3
10000b46:	0001      	movs	r1, r0
10000b48:	4798      	blx	r3
10000b4a:	6860      	ldr	r0, [r4, #4]
10000b4c:	0023      	movs	r3, r4
10000b4e:	330c      	adds	r3, #12
10000b50:	4298      	cmp	r0, r3
10000b52:	d003      	beq.n	10000b5c <_ZNSt8__detail16_Hashtable_allocISaINS_10_Hash_nodeISt4pairIKNSt7__cxx1112basic_stringIcSt11char_traitsIcESaIcEEESt8functionIFvS8_EEELb1EEEEE18_M_deallocate_nodeEPSE_+0x28>
10000b54:	68e1      	ldr	r1, [r4, #12]
10000b56:	3101      	adds	r1, #1
10000b58:	f01f fb8e 	bl	10020278 <_ZdlPvj>
10000b5c:	0021      	movs	r1, r4
10000b5e:	0028      	movs	r0, r5
10000b60:	f7ff ffe2 	bl	10000b28 <_ZNSt8__detail16_Hashtable_allocISaINS_10_Hash_nodeISt4pairIKNSt7__cxx1112basic_stringIcSt11char_traitsIcESaIcEEESt8functionIFvS8_EEELb1EEEEE22_M_deallocate_node_ptrEPSE_>
10000b64:	bd70      	pop	{r4, r5, r6, pc}

10000b66 <_ZNSt8__detail16_Hashtable_allocISaINS_10_Hash_nodeISt4pairIKNSt7__cxx1112basic_stringIcSt11char_traitsIcESaIcEEESt8functionIFvS8_EEELb1EEEEE19_M_deallocate_nodesEPSE_>:
10000b66:	b570      	push	{r4, r5, r6, lr}
10000b68:	0005      	movs	r5, r0
10000b6a:	e004      	b.n	10000b76 <_ZNSt8__detail16_Hashtable_allocISaINS_10_Hash_nodeISt4pairIKNSt7__cxx1112basic_stringIcSt11char_traitsIcESaIcEEESt8functionIFvS8_EEELb1EEEEE19_M_deallocate_nodesEPSE_+0x10>
10000b6c:	680c      	ldr	r4, [r1, #0]
10000b6e:	0028      	movs	r0, r5
10000b70:	f7ff ffe0 	bl	10000b34 <_ZNSt8__detail16_Hashtable_allocISaINS_10_Hash_nodeISt4pairIKNSt7__cxx1112basic_stringIcSt11char_traitsIcESaIcEEESt8functionIFvS8_EEELb1EEEEE18_M_deallocate_nodeEPSE_>
10000b74:	0021      	movs	r1, r4
10000b76:	2900      	cmp	r1, #0
10000b78:	d1f8      	bne.n	10000b6c <_ZNSt8__detail16_Hashtable_allocISaINS_10_Hash_nodeISt4pairIKNSt7__cxx1112basic_stringIcSt11char_traitsIcESaIcEEESt8functionIFvS8_EEELb1EEEEE19_M_deallocate_nodesEPSE_+0x6>
10000b7a:	bd70      	pop	{r4, r5, r6, pc}

10000b7c <_ZNSt10_HashtableINSt7__cxx1112basic_stringIcSt11char_traitsIcESaIcEEESt4pairIKS5_St8functionIFvS5_EEESaISB_ENSt8__detail10_Select1stESt8equal_toIS5_ESt4hashIS5_ENSD_18_Mod_range_hashingENSD_20_Default_ranged_hashENSD_20_Prime_rehash_policyENSD_17_Hashtable_traitsILb1ELb0ELb1EEEE5clearEv>:
10000b7c:	b510      	push	{r4, lr}
10000b7e:	0004      	movs	r4, r0
10000b80:	6881      	ldr	r1, [r0, #8]
10000b82:	f7ff fff0 	bl	10000b66 <_ZNSt8__detail16_Hashtable_allocISaINS_10_Hash_nodeISt4pairIKNSt7__cxx1112basic_stringIcSt11char_traitsIcESaIcEEESt8functionIFvS8_EEELb1EEEEE19_M_deallocate_nodesEPSE_>
10000b86:	6863      	ldr	r3, [r4, #4]
10000b88:	009a      	lsls	r2, r3, #2
10000b8a:	2100      	movs	r1, #0
10000b8c:	6820      	ldr	r0, [r4, #0]
10000b8e:	f01b fa59 	bl	1001c044 <__wrap_memset>
10000b92:	2300      	movs	r3, #0
10000b94:	60e3      	str	r3, [r4, #12]
10000b96:	60a3      	str	r3, [r4, #8]
10000b98:	bd10      	pop	{r4, pc}

10000b9a <_ZNSt10_HashtableINSt7__cxx1112basic_stringIcSt11char_traitsIcESaIcEEESt4pairIKS5_St8functionIFvS5_EEESaISB_ENSt8__detail10_Select1stESt8equal_toIS5_ESt4hashIS5_ENSD_18_Mod_range_hashingENSD_20_Default_ranged_hashENSD_20_Prime_rehash_policyENSD_17_Hashtable_traitsILb1ELb0ELb1EEEED1Ev>:
10000b9a:	b510      	push	{r4, lr}
10000b9c:	0004      	movs	r4, r0
10000b9e:	f7ff ffed 	bl	10000b7c <_ZNSt10_HashtableINSt7__cxx1112basic_stringIcSt11char_traitsIcESaIcEEESt4pairIKS5_St8functionIFvS5_EEESaISB_ENSt8__detail10_Select1stESt8equal_toIS5_ESt4hashIS5_ENSD_18_Mod_range_hashingENSD_20_Default_ranged_hashENSD_20_Prime_rehash_policyENSD_17_Hashtable_traitsILb1ELb0ELb1EEEE5clearEv>
10000ba2:	6821      	ldr	r1, [r4, #0]
10000ba4:	6862      	ldr	r2, [r4, #4]
10000ba6:	0023      	movs	r3, r4
10000ba8:	3318      	adds	r3, #24
10000baa:	4299      	cmp	r1, r3
10000bac:	d002      	beq.n	10000bb4 <_ZNSt10_HashtableINSt7__cxx1112basic_stringIcSt11char_traitsIcESaIcEEESt4pairIKS5_St8functionIFvS5_EEESaISB_ENSt8__detail10_Select1stESt8equal_toIS5_ESt4hashIS5_ENSD_18_Mod_range_hashingENSD_20_Default_ranged_hashENSD_20_Prime_rehash_policyENSD_17_Hashtable_traitsILb1ELb0ELb1EEEED1Ev+0x1a>
10000bae:	0020      	movs	r0, r4
10000bb0:	f7ff fda2 	bl	100006f8 <_ZNSt8__detail16_Hashtable_allocISaINS_10_Hash_nodeISt4pairIKNSt7__cxx1112basic_stringIcSt11char_traitsIcESaIcEEESt8functionIFvS8_EEELb1EEEEE21_M_deallocate_bucketsEPPNS_15_Hash_node_baseEj>
10000bb4:	0020      	movs	r0, r4
10000bb6:	bd10      	pop	{r4, pc}

10000bb8 <_ZNKSt10_HashtableINSt7__cxx1112basic_stringIcSt11char_traitsIcESaIcEEESt4pairIKS5_St8functionIFvS5_EEESaISB_ENSt8__detail10_Select1stESt8equal_toIS5_ESt4hashIS5_ENSD_18_Mod_range_hashingENSD_20_Default_ranged_hashENSD_20_Prime_rehash_policyENSD_17_Hashtable_traitsILb1ELb0ELb1EEEE19_M_find_before_nodeEjRS7_j>:
10000bb8:	b5f0      	push	{r4, r5, r6, r7, lr}
10000bba:	46d6      	mov	lr, sl
10000bbc:	464f      	mov	r7, r9
10000bbe:	4646      	mov	r6, r8
10000bc0:	b5c0      	push	{r6, r7, lr}
10000bc2:	0007      	movs	r7, r0
10000bc4:	4688      	mov	r8, r1
10000bc6:	4692      	mov	sl, r2
10000bc8:	4699      	mov	r9, r3
10000bca:	008b      	lsls	r3, r1, #2
10000bcc:	6802      	ldr	r2, [r0, #0]
10000bce:	58d6      	ldr	r6, [r2, r3]
10000bd0:	2e00      	cmp	r6, #0
10000bd2:	d026      	beq.n	10000c22 <_ZNKSt10_HashtableINSt7__cxx1112basic_stringIcSt11char_traitsIcESaIcEEESt4pairIKS5_St8functionIFvS5_EEESaISB_ENSt8__detail10_Select1stESt8equal_toIS5_ESt4hashIS5_ENSD_18_Mod_range_hashingENSD_20_Default_ranged_hashENSD_20_Prime_rehash_policyENSD_17_Hashtable_traitsILb1ELb0ELb1EEEE19_M_find_before_nodeEjRS7_j+0x6a>
10000bd4:	6834      	ldr	r4, [r6, #0]
10000bd6:	e019      	b.n	10000c0c <_ZNKSt10_HashtableINSt7__cxx1112basic_stringIcSt11char_traitsIcESaIcEEESt4pairIKS5_St8functionIFvS5_EEESaISB_ENSt8__detail10_Select1stESt8equal_toIS5_ESt4hashIS5_ENSD_18_Mod_range_hashingENSD_20_Default_ranged_hashENSD_20_Prime_rehash_policyENSD_17_Hashtable_traitsILb1ELb0ELb1EEEE19_M_find_before_nodeEjRS7_j+0x54>
10000bd8:	4653      	mov	r3, sl
10000bda:	6818      	ldr	r0, [r3, #0]
10000bdc:	6861      	ldr	r1, [r4, #4]
10000bde:	2a00      	cmp	r2, #0
10000be0:	d005      	beq.n	10000bee <_ZNKSt10_HashtableINSt7__cxx1112basic_stringIcSt11char_traitsIcESaIcEEESt4pairIKS5_St8functionIFvS5_EEESaISB_ENSt8__detail10_Select1stESt8equal_toIS5_ESt4hashIS5_ENSD_18_Mod_range_hashingENSD_20_Default_ranged_hashENSD_20_Prime_rehash_policyENSD_17_Hashtable_traitsILb1ELb0ELb1EEEE19_M_find_before_nodeEjRS7_j+0x36>
10000be2:	f028 fe41 	bl	10029868 <memcmp>
10000be6:	2800      	cmp	r0, #0
10000be8:	d103      	bne.n	10000bf2 <_ZNKSt10_HashtableINSt7__cxx1112basic_stringIcSt11char_traitsIcESaIcEEESt4pairIKS5_St8functionIFvS5_EEESaISB_ENSt8__detail10_Select1stESt8equal_toIS5_ESt4hashIS5_ENSD_18_Mod_range_hashingENSD_20_Default_ranged_hashENSD_20_Prime_rehash_policyENSD_17_Hashtable_traitsILb1ELb0ELb1EEEE19_M_find_before_nodeEjRS7_j+0x3a>
10000bea:	2301      	movs	r3, #1
10000bec:	e017      	b.n	10000c1e <_ZNKSt10_HashtableINSt7__cxx1112basic_stringIcSt11char_traitsIcESaIcEEESt4pairIKS5_St8functionIFvS5_EEESaISB_ENSt8__detail10_Select1stESt8equal_toIS5_ESt4hashIS5_ENSD_18_Mod_range_hashingENSD_20_Default_ranged_hashENSD_20_Prime_rehash_policyENSD_17_Hashtable_traitsILb1ELb0ELb1EEEE19_M_find_before_nodeEjRS7_j+0x66>
10000bee:	2301      	movs	r3, #1
10000bf0:	e015      	b.n	10000c1e <_ZNKSt10_HashtableINSt7__cxx1112basic_stringIcSt11char_traitsIcESaIcEEESt4pairIKS5_St8functionIFvS5_EEESaISB_ENSt8__detail10_Select1stESt8equal_toIS5_ESt4hashIS5_ENSD_18_Mod_range_hashingENSD_20_Default_ranged_hashENSD_20_Prime_rehash_policyENSD_17_Hashtable_traitsILb1ELb0ELb1EEEE19_M_find_before_nodeEjRS7_j+0x66>
10000bf2:	2300      	movs	r3, #0
10000bf4:	e013      	b.n	10000c1e <_ZNKSt10_HashtableINSt7__cxx1112basic_stringIcSt11char_traitsIcESaIcEEESt4pairIKS5_St8functionIFvS5_EEESaISB_ENSt8__detail10_Select1stESt8equal_toIS5_ESt4hashIS5_ENSD_18_Mod_range_hashingENSD_20_Default_ranged_hashENSD_20_Prime_rehash_policyENSD_17_Hashtable_traitsILb1ELb0ELb1EEEE19_M_find_before_nodeEjRS7_j+0x66>
10000bf6:	6825      	ldr	r5, [r4, #0]
10000bf8:	2d00      	cmp	r5, #0
10000bfa:	d01a      	beq.n	10000c32 <_ZNKSt10_HashtableINSt7__cxx1112basic_stringIcSt11char_traitsIcESaIcEEESt4pairIKS5_St8functionIFvS5_EEESaISB_ENSt8__detail10_Select1stESt8equal_toIS5_ESt4hashIS5_ENSD_18_Mod_range_hashingENSD_20_Default_ranged_hashENSD_20_Prime_rehash_policyENSD_17_Hashtable_traitsILb1ELb0ELb1EEEE19_M_find_before_nodeEjRS7_j+0x7a>
10000bfc:	6879      	ldr	r1, [r7, #4]
10000bfe:	6ae8      	ldr	r0, [r5, #44]	; 0x2c
10000c00:	f01a f80e 	bl	1001ac20 <__wrap___aeabi_uidiv>
10000c04:	0026      	movs	r6, r4
10000c06:	4588      	cmp	r8, r1
10000c08:	d111      	bne.n	10000c2e <_ZNKSt10_HashtableINSt7__cxx1112basic_stringIcSt11char_traitsIcESaIcEEESt4pairIKS5_St8functionIFvS5_EEESaISB_ENSt8__detail10_Select1stESt8equal_toIS5_ESt4hashIS5_ENSD_18_Mod_range_hashingENSD_20_Default_ranged_hashENSD_20_Prime_rehash_policyENSD_17_Hashtable_traitsILb1ELb0ELb1EEEE19_M_find_before_nodeEjRS7_j+0x76>
10000c0a:	002c      	movs	r4, r5
10000c0c:	6ae3      	ldr	r3, [r4, #44]	; 0x2c
10000c0e:	4599      	cmp	r9, r3
10000c10:	d1f1      	bne.n	10000bf6 <_ZNKSt10_HashtableINSt7__cxx1112basic_stringIcSt11char_traitsIcESaIcEEESt4pairIKS5_St8functionIFvS5_EEESaISB_ENSt8__detail10_Select1stESt8equal_toIS5_ESt4hashIS5_ENSD_18_Mod_range_hashingENSD_20_Default_ranged_hashENSD_20_Prime_rehash_policyENSD_17_Hashtable_traitsILb1ELb0ELb1EEEE19_M_find_before_nodeEjRS7_j+0x3e>
10000c12:	4653      	mov	r3, sl
10000c14:	685a      	ldr	r2, [r3, #4]
10000c16:	68a3      	ldr	r3, [r4, #8]
10000c18:	429a      	cmp	r2, r3
10000c1a:	d0dd      	beq.n	10000bd8 <_ZNKSt10_HashtableINSt7__cxx1112basic_stringIcSt11char_traitsIcESaIcEEESt4pairIKS5_St8functionIFvS5_EEESaISB_ENSt8__detail10_Select1stESt8equal_toIS5_ESt4hashIS5_ENSD_18_Mod_range_hashingENSD_20_Default_ranged_hashENSD_20_Prime_rehash_policyENSD_17_Hashtable_traitsILb1ELb0ELb1EEEE19_M_find_before_nodeEjRS7_j+0x20>
10000c1c:	2300      	movs	r3, #0
10000c1e:	2b00      	cmp	r3, #0
10000c20:	d0e9      	beq.n	10000bf6 <_ZNKSt10_HashtableINSt7__cxx1112basic_stringIcSt11char_traitsIcESaIcEEESt4pairIKS5_St8functionIFvS5_EEESaISB_ENSt8__detail10_Select1stESt8equal_toIS5_ESt4hashIS5_ENSD_18_Mod_range_hashingENSD_20_Default_ranged_hashENSD_20_Prime_rehash_policyENSD_17_Hashtable_traitsILb1ELb0ELb1EEEE19_M_find_before_nodeEjRS7_j+0x3e>
10000c22:	0030      	movs	r0, r6
10000c24:	bce0      	pop	{r5, r6, r7}
10000c26:	46ba      	mov	sl, r7
10000c28:	46b1      	mov	r9, r6
10000c2a:	46a8      	mov	r8, r5
10000c2c:	bdf0      	pop	{r4, r5, r6, r7, pc}
10000c2e:	2600      	movs	r6, #0
10000c30:	e7f7      	b.n	10000c22 <_ZNKSt10_HashtableINSt7__cxx1112basic_stringIcSt11char_traitsIcESaIcEEESt4pairIKS5_St8functionIFvS5_EEESaISB_ENSt8__detail10_Select1stESt8equal_toIS5_ESt4hashIS5_ENSD_18_Mod_range_hashingENSD_20_Default_ranged_hashENSD_20_Prime_rehash_policyENSD_17_Hashtable_traitsILb1ELb0ELb1EEEE19_M_find_before_nodeEjRS7_j+0x6a>
10000c32:	002e      	movs	r6, r5
10000c34:	e7f5      	b.n	10000c22 <_ZNKSt10_HashtableINSt7__cxx1112basic_stringIcSt11char_traitsIcESaIcEEESt4pairIKS5_St8functionIFvS5_EEESaISB_ENSt8__detail10_Select1stESt8equal_toIS5_ESt4hashIS5_ENSD_18_Mod_range_hashingENSD_20_Default_ranged_hashENSD_20_Prime_rehash_policyENSD_17_Hashtable_traitsILb1ELb0ELb1EEEE19_M_find_before_nodeEjRS7_j+0x6a>

10000c36 <_ZNSt10_HashtableINSt7__cxx1112basic_stringIcSt11char_traitsIcESaIcEEESt4pairIKS5_St8functionIFvS5_EEESaISB_ENSt8__detail10_Select1stESt8equal_toIS5_ESt4hashIS5_ENSD_18_Mod_range_hashingENSD_20_Default_ranged_hashENSD_20_Prime_rehash_policyENSD_17_Hashtable_traitsILb1ELb0ELb1EEEE22_M_insert_bucket_beginEjPNSD_10_Hash_nodeISB_Lb1EEE>:
10000c36:	b5f8      	push	{r3, r4, r5, r6, r7, lr}
10000c38:	0004      	movs	r4, r0
10000c3a:	0016      	movs	r6, r2
10000c3c:	008d      	lsls	r5, r1, #2
10000c3e:	6803      	ldr	r3, [r0, #0]
10000c40:	595b      	ldr	r3, [r3, r5]
10000c42:	2b00      	cmp	r3, #0
10000c44:	d005      	beq.n	10000c52 <_ZNSt10_HashtableINSt7__cxx1112basic_stringIcSt11char_traitsIcESaIcEEESt4pairIKS5_St8functionIFvS5_EEESaISB_ENSt8__detail10_Select1stESt8equal_toIS5_ESt4hashIS5_ENSD_18_Mod_range_hashingENSD_20_Default_ranged_hashENSD_20_Prime_rehash_policyENSD_17_Hashtable_traitsILb1ELb0ELb1EEEE22_M_insert_bucket_beginEjPNSD_10_Hash_nodeISB_Lb1EEE+0x1c>
10000c46:	681b      	ldr	r3, [r3, #0]
10000c48:	6013      	str	r3, [r2, #0]
10000c4a:	6803      	ldr	r3, [r0, #0]
10000c4c:	595b      	ldr	r3, [r3, r5]
10000c4e:	601a      	str	r2, [r3, #0]
10000c50:	bdf8      	pop	{r3, r4, r5, r6, r7, pc}
10000c52:	6883      	ldr	r3, [r0, #8]
10000c54:	6013      	str	r3, [r2, #0]
10000c56:	6082      	str	r2, [r0, #8]
10000c58:	6813      	ldr	r3, [r2, #0]
10000c5a:	2b00      	cmp	r3, #0
10000c5c:	d006      	beq.n	10000c6c <_ZNSt10_HashtableINSt7__cxx1112basic_stringIcSt11char_traitsIcESaIcEEESt4pairIKS5_St8functionIFvS5_EEESaISB_ENSt8__detail10_Select1stESt8equal_toIS5_ESt4hashIS5_ENSD_18_Mod_range_hashingENSD_20_Default_ranged_hashENSD_20_Prime_rehash_policyENSD_17_Hashtable_traitsILb1ELb0ELb1EEEE22_M_insert_bucket_beginEjPNSD_10_Hash_nodeISB_Lb1EEE+0x36>
10000c5e:	6807      	ldr	r7, [r0, #0]
10000c60:	6ad8      	ldr	r0, [r3, #44]	; 0x2c
10000c62:	6861      	ldr	r1, [r4, #4]
10000c64:	f019 ffdc 	bl	1001ac20 <__wrap___aeabi_uidiv>
10000c68:	0089      	lsls	r1, r1, #2
10000c6a:	507e      	str	r6, [r7, r1]
10000c6c:	6823      	ldr	r3, [r4, #0]
10000c6e:	3408      	adds	r4, #8
10000c70:	515c      	str	r4, [r3, r5]
10000c72:	e7ed      	b.n	10000c50 <_ZNSt10_HashtableINSt7__cxx1112basic_stringIcSt11char_traitsIcESaIcEEESt4pairIKS5_St8functionIFvS5_EEESaISB_ENSt8__detail10_Select1stESt8equal_toIS5_ESt4hashIS5_ENSD_18_Mod_range_hashingENSD_20_Default_ranged_hashENSD_20_Prime_rehash_policyENSD_17_Hashtable_traitsILb1ELb0ELb1EEEE22_M_insert_bucket_beginEjPNSD_10_Hash_nodeISB_Lb1EEE+0x1a>

10000c74 <_ZNSt8_Rb_treeIjSt4pairIKjSt10shared_ptrIN7PicoLed13PicoLedTargetEEESt10_Select1stIS6_ESt4lessIjESaIS6_EE8_M_eraseEPSt13_Rb_tree_nodeIS6_E>:
10000c74:	b5f8      	push	{r3, r4, r5, r6, r7, lr}
10000c76:	0007      	movs	r7, r0
10000c78:	000c      	movs	r4, r1
10000c7a:	e004      	b.n	10000c86 <_ZNSt8_Rb_treeIjSt4pairIKjSt10shared_ptrIN7PicoLed13PicoLedTargetEEESt10_Select1stIS6_ESt4lessIjESaIS6_EE8_M_eraseEPSt13_Rb_tree_nodeIS6_E+0x12>
10000c7c:	211c      	movs	r1, #28
10000c7e:	0020      	movs	r0, r4
10000c80:	f01f fafa 	bl	10020278 <_ZdlPvj>
10000c84:	0034      	movs	r4, r6
10000c86:	2c00      	cmp	r4, #0
10000c88:	d01a      	beq.n	10000cc0 <_ZNSt8_Rb_treeIjSt4pairIKjSt10shared_ptrIN7PicoLed13PicoLedTargetEEESt10_Select1stIS6_ESt4lessIjESaIS6_EE8_M_eraseEPSt13_Rb_tree_nodeIS6_E+0x4c>
10000c8a:	68e1      	ldr	r1, [r4, #12]
10000c8c:	0038      	movs	r0, r7
10000c8e:	f7ff fff1 	bl	10000c74 <_ZNSt8_Rb_treeIjSt4pairIKjSt10shared_ptrIN7PicoLed13PicoLedTargetEEESt10_Select1stIS6_ESt4lessIjESaIS6_EE8_M_eraseEPSt13_Rb_tree_nodeIS6_E>
10000c92:	68a6      	ldr	r6, [r4, #8]
10000c94:	69a5      	ldr	r5, [r4, #24]
10000c96:	2d00      	cmp	r5, #0
10000c98:	d0f0      	beq.n	10000c7c <_ZNSt8_Rb_treeIjSt4pairIKjSt10shared_ptrIN7PicoLed13PicoLedTargetEEESt10_Select1stIS6_ESt4lessIjESaIS6_EE8_M_eraseEPSt13_Rb_tree_nodeIS6_E+0x8>
10000c9a:	686b      	ldr	r3, [r5, #4]
10000c9c:	3b01      	subs	r3, #1
10000c9e:	606b      	str	r3, [r5, #4]
10000ca0:	2b00      	cmp	r3, #0
10000ca2:	d1eb      	bne.n	10000c7c <_ZNSt8_Rb_treeIjSt4pairIKjSt10shared_ptrIN7PicoLed13PicoLedTargetEEESt10_Select1stIS6_ESt4lessIjESaIS6_EE8_M_eraseEPSt13_Rb_tree_nodeIS6_E+0x8>
10000ca4:	682b      	ldr	r3, [r5, #0]
10000ca6:	689b      	ldr	r3, [r3, #8]
10000ca8:	0028      	movs	r0, r5
10000caa:	4798      	blx	r3
10000cac:	68ab      	ldr	r3, [r5, #8]
10000cae:	3b01      	subs	r3, #1
10000cb0:	60ab      	str	r3, [r5, #8]
10000cb2:	2b00      	cmp	r3, #0
10000cb4:	d1e2      	bne.n	10000c7c <_ZNSt8_Rb_treeIjSt4pairIKjSt10shared_ptrIN7PicoLed13PicoLedTargetEEESt10_Select1stIS6_ESt4lessIjESaIS6_EE8_M_eraseEPSt13_Rb_tree_nodeIS6_E+0x8>
10000cb6:	682b      	ldr	r3, [r5, #0]
10000cb8:	68db      	ldr	r3, [r3, #12]
10000cba:	0028      	movs	r0, r5
10000cbc:	4798      	blx	r3
10000cbe:	e7dd      	b.n	10000c7c <_ZNSt8_Rb_treeIjSt4pairIKjSt10shared_ptrIN7PicoLed13PicoLedTargetEEESt10_Select1stIS6_ESt4lessIjESaIS6_EE8_M_eraseEPSt13_Rb_tree_nodeIS6_E+0x8>
10000cc0:	bdf8      	pop	{r3, r4, r5, r6, r7, pc}

10000cc2 <_ZNSt8_Rb_treeIjSt4pairIKjSt3mapIjSt10shared_ptrIN7PicoLed13PicoLedTargetEESt4lessIjESaIS0_IS1_S6_EEEESt10_Select1stISC_ES8_SaISC_EE8_M_eraseEPSt13_Rb_tree_nodeISC_E>:
10000cc2:	b570      	push	{r4, r5, r6, lr}
10000cc4:	0006      	movs	r6, r0
10000cc6:	000c      	movs	r4, r1
10000cc8:	e00e      	b.n	10000ce8 <_ZNSt8_Rb_treeIjSt4pairIKjSt3mapIjSt10shared_ptrIN7PicoLed13PicoLedTargetEESt4lessIjESaIS0_IS1_S6_EEEESt10_Select1stISC_ES8_SaISC_EE8_M_eraseEPSt13_Rb_tree_nodeISC_E+0x26>
10000cca:	68e1      	ldr	r1, [r4, #12]
10000ccc:	0030      	movs	r0, r6
10000cce:	f7ff fff8 	bl	10000cc2 <_ZNSt8_Rb_treeIjSt4pairIKjSt3mapIjSt10shared_ptrIN7PicoLed13PicoLedTargetEESt4lessIjESaIS0_IS1_S6_EEEESt10_Select1stISC_ES8_SaISC_EE8_M_eraseEPSt13_Rb_tree_nodeISC_E>
10000cd2:	68a5      	ldr	r5, [r4, #8]
10000cd4:	0020      	movs	r0, r4
10000cd6:	3014      	adds	r0, #20
10000cd8:	69e1      	ldr	r1, [r4, #28]
10000cda:	f7ff ffcb 	bl	10000c74 <_ZNSt8_Rb_treeIjSt4pairIKjSt10shared_ptrIN7PicoLed13PicoLedTargetEEESt10_Select1stIS6_ESt4lessIjESaIS6_EE8_M_eraseEPSt13_Rb_tree_nodeIS6_E>
10000cde:	212c      	movs	r1, #44	; 0x2c
10000ce0:	0020      	movs	r0, r4
10000ce2:	f01f fac9 	bl	10020278 <_ZdlPvj>
10000ce6:	002c      	movs	r4, r5
10000ce8:	2c00      	cmp	r4, #0
10000cea:	d1ee      	bne.n	10000cca <_ZNSt8_Rb_treeIjSt4pairIKjSt3mapIjSt10shared_ptrIN7PicoLed13PicoLedTargetEESt4lessIjESaIS0_IS1_S6_EEEESt10_Select1stISC_ES8_SaISC_EE8_M_eraseEPSt13_Rb_tree_nodeISC_E+0x8>
10000cec:	bd70      	pop	{r4, r5, r6, pc}

10000cee <_ZNSt10_HashtableINSt7__cxx1112basic_stringIcSt11char_traitsIcESaIcEEESt4pairIKS5_St8functionIFvS5_EEESaISB_ENSt8__detail10_Select1stESt8equal_toIS5_ESt4hashIS5_ENSD_18_Mod_range_hashingENSD_20_Default_ranged_hashENSD_20_Prime_rehash_policyENSD_17_Hashtable_traitsILb1ELb0ELb1EEEE13_M_rehash_auxEjSt17integral_constantIbLb1EE>:
10000cee:	b5f8      	push	{r3, r4, r5, r6, r7, lr}
10000cf0:	46ce      	mov	lr, r9
10000cf2:	4647      	mov	r7, r8
10000cf4:	b580      	push	{r7, lr}
10000cf6:	0005      	movs	r5, r0
10000cf8:	000f      	movs	r7, r1
10000cfa:	2901      	cmp	r1, #1
10000cfc:	d007      	beq.n	10000d0e <_ZNSt10_HashtableINSt7__cxx1112basic_stringIcSt11char_traitsIcESaIcEEESt4pairIKS5_St8functionIFvS5_EEESaISB_ENSt8__detail10_Select1stESt8equal_toIS5_ESt4hashIS5_ENSD_18_Mod_range_hashingENSD_20_Default_ranged_hashENSD_20_Prime_rehash_policyENSD_17_Hashtable_traitsILb1ELb0ELb1EEEE13_M_rehash_auxEjSt17integral_constantIbLb1EE+0x20>
10000cfe:	f7ff ff01 	bl	10000b04 <_ZNSt8__detail16_Hashtable_allocISaINS_10_Hash_nodeISt4pairIKNSt7__cxx1112basic_stringIcSt11char_traitsIcESaIcEEESt8functionIFvS8_EEELb1EEEEE19_M_allocate_bucketsEj>
10000d02:	4680      	mov	r8, r0
10000d04:	68ac      	ldr	r4, [r5, #8]
10000d06:	2300      	movs	r3, #0
10000d08:	60ab      	str	r3, [r5, #8]
10000d0a:	4699      	mov	r9, r3
10000d0c:	e00c      	b.n	10000d28 <_ZNSt10_HashtableINSt7__cxx1112basic_stringIcSt11char_traitsIcESaIcEEESt4pairIKS5_St8functionIFvS5_EEESaISB_ENSt8__detail10_Select1stESt8equal_toIS5_ESt4hashIS5_ENSD_18_Mod_range_hashingENSD_20_Default_ranged_hashENSD_20_Prime_rehash_policyENSD_17_Hashtable_traitsILb1ELb0ELb1EEEE13_M_rehash_auxEjSt17integral_constantIbLb1EE+0x3a>
10000d0e:	2300      	movs	r3, #0
10000d10:	6183      	str	r3, [r0, #24]
10000d12:	3318      	adds	r3, #24
10000d14:	4698      	mov	r8, r3
10000d16:	4480      	add	r8, r0
10000d18:	e7f4      	b.n	10000d04 <_ZNSt10_HashtableINSt7__cxx1112basic_stringIcSt11char_traitsIcESaIcEEESt4pairIKS5_St8functionIFvS5_EEESaISB_ENSt8__detail10_Select1stESt8equal_toIS5_ESt4hashIS5_ENSD_18_Mod_range_hashingENSD_20_Default_ranged_hashENSD_20_Prime_rehash_policyENSD_17_Hashtable_traitsILb1ELb0ELb1EEEE13_M_rehash_auxEjSt17integral_constantIbLb1EE+0x16>
10000d1a:	4689      	mov	r9, r1
10000d1c:	e003      	b.n	10000d26 <_ZNSt10_HashtableINSt7__cxx1112basic_stringIcSt11char_traitsIcESaIcEEESt4pairIKS5_St8functionIFvS5_EEESaISB_ENSt8__detail10_Select1stESt8equal_toIS5_ESt4hashIS5_ENSD_18_Mod_range_hashingENSD_20_Default_ranged_hashENSD_20_Prime_rehash_policyENSD_17_Hashtable_traitsILb1ELb0ELb1EEEE13_M_rehash_auxEjSt17integral_constantIbLb1EE+0x38>
10000d1e:	6812      	ldr	r2, [r2, #0]
10000d20:	6022      	str	r2, [r4, #0]
10000d22:	681b      	ldr	r3, [r3, #0]
10000d24:	601c      	str	r4, [r3, #0]
10000d26:	0034      	movs	r4, r6
10000d28:	2c00      	cmp	r4, #0
10000d2a:	d018      	beq.n	10000d5e <_ZNSt10_HashtableINSt7__cxx1112basic_stringIcSt11char_traitsIcESaIcEEESt4pairIKS5_St8functionIFvS5_EEESaISB_ENSt8__detail10_Select1stESt8equal_toIS5_ESt4hashIS5_ENSD_18_Mod_range_hashingENSD_20_Default_ranged_hashENSD_20_Prime_rehash_policyENSD_17_Hashtable_traitsILb1ELb0ELb1EEEE13_M_rehash_auxEjSt17integral_constantIbLb1EE+0x70>
10000d2c:	6826      	ldr	r6, [r4, #0]
10000d2e:	0039      	movs	r1, r7
10000d30:	6ae0      	ldr	r0, [r4, #44]	; 0x2c
10000d32:	f019 ff75 	bl	1001ac20 <__wrap___aeabi_uidiv>
10000d36:	008b      	lsls	r3, r1, #2
10000d38:	4443      	add	r3, r8
10000d3a:	681a      	ldr	r2, [r3, #0]
10000d3c:	2a00      	cmp	r2, #0
10000d3e:	d1ee      	bne.n	10000d1e <_ZNSt10_HashtableINSt7__cxx1112basic_stringIcSt11char_traitsIcESaIcEEESt4pairIKS5_St8functionIFvS5_EEESaISB_ENSt8__detail10_Select1stESt8equal_toIS5_ESt4hashIS5_ENSD_18_Mod_range_hashingENSD_20_Default_ranged_hashENSD_20_Prime_rehash_policyENSD_17_Hashtable_traitsILb1ELb0ELb1EEEE13_M_rehash_auxEjSt17integral_constantIbLb1EE+0x30>
10000d40:	68aa      	ldr	r2, [r5, #8]
10000d42:	6022      	str	r2, [r4, #0]
10000d44:	60ac      	str	r4, [r5, #8]
10000d46:	002a      	movs	r2, r5
10000d48:	3208      	adds	r2, #8
10000d4a:	601a      	str	r2, [r3, #0]
10000d4c:	6823      	ldr	r3, [r4, #0]
10000d4e:	2b00      	cmp	r3, #0
10000d50:	d0e3      	beq.n	10000d1a <_ZNSt10_HashtableINSt7__cxx1112basic_stringIcSt11char_traitsIcESaIcEEESt4pairIKS5_St8functionIFvS5_EEESaISB_ENSt8__detail10_Select1stESt8equal_toIS5_ESt4hashIS5_ENSD_18_Mod_range_hashingENSD_20_Default_ranged_hashENSD_20_Prime_rehash_policyENSD_17_Hashtable_traitsILb1ELb0ELb1EEEE13_M_rehash_auxEjSt17integral_constantIbLb1EE+0x2c>
10000d52:	464b      	mov	r3, r9
10000d54:	009b      	lsls	r3, r3, #2
10000d56:	4642      	mov	r2, r8
10000d58:	50d4      	str	r4, [r2, r3]
10000d5a:	4689      	mov	r9, r1
10000d5c:	e7e3      	b.n	10000d26 <_ZNSt10_HashtableINSt7__cxx1112basic_stringIcSt11char_traitsIcESaIcEEESt4pairIKS5_St8functionIFvS5_EEESaISB_ENSt8__detail10_Select1stESt8equal_toIS5_ESt4hashIS5_ENSD_18_Mod_range_hashingENSD_20_Default_ranged_hashENSD_20_Prime_rehash_policyENSD_17_Hashtable_traitsILb1ELb0ELb1EEEE13_M_rehash_auxEjSt17integral_constantIbLb1EE+0x38>
10000d5e:	6829      	ldr	r1, [r5, #0]
10000d60:	686a      	ldr	r2, [r5, #4]
10000d62:	002b      	movs	r3, r5
10000d64:	3318      	adds	r3, #24
10000d66:	4299      	cmp	r1, r3
10000d68:	d002      	beq.n	10000d70 <_ZNSt10_HashtableINSt7__cxx1112basic_stringIcSt11char_traitsIcESaIcEEESt4pairIKS5_St8functionIFvS5_EEESaISB_ENSt8__detail10_Select1stESt8equal_toIS5_ESt4hashIS5_ENSD_18_Mod_range_hashingENSD_20_Default_ranged_hashENSD_20_Prime_rehash_policyENSD_17_Hashtable_traitsILb1ELb0ELb1EEEE13_M_rehash_auxEjSt17integral_constantIbLb1EE+0x82>
10000d6a:	0028      	movs	r0, r5
10000d6c:	f7ff fcc4 	bl	100006f8 <_ZNSt8__detail16_Hashtable_allocISaINS_10_Hash_nodeISt4pairIKNSt7__cxx1112basic_stringIcSt11char_traitsIcESaIcEEESt8functionIFvS8_EEELb1EEEEE21_M_deallocate_bucketsEPPNS_15_Hash_node_baseEj>
10000d70:	606f      	str	r7, [r5, #4]
10000d72:	4643      	mov	r3, r8
10000d74:	602b      	str	r3, [r5, #0]
10000d76:	bcc0      	pop	{r6, r7}
10000d78:	46b9      	mov	r9, r7
10000d7a:	46b0      	mov	r8, r6
10000d7c:	bdf8      	pop	{r3, r4, r5, r6, r7, pc}

10000d7e <_ZNSt10_HashtableINSt7__cxx1112basic_stringIcSt11char_traitsIcESaIcEEESt4pairIKS5_St8functionIFvS5_EEESaISB_ENSt8__detail10_Select1stESt8equal_toIS5_ESt4hashIS5_ENSD_18_Mod_range_hashingENSD_20_Default_ranged_hashENSD_20_Prime_rehash_policyENSD_17_Hashtable_traitsILb1ELb0ELb1EEEE9_M_rehashEjRKj>:
10000d7e:	b570      	push	{r4, r5, r6, lr}
10000d80:	0004      	movs	r4, r0
10000d82:	0015      	movs	r5, r2
10000d84:	2200      	movs	r2, #0
10000d86:	f7ff ffb2 	bl	10000cee <_ZNSt10_HashtableINSt7__cxx1112basic_stringIcSt11char_traitsIcESaIcEEESt4pairIKS5_St8functionIFvS5_EEESaISB_ENSt8__detail10_Select1stESt8equal_toIS5_ESt4hashIS5_ENSD_18_Mod_range_hashingENSD_20_Default_ranged_hashENSD_20_Prime_rehash_policyENSD_17_Hashtable_traitsILb1ELb0ELb1EEEE13_M_rehash_auxEjSt17integral_constantIbLb1EE>
10000d8a:	e009      	b.n	10000da0 <_ZNSt10_HashtableINSt7__cxx1112basic_stringIcSt11char_traitsIcESaIcEEESt4pairIKS5_St8functionIFvS5_EEESaISB_ENSt8__detail10_Select1stESt8equal_toIS5_ESt4hashIS5_ENSD_18_Mod_range_hashingENSD_20_Default_ranged_hashENSD_20_Prime_rehash_policyENSD_17_Hashtable_traitsILb1ELb0ELb1EEEE9_M_rehashEjRKj+0x22>
10000d8c:	f01f fc0a 	bl	100205a4 <__cxa_begin_catch>
10000d90:	682b      	ldr	r3, [r5, #0]
10000d92:	6163      	str	r3, [r4, #20]
10000d94:	f020 f898 	bl	10020ec8 <__cxa_rethrow>
10000d98:	f01f fc3e 	bl	10020618 <__cxa_end_catch>
10000d9c:	f01f fb14 	bl	100203c8 <__cxa_end_cleanup>
10000da0:	bd70      	pop	{r4, r5, r6, pc}

10000da2 <_ZNSt10_HashtableINSt7__cxx1112basic_stringIcSt11char_traitsIcESaIcEEESt4pairIKS5_St8functionIFvS5_EEESaISB_ENSt8__detail10_Select1stESt8equal_toIS5_ESt4hashIS5_ENSD_18_Mod_range_hashingENSD_20_Default_ranged_hashENSD_20_Prime_rehash_policyENSD_17_Hashtable_traitsILb1ELb0ELb1EEEE21_M_insert_unique_nodeERS7_jjPNSD_10_Hash_nodeISB_Lb1EEEj>:
10000da2:	b5f0      	push	{r4, r5, r6, r7, lr}
10000da4:	46c6      	mov	lr, r8
10000da6:	b500      	push	{lr}
10000da8:	b086      	sub	sp, #24
10000daa:	0004      	movs	r4, r0
10000dac:	4690      	mov	r8, r2
10000dae:	001e      	movs	r6, r3
10000db0:	9f0c      	ldr	r7, [sp, #48]	; 0x30
10000db2:	6943      	ldr	r3, [r0, #20]
10000db4:	9305      	str	r3, [sp, #20]
10000db6:	ad03      	add	r5, sp, #12
10000db8:	0001      	movs	r1, r0
10000dba:	3110      	adds	r1, #16
10000dbc:	9b0d      	ldr	r3, [sp, #52]	; 0x34
10000dbe:	9300      	str	r3, [sp, #0]
10000dc0:	68c3      	ldr	r3, [r0, #12]
10000dc2:	6842      	ldr	r2, [r0, #4]
10000dc4:	0028      	movs	r0, r5
10000dc6:	f020 fcd1 	bl	1002176c <_ZNKSt8__detail20_Prime_rehash_policy14_M_need_rehashEjjj>
10000dca:	782b      	ldrb	r3, [r5, #0]
10000dcc:	2b00      	cmp	r3, #0
10000dce:	d10d      	bne.n	10000dec <_ZNSt10_HashtableINSt7__cxx1112basic_stringIcSt11char_traitsIcESaIcEEESt4pairIKS5_St8functionIFvS5_EEESaISB_ENSt8__detail10_Select1stESt8equal_toIS5_ESt4hashIS5_ENSD_18_Mod_range_hashingENSD_20_Default_ranged_hashENSD_20_Prime_rehash_policyENSD_17_Hashtable_traitsILb1ELb0ELb1EEEE21_M_insert_unique_nodeERS7_jjPNSD_10_Hash_nodeISB_Lb1EEEj+0x4a>
10000dd0:	62fe      	str	r6, [r7, #44]	; 0x2c
10000dd2:	003a      	movs	r2, r7
10000dd4:	4641      	mov	r1, r8
10000dd6:	0020      	movs	r0, r4
10000dd8:	f7ff ff2d 	bl	10000c36 <_ZNSt10_HashtableINSt7__cxx1112basic_stringIcSt11char_traitsIcESaIcEEESt4pairIKS5_St8functionIFvS5_EEESaISB_ENSt8__detail10_Select1stESt8equal_toIS5_ESt4hashIS5_ENSD_18_Mod_range_hashingENSD_20_Default_ranged_hashENSD_20_Prime_rehash_policyENSD_17_Hashtable_traitsILb1ELb0ELb1EEEE22_M_insert_bucket_beginEjPNSD_10_Hash_nodeISB_Lb1EEE>
10000ddc:	68e3      	ldr	r3, [r4, #12]
10000dde:	3301      	adds	r3, #1
10000de0:	60e3      	str	r3, [r4, #12]
10000de2:	0038      	movs	r0, r7
10000de4:	b006      	add	sp, #24
10000de6:	bc80      	pop	{r7}
10000de8:	46b8      	mov	r8, r7
10000dea:	bdf0      	pop	{r4, r5, r6, r7, pc}
10000dec:	aa05      	add	r2, sp, #20
10000dee:	9904      	ldr	r1, [sp, #16]
10000df0:	0020      	movs	r0, r4
10000df2:	f7ff ffc4 	bl	10000d7e <_ZNSt10_HashtableINSt7__cxx1112basic_stringIcSt11char_traitsIcESaIcEEESt4pairIKS5_St8functionIFvS5_EEESaISB_ENSt8__detail10_Select1stESt8equal_toIS5_ESt4hashIS5_ENSD_18_Mod_range_hashingENSD_20_Default_ranged_hashENSD_20_Prime_rehash_policyENSD_17_Hashtable_traitsILb1ELb0ELb1EEEE9_M_rehashEjRKj>
10000df6:	6861      	ldr	r1, [r4, #4]
10000df8:	0030      	movs	r0, r6
10000dfa:	f019 ff11 	bl	1001ac20 <__wrap___aeabi_uidiv>
10000dfe:	4688      	mov	r8, r1
10000e00:	e7e6      	b.n	10000dd0 <_ZNSt10_HashtableINSt7__cxx1112basic_stringIcSt11char_traitsIcESaIcEEESt4pairIKS5_St8functionIFvS5_EEESaISB_ENSt8__detail10_Select1stESt8equal_toIS5_ESt4hashIS5_ENSD_18_Mod_range_hashingENSD_20_Default_ranged_hashENSD_20_Prime_rehash_policyENSD_17_Hashtable_traitsILb1ELb0ELb1EEEE21_M_insert_unique_nodeERS7_jjPNSD_10_Hash_nodeISB_Lb1EEEj+0x2e>

10000e02 <_ZNSt8functionIFvNSt7__cxx1112basic_stringIcSt11char_traitsIcESaIcEEEEEC1ERKS7_>:
10000e02:	b570      	push	{r4, r5, r6, lr}
10000e04:	0004      	movs	r4, r0
10000e06:	000d      	movs	r5, r1
10000e08:	2300      	movs	r3, #0
10000e0a:	6083      	str	r3, [r0, #8]
10000e0c:	688b      	ldr	r3, [r1, #8]
10000e0e:	2b00      	cmp	r3, #0
10000e10:	d005      	beq.n	10000e1e <_ZNSt8functionIFvNSt7__cxx1112basic_stringIcSt11char_traitsIcESaIcEEEEEC1ERKS7_+0x1c>
10000e12:	2202      	movs	r2, #2
10000e14:	4798      	blx	r3
10000e16:	68eb      	ldr	r3, [r5, #12]
10000e18:	60e3      	str	r3, [r4, #12]
10000e1a:	68ab      	ldr	r3, [r5, #8]
10000e1c:	60a3      	str	r3, [r4, #8]
10000e1e:	0020      	movs	r0, r4
10000e20:	bd70      	pop	{r4, r5, r6, pc}
10000e22:	0020      	movs	r0, r4
10000e24:	f7ff fb92 	bl	1000054c <_ZNSt14_Function_baseD1Ev>
10000e28:	f01f face 	bl	100203c8 <__cxa_end_cleanup>

10000e2c <_ZNSt8__detail16_Hashtable_allocISaINS_10_Hash_nodeISt4pairIKNSt7__cxx1112basic_stringIcSt11char_traitsIcESaIcEEESt8functionIFvS8_EEELb1EEEEE16_M_allocate_nodeIJRKSD_EEEPSE_DpOT_>:
10000e2c:	b570      	push	{r4, r5, r6, lr}
10000e2e:	000c      	movs	r4, r1
10000e30:	2030      	movs	r0, #48	; 0x30
10000e32:	f020 f8e3 	bl	10020ffc <_Znwj>
10000e36:	0005      	movs	r5, r0
10000e38:	0006      	movs	r6, r0
10000e3a:	2300      	movs	r3, #0
10000e3c:	c608      	stmia	r6!, {r3}
10000e3e:	0003      	movs	r3, r0
10000e40:	330c      	adds	r3, #12
10000e42:	6043      	str	r3, [r0, #4]
10000e44:	6822      	ldr	r2, [r4, #0]
10000e46:	6863      	ldr	r3, [r4, #4]
10000e48:	469c      	mov	ip, r3
10000e4a:	4462      	add	r2, ip
10000e4c:	2300      	movs	r3, #0
10000e4e:	6821      	ldr	r1, [r4, #0]
10000e50:	0030      	movs	r0, r6
10000e52:	f7ff fd23 	bl	1000089c <_ZNSt7__cxx1112basic_stringIcSt11char_traitsIcESaIcEE12_M_constructIPcEEvT_S7_St20forward_iterator_tag>
10000e56:	0021      	movs	r1, r4
10000e58:	3118      	adds	r1, #24
10000e5a:	0030      	movs	r0, r6
10000e5c:	3018      	adds	r0, #24
10000e5e:	f7ff ffd0 	bl	10000e02 <_ZNSt8functionIFvNSt7__cxx1112basic_stringIcSt11char_traitsIcESaIcEEEEEC1ERKS7_>
10000e62:	e011      	b.n	10000e88 <_ZNSt8__detail16_Hashtable_allocISaINS_10_Hash_nodeISt4pairIKNSt7__cxx1112basic_stringIcSt11char_traitsIcESaIcEEESt8functionIFvS8_EEELb1EEEEE16_M_allocate_nodeIJRKSD_EEEPSE_DpOT_+0x5c>
10000e64:	0004      	movs	r4, r0
10000e66:	0030      	movs	r0, r6
10000e68:	f020 fdc6 	bl	100219f8 <_ZNSt7__cxx1112basic_stringIcSt11char_traitsIcESaIcEE10_M_disposeEv>
10000e6c:	0020      	movs	r0, r4
10000e6e:	f01f fb99 	bl	100205a4 <__cxa_begin_catch>
10000e72:	2130      	movs	r1, #48	; 0x30
10000e74:	0028      	movs	r0, r5
10000e76:	f01f f9ff 	bl	10020278 <_ZdlPvj>
10000e7a:	f020 f825 	bl	10020ec8 <__cxa_rethrow>
10000e7e:	f01f fbcb 	bl	10020618 <__cxa_end_catch>
10000e82:	f01f faa1 	bl	100203c8 <__cxa_end_cleanup>
10000e86:	e7f2      	b.n	10000e6e <_ZNSt8__detail16_Hashtable_allocISaINS_10_Hash_nodeISt4pairIKNSt7__cxx1112basic_stringIcSt11char_traitsIcESaIcEEESt8functionIFvS8_EEELb1EEEEE16_M_allocate_nodeIJRKSD_EEEPSE_DpOT_+0x42>
10000e88:	0028      	movs	r0, r5
10000e8a:	bd70      	pop	{r4, r5, r6, pc}

10000e8c <_ZNSt10_HashtableINSt7__cxx1112basic_stringIcSt11char_traitsIcESaIcEEESt4pairIKS5_St8functionIFvS5_EEESaISB_ENSt8__detail10_Select1stESt8equal_toIS5_ESt4hashIS5_ENSD_18_Mod_range_hashingENSD_20_Default_ranged_hashENSD_20_Prime_rehash_policyENSD_17_Hashtable_traitsILb1ELb0ELb1EEEE9_M_insertIRKSB_NSD_10_AllocNodeISaINSD_10_Hash_nodeISB_Lb1EEEEEEEES6_INSD_14_Node_iteratorISB_Lb0ELb1EEEbEOT_RKT0_St17integral_constantIbLb1EEj>:
10000e8c:	b5f0      	push	{r4, r5, r6, r7, lr}
10000e8e:	46ce      	mov	lr, r9
10000e90:	4647      	mov	r7, r8
10000e92:	b580      	push	{r7, lr}
10000e94:	b085      	sub	sp, #20
10000e96:	0005      	movs	r5, r0
10000e98:	000e      	movs	r6, r1
10000e9a:	0014      	movs	r4, r2
10000e9c:	4699      	mov	r9, r3
10000e9e:	4a1d      	ldr	r2, [pc, #116]	; (10000f14 <_ZNSt10_HashtableINSt7__cxx1112basic_stringIcSt11char_traitsIcESaIcEEESt4pairIKS5_St8functionIFvS5_EEESaISB_ENSt8__detail10_Select1stESt8equal_toIS5_ESt4hashIS5_ENSD_18_Mod_range_hashingENSD_20_Default_ranged_hashENSD_20_Prime_rehash_policyENSD_17_Hashtable_traitsILb1ELb0ELb1EEEE9_M_insertIRKSB_NSD_10_AllocNodeISaINSD_10_Hash_nodeISB_Lb1EEEEEEEES6_INSD_14_Node_iteratorISB_Lb0ELb1EEEbEOT_RKT0_St17integral_constantIbLb1EEj+0x88>)
10000ea0:	6861      	ldr	r1, [r4, #4]
10000ea2:	6820      	ldr	r0, [r4, #0]
10000ea4:	f020 f866 	bl	10020f74 <_ZSt11_Hash_bytesPKvjj>
10000ea8:	0007      	movs	r7, r0
10000eaa:	6871      	ldr	r1, [r6, #4]
10000eac:	f019 feb8 	bl	1001ac20 <__wrap___aeabi_uidiv>
10000eb0:	4688      	mov	r8, r1
10000eb2:	003b      	movs	r3, r7
10000eb4:	0022      	movs	r2, r4
10000eb6:	0030      	movs	r0, r6
10000eb8:	f7ff fe7e 	bl	10000bb8 <_ZNKSt10_HashtableINSt7__cxx1112basic_stringIcSt11char_traitsIcESaIcEEESt4pairIKS5_St8functionIFvS5_EEESaISB_ENSt8__detail10_Select1stESt8equal_toIS5_ESt4hashIS5_ENSD_18_Mod_range_hashingENSD_20_Default_ranged_hashENSD_20_Prime_rehash_policyENSD_17_Hashtable_traitsILb1ELb0ELb1EEEE19_M_find_before_nodeEjRS7_j>
10000ebc:	2800      	cmp	r0, #0
10000ebe:	d00b      	beq.n	10000ed8 <_ZNSt10_HashtableINSt7__cxx1112basic_stringIcSt11char_traitsIcESaIcEEESt4pairIKS5_St8functionIFvS5_EEESaISB_ENSt8__detail10_Select1stESt8equal_toIS5_ESt4hashIS5_ENSD_18_Mod_range_hashingENSD_20_Default_ranged_hashENSD_20_Prime_rehash_policyENSD_17_Hashtable_traitsILb1ELb0ELb1EEEE9_M_insertIRKSB_NSD_10_AllocNodeISaINSD_10_Hash_nodeISB_Lb1EEEEEEEES6_INSD_14_Node_iteratorISB_Lb0ELb1EEEbEOT_RKT0_St17integral_constantIbLb1EEj+0x4c>
10000ec0:	6803      	ldr	r3, [r0, #0]
10000ec2:	2b00      	cmp	r3, #0
10000ec4:	d008      	beq.n	10000ed8 <_ZNSt10_HashtableINSt7__cxx1112basic_stringIcSt11char_traitsIcESaIcEEESt4pairIKS5_St8functionIFvS5_EEESaISB_ENSt8__detail10_Select1stESt8equal_toIS5_ESt4hashIS5_ENSD_18_Mod_range_hashingENSD_20_Default_ranged_hashENSD_20_Prime_rehash_policyENSD_17_Hashtable_traitsILb1ELb0ELb1EEEE9_M_insertIRKSB_NSD_10_AllocNodeISaINSD_10_Hash_nodeISB_Lb1EEEEEEEES6_INSD_14_Node_iteratorISB_Lb0ELb1EEEbEOT_RKT0_St17integral_constantIbLb1EEj+0x4c>
10000ec6:	602b      	str	r3, [r5, #0]
10000ec8:	2300      	movs	r3, #0
10000eca:	712b      	strb	r3, [r5, #4]
10000ecc:	0028      	movs	r0, r5
10000ece:	b005      	add	sp, #20
10000ed0:	bcc0      	pop	{r6, r7}
10000ed2:	46b9      	mov	r9, r7
10000ed4:	46b0      	mov	r8, r6
10000ed6:	bdf0      	pop	{r4, r5, r6, r7, pc}
10000ed8:	464b      	mov	r3, r9
10000eda:	6818      	ldr	r0, [r3, #0]
10000edc:	0021      	movs	r1, r4
10000ede:	f7ff ffa5 	bl	10000e2c <_ZNSt8__detail16_Hashtable_allocISaINS_10_Hash_nodeISt4pairIKNSt7__cxx1112basic_stringIcSt11char_traitsIcESaIcEEESt8functionIFvS8_EEELb1EEEEE16_M_allocate_nodeIJRKSD_EEEPSE_DpOT_>
10000ee2:	9602      	str	r6, [sp, #8]
10000ee4:	9003      	str	r0, [sp, #12]
10000ee6:	9b0d      	ldr	r3, [sp, #52]	; 0x34
10000ee8:	9301      	str	r3, [sp, #4]
10000eea:	9000      	str	r0, [sp, #0]
10000eec:	003b      	movs	r3, r7
10000eee:	4642      	mov	r2, r8
10000ef0:	0021      	movs	r1, r4
10000ef2:	0030      	movs	r0, r6
10000ef4:	f7ff ff55 	bl	10000da2 <_ZNSt10_HashtableINSt7__cxx1112basic_stringIcSt11char_traitsIcESaIcEEESt4pairIKS5_St8functionIFvS5_EEESaISB_ENSt8__detail10_Select1stESt8equal_toIS5_ESt4hashIS5_ENSD_18_Mod_range_hashingENSD_20_Default_ranged_hashENSD_20_Prime_rehash_policyENSD_17_Hashtable_traitsILb1ELb0ELb1EEEE21_M_insert_unique_nodeERS7_jjPNSD_10_Hash_nodeISB_Lb1EEEj>
10000ef8:	2300      	movs	r3, #0
10000efa:	9303      	str	r3, [sp, #12]
10000efc:	6028      	str	r0, [r5, #0]
10000efe:	3301      	adds	r3, #1
10000f00:	712b      	strb	r3, [r5, #4]
10000f02:	e7e3      	b.n	10000ecc <_ZNSt10_HashtableINSt7__cxx1112basic_stringIcSt11char_traitsIcESaIcEEESt4pairIKS5_St8functionIFvS5_EEESaISB_ENSt8__detail10_Select1stESt8equal_toIS5_ESt4hashIS5_ENSD_18_Mod_range_hashingENSD_20_Default_ranged_hashENSD_20_Prime_rehash_policyENSD_17_Hashtable_traitsILb1ELb0ELb1EEEE9_M_insertIRKSB_NSD_10_AllocNodeISaINSD_10_Hash_nodeISB_Lb1EEEEEEEES6_INSD_14_Node_iteratorISB_Lb0ELb1EEEbEOT_RKT0_St17integral_constantIbLb1EEj+0x40>
10000f04:	9903      	ldr	r1, [sp, #12]
10000f06:	2900      	cmp	r1, #0
10000f08:	d002      	beq.n	10000f10 <_ZNSt10_HashtableINSt7__cxx1112basic_stringIcSt11char_traitsIcESaIcEEESt4pairIKS5_St8functionIFvS5_EEESaISB_ENSt8__detail10_Select1stESt8equal_toIS5_ESt4hashIS5_ENSD_18_Mod_range_hashingENSD_20_Default_ranged_hashENSD_20_Prime_rehash_policyENSD_17_Hashtable_traitsILb1ELb0ELb1EEEE9_M_insertIRKSB_NSD_10_AllocNodeISaINSD_10_Hash_nodeISB_Lb1EEEEEEEES6_INSD_14_Node_iteratorISB_Lb0ELb1EEEbEOT_RKT0_St17integral_constantIbLb1EEj+0x84>
10000f0a:	9802      	ldr	r0, [sp, #8]
10000f0c:	f7ff fe12 	bl	10000b34 <_ZNSt8__detail16_Hashtable_allocISaINS_10_Hash_nodeISt4pairIKNSt7__cxx1112basic_stringIcSt11char_traitsIcESaIcEEESt8functionIFvS8_EEELb1EEEEE18_M_deallocate_nodeEPSE_>
10000f10:	f01f fa5a 	bl	100203c8 <__cxa_end_cleanup>
10000f14:	c70f6907 	.word	0xc70f6907

10000f18 <_ZNSt10_HashtableINSt7__cxx1112basic_stringIcSt11char_traitsIcESaIcEEESt4pairIKS5_St8functionIFvS5_EEESaISB_ENSt8__detail10_Select1stESt8equal_toIS5_ESt4hashIS5_ENSD_18_Mod_range_hashingENSD_20_Default_ranged_hashENSD_20_Prime_rehash_policyENSD_17_Hashtable_traitsILb1ELb0ELb1EEEEC1IPKSB_EET_SS_jRKSI_RKSJ_RKSK_RKSG_RKSE_RKSC_>:
10000f18:	b5f0      	push	{r4, r5, r6, r7, lr}
10000f1a:	46d6      	mov	lr, sl
10000f1c:	464f      	mov	r7, r9
10000f1e:	b580      	push	{r7, lr}
10000f20:	b08b      	sub	sp, #44	; 0x2c
10000f22:	0005      	movs	r5, r0
10000f24:	000c      	movs	r4, r1
10000f26:	0017      	movs	r7, r2
10000f28:	9305      	str	r3, [sp, #20]
10000f2a:	2318      	movs	r3, #24
10000f2c:	4699      	mov	r9, r3
10000f2e:	4481      	add	r9, r0
10000f30:	464b      	mov	r3, r9
10000f32:	6003      	str	r3, [r0, #0]
10000f34:	2301      	movs	r3, #1
10000f36:	6043      	str	r3, [r0, #4]
10000f38:	2300      	movs	r3, #0
10000f3a:	6083      	str	r3, [r0, #8]
10000f3c:	60c3      	str	r3, [r0, #12]
10000f3e:	22fe      	movs	r2, #254	; 0xfe
10000f40:	0592      	lsls	r2, r2, #22
10000f42:	6102      	str	r2, [r0, #16]
10000f44:	6143      	str	r3, [r0, #20]
10000f46:	6183      	str	r3, [r0, #24]
10000f48:	1a7a      	subs	r2, r7, r1
10000f4a:	10d2      	asrs	r2, r2, #3
10000f4c:	0053      	lsls	r3, r2, #1
10000f4e:	189b      	adds	r3, r3, r2
10000f50:	0119      	lsls	r1, r3, #4
10000f52:	185b      	adds	r3, r3, r1
10000f54:	0219      	lsls	r1, r3, #8
10000f56:	185b      	adds	r3, r3, r1
10000f58:	0419      	lsls	r1, r3, #16
10000f5a:	185b      	adds	r3, r3, r1
10000f5c:	009b      	lsls	r3, r3, #2
10000f5e:	469a      	mov	sl, r3
10000f60:	4492      	add	sl, r2
10000f62:	0006      	movs	r6, r0
10000f64:	3610      	adds	r6, #16
10000f66:	6900      	ldr	r0, [r0, #16]
10000f68:	f01a ffec 	bl	1001bf44 <__wrap___aeabi_f2d>
10000f6c:	9002      	str	r0, [sp, #8]
10000f6e:	9103      	str	r1, [sp, #12]
10000f70:	4650      	mov	r0, sl
10000f72:	f01a f92d 	bl	1001b1d0 <__wrap___aeabi_ui2d>
10000f76:	9a02      	ldr	r2, [sp, #8]
10000f78:	9b03      	ldr	r3, [sp, #12]
10000f7a:	f01a f89e 	bl	1001b0ba <__wrap___aeabi_ddiv>
10000f7e:	f020 fa01 	bl	10021384 <ceill>
10000f82:	f01a f965 	bl	1001b250 <__wrap___aeabi_d2uiz>
10000f86:	9007      	str	r0, [sp, #28]
10000f88:	9b05      	ldr	r3, [sp, #20]
10000f8a:	4283      	cmp	r3, r0
10000f8c:	d805      	bhi.n	10000f9a <_ZNSt10_HashtableINSt7__cxx1112basic_stringIcSt11char_traitsIcESaIcEEESt4pairIKS5_St8functionIFvS5_EEESaISB_ENSt8__detail10_Select1stESt8equal_toIS5_ESt4hashIS5_ENSD_18_Mod_range_hashingENSD_20_Default_ranged_hashENSD_20_Prime_rehash_policyENSD_17_Hashtable_traitsILb1ELb0ELb1EEEEC1IPKSB_EET_SS_jRKSI_RKSJ_RKSK_RKSG_RKSE_RKSC_+0x82>
10000f8e:	ab07      	add	r3, sp, #28
10000f90:	6819      	ldr	r1, [r3, #0]
10000f92:	0030      	movs	r0, r6
10000f94:	f020 fb96 	bl	100216c4 <_ZNKSt8__detail20_Prime_rehash_policy11_M_next_bktEj>
10000f98:	e001      	b.n	10000f9e <_ZNSt10_HashtableINSt7__cxx1112basic_stringIcSt11char_traitsIcESaIcEEESt4pairIKS5_St8functionIFvS5_EEESaISB_ENSt8__detail10_Select1stESt8equal_toIS5_ESt4hashIS5_ENSD_18_Mod_range_hashingENSD_20_Default_ranged_hashENSD_20_Prime_rehash_policyENSD_17_Hashtable_traitsILb1ELb0ELb1EEEEC1IPKSB_EET_SS_jRKSI_RKSJ_RKSK_RKSG_RKSE_RKSC_+0x86>
10000f9a:	ab05      	add	r3, sp, #20
10000f9c:	e7f8      	b.n	10000f90 <_ZNSt10_HashtableINSt7__cxx1112basic_stringIcSt11char_traitsIcESaIcEEESt4pairIKS5_St8functionIFvS5_EEESaISB_ENSt8__detail10_Select1stESt8equal_toIS5_ESt4hashIS5_ENSD_18_Mod_range_hashingENSD_20_Default_ranged_hashENSD_20_Prime_rehash_policyENSD_17_Hashtable_traitsILb1ELb0ELb1EEEEC1IPKSB_EET_SS_jRKSI_RKSJ_RKSK_RKSG_RKSE_RKSC_+0x78>
10000f9e:	0006      	movs	r6, r0
10000fa0:	686b      	ldr	r3, [r5, #4]
10000fa2:	4283      	cmp	r3, r0
10000fa4:	d20f      	bcs.n	10000fc6 <_ZNSt10_HashtableINSt7__cxx1112basic_stringIcSt11char_traitsIcESaIcEEESt4pairIKS5_St8functionIFvS5_EEESaISB_ENSt8__detail10_Select1stESt8equal_toIS5_ESt4hashIS5_ENSD_18_Mod_range_hashingENSD_20_Default_ranged_hashENSD_20_Prime_rehash_policyENSD_17_Hashtable_traitsILb1ELb0ELb1EEEEC1IPKSB_EET_SS_jRKSI_RKSJ_RKSK_RKSG_RKSE_RKSC_+0xae>
10000fa6:	2801      	cmp	r0, #1
10000fa8:	d004      	beq.n	10000fb4 <_ZNSt10_HashtableINSt7__cxx1112basic_stringIcSt11char_traitsIcESaIcEEESt4pairIKS5_St8functionIFvS5_EEESaISB_ENSt8__detail10_Select1stESt8equal_toIS5_ESt4hashIS5_ENSD_18_Mod_range_hashingENSD_20_Default_ranged_hashENSD_20_Prime_rehash_policyENSD_17_Hashtable_traitsILb1ELb0ELb1EEEEC1IPKSB_EET_SS_jRKSI_RKSJ_RKSK_RKSG_RKSE_RKSC_+0x9c>
10000faa:	0001      	movs	r1, r0
10000fac:	0028      	movs	r0, r5
10000fae:	f7ff fda9 	bl	10000b04 <_ZNSt8__detail16_Hashtable_allocISaINS_10_Hash_nodeISt4pairIKNSt7__cxx1112basic_stringIcSt11char_traitsIcESaIcEEESt8functionIFvS8_EEELb1EEEEE19_M_allocate_bucketsEj>
10000fb2:	e002      	b.n	10000fba <_ZNSt10_HashtableINSt7__cxx1112basic_stringIcSt11char_traitsIcESaIcEEESt4pairIKS5_St8functionIFvS5_EEESaISB_ENSt8__detail10_Select1stESt8equal_toIS5_ESt4hashIS5_ENSD_18_Mod_range_hashingENSD_20_Default_ranged_hashENSD_20_Prime_rehash_policyENSD_17_Hashtable_traitsILb1ELb0ELb1EEEEC1IPKSB_EET_SS_jRKSI_RKSJ_RKSK_RKSG_RKSE_RKSC_+0xa2>
10000fb4:	2300      	movs	r3, #0
10000fb6:	61ab      	str	r3, [r5, #24]
10000fb8:	e000      	b.n	10000fbc <_ZNSt10_HashtableINSt7__cxx1112basic_stringIcSt11char_traitsIcESaIcEEESt4pairIKS5_St8functionIFvS5_EEESaISB_ENSt8__detail10_Select1stESt8equal_toIS5_ESt4hashIS5_ENSD_18_Mod_range_hashingENSD_20_Default_ranged_hashENSD_20_Prime_rehash_policyENSD_17_Hashtable_traitsILb1ELb0ELb1EEEEC1IPKSB_EET_SS_jRKSI_RKSJ_RKSK_RKSG_RKSE_RKSC_+0xa4>
10000fba:	4681      	mov	r9, r0
10000fbc:	464b      	mov	r3, r9
10000fbe:	602b      	str	r3, [r5, #0]
10000fc0:	606e      	str	r6, [r5, #4]
10000fc2:	e000      	b.n	10000fc6 <_ZNSt10_HashtableINSt7__cxx1112basic_stringIcSt11char_traitsIcESaIcEEESt4pairIKS5_St8functionIFvS5_EEESaISB_ENSt8__detail10_Select1stESt8equal_toIS5_ESt4hashIS5_ENSD_18_Mod_range_hashingENSD_20_Default_ranged_hashENSD_20_Prime_rehash_policyENSD_17_Hashtable_traitsILb1ELb0ELb1EEEEC1IPKSB_EET_SS_jRKSI_RKSJ_RKSK_RKSG_RKSE_RKSC_+0xae>
10000fc4:	3428      	adds	r4, #40	; 0x28
10000fc6:	42bc      	cmp	r4, r7
10000fc8:	d011      	beq.n	10000fee <_ZNSt10_HashtableINSt7__cxx1112basic_stringIcSt11char_traitsIcESaIcEEESt4pairIKS5_St8functionIFvS5_EEESaISB_ENSt8__detail10_Select1stESt8equal_toIS5_ESt4hashIS5_ENSD_18_Mod_range_hashingENSD_20_Default_ranged_hashENSD_20_Prime_rehash_policyENSD_17_Hashtable_traitsILb1ELb0ELb1EEEEC1IPKSB_EET_SS_jRKSI_RKSJ_RKSK_RKSG_RKSE_RKSC_+0xd6>
10000fca:	9506      	str	r5, [sp, #24]
10000fcc:	2301      	movs	r3, #1
10000fce:	9301      	str	r3, [sp, #4]
10000fd0:	466b      	mov	r3, sp
10000fd2:	2100      	movs	r1, #0
10000fd4:	7019      	strb	r1, [r3, #0]
10000fd6:	ab06      	add	r3, sp, #24
10000fd8:	0022      	movs	r2, r4
10000fda:	0029      	movs	r1, r5
10000fdc:	a808      	add	r0, sp, #32
10000fde:	f7ff ff55 	bl	10000e8c <_ZNSt10_HashtableINSt7__cxx1112basic_stringIcSt11char_traitsIcESaIcEEESt4pairIKS5_St8functionIFvS5_EEESaISB_ENSt8__detail10_Select1stESt8equal_toIS5_ESt4hashIS5_ENSD_18_Mod_range_hashingENSD_20_Default_ranged_hashENSD_20_Prime_rehash_policyENSD_17_Hashtable_traitsILb1ELb0ELb1EEEE9_M_insertIRKSB_NSD_10_AllocNodeISaINSD_10_Hash_nodeISB_Lb1EEEEEEEES6_INSD_14_Node_iteratorISB_Lb0ELb1EEEbEOT_RKT0_St17integral_constantIbLb1EEj>
10000fe2:	e7ef      	b.n	10000fc4 <_ZNSt10_HashtableINSt7__cxx1112basic_stringIcSt11char_traitsIcESaIcEEESt4pairIKS5_St8functionIFvS5_EEESaISB_ENSt8__detail10_Select1stESt8equal_toIS5_ESt4hashIS5_ENSD_18_Mod_range_hashingENSD_20_Default_ranged_hashENSD_20_Prime_rehash_policyENSD_17_Hashtable_traitsILb1ELb0ELb1EEEEC1IPKSB_EET_SS_jRKSI_RKSJ_RKSK_RKSG_RKSE_RKSC_+0xac>
10000fe4:	0028      	movs	r0, r5
10000fe6:	f7ff fdd8 	bl	10000b9a <_ZNSt10_HashtableINSt7__cxx1112basic_stringIcSt11char_traitsIcESaIcEEESt4pairIKS5_St8functionIFvS5_EEESaISB_ENSt8__detail10_Select1stESt8equal_toIS5_ESt4hashIS5_ENSD_18_Mod_range_hashingENSD_20_Default_ranged_hashENSD_20_Prime_rehash_policyENSD_17_Hashtable_traitsILb1ELb0ELb1EEEED1Ev>
10000fea:	f01f f9ed 	bl	100203c8 <__cxa_end_cleanup>
10000fee:	0028      	movs	r0, r5
10000ff0:	b00b      	add	sp, #44	; 0x2c
10000ff2:	bcc0      	pop	{r6, r7}
10000ff4:	46ba      	mov	sl, r7
10000ff6:	46b1      	mov	r9, r6
10000ff8:	bdf0      	pop	{r4, r5, r6, r7, pc}
	...

10000ffc <_Z41__static_initialization_and_destruction_0ii>:
10000ffc:	b5f0      	push	{r4, r5, r6, r7, lr}
10000ffe:	46ce      	mov	lr, r9
10001000:	4647      	mov	r7, r8
10001002:	b580      	push	{r7, lr}
10001004:	4ce2      	ldr	r4, [pc, #904]	; (10001390 <_Z41__static_initialization_and_destruction_0ii+0x394>)
10001006:	44a5      	add	sp, r4
10001008:	0004      	movs	r4, r0
1000100a:	000d      	movs	r5, r1
1000100c:	2801      	cmp	r0, #1
1000100e:	d00c      	beq.n	1000102a <_Z41__static_initialization_and_destruction_0ii+0x2e>
10001010:	2c00      	cmp	r4, #0
10001012:	d104      	bne.n	1000101e <_Z41__static_initialization_and_destruction_0ii+0x22>
10001014:	4bdf      	ldr	r3, [pc, #892]	; (10001394 <_Z41__static_initialization_and_destruction_0ii+0x398>)
10001016:	429d      	cmp	r5, r3
10001018:	d101      	bne.n	1000101e <_Z41__static_initialization_and_destruction_0ii+0x22>
1000101a:	f000 fe87 	bl	10001d2c <_Z41__static_initialization_and_destruction_0ii+0xd30>
1000101e:	4bde      	ldr	r3, [pc, #888]	; (10001398 <_Z41__static_initialization_and_destruction_0ii+0x39c>)
10001020:	449d      	add	sp, r3
10001022:	bcc0      	pop	{r6, r7}
10001024:	46b9      	mov	r9, r7
10001026:	46b0      	mov	r8, r6
10001028:	bdf0      	pop	{r4, r5, r6, r7, pc}
1000102a:	4bda      	ldr	r3, [pc, #872]	; (10001394 <_Z41__static_initialization_and_destruction_0ii+0x398>)
1000102c:	4299      	cmp	r1, r3
1000102e:	d1ef      	bne.n	10001010 <_Z41__static_initialization_and_destruction_0ii+0x14>
10001030:	4bda      	ldr	r3, [pc, #872]	; (1000139c <_Z41__static_initialization_and_destruction_0ii+0x3a0>)
10001032:	2200      	movs	r2, #0
10001034:	711a      	strb	r2, [r3, #4]
10001036:	609a      	str	r2, [r3, #8]
10001038:	1d19      	adds	r1, r3, #4
1000103a:	60d9      	str	r1, [r3, #12]
1000103c:	6119      	str	r1, [r3, #16]
1000103e:	615a      	str	r2, [r3, #20]
10001040:	4bd7      	ldr	r3, [pc, #860]	; (100013a0 <_Z41__static_initialization_and_destruction_0ii+0x3a4>)
10001042:	681a      	ldr	r2, [r3, #0]
10001044:	1c56      	adds	r6, r2, #1
10001046:	601e      	str	r6, [r3, #0]
10001048:	2e01      	cmp	r6, #1
1000104a:	d031      	beq.n	100010b0 <_Z41__static_initialization_and_destruction_0ii+0xb4>
1000104c:	4ad5      	ldr	r2, [pc, #852]	; (100013a4 <_Z41__static_initialization_and_destruction_0ii+0x3a8>)
1000104e:	6813      	ldr	r3, [r2, #0]
10001050:	3301      	adds	r3, #1
10001052:	6013      	str	r3, [r2, #0]
10001054:	2b01      	cmp	r3, #1
10001056:	d064      	beq.n	10001122 <_Z41__static_initialization_and_destruction_0ii+0x126>
10001058:	4bd3      	ldr	r3, [pc, #844]	; (100013a8 <_Z41__static_initialization_and_destruction_0ii+0x3ac>)
1000105a:	681a      	ldr	r2, [r3, #0]
1000105c:	1c57      	adds	r7, r2, #1
1000105e:	601f      	str	r7, [r3, #0]
10001060:	2f01      	cmp	r7, #1
10001062:	d068      	beq.n	10001136 <_Z41__static_initialization_and_destruction_0ii+0x13a>
10001064:	4ad1      	ldr	r2, [pc, #836]	; (100013ac <_Z41__static_initialization_and_destruction_0ii+0x3b0>)
10001066:	6813      	ldr	r3, [r2, #0]
10001068:	3301      	adds	r3, #1
1000106a:	6013      	str	r3, [r2, #0]
1000106c:	2b01      	cmp	r3, #1
1000106e:	d101      	bne.n	10001074 <_Z41__static_initialization_and_destruction_0ii+0x78>
10001070:	f000 fd9d 	bl	10001bae <_Z41__static_initialization_and_destruction_0ii+0xbb2>
10001074:	4ace      	ldr	r2, [pc, #824]	; (100013b0 <_Z41__static_initialization_and_destruction_0ii+0x3b4>)
10001076:	6813      	ldr	r3, [r2, #0]
10001078:	3301      	adds	r3, #1
1000107a:	6013      	str	r3, [r2, #0]
1000107c:	2b01      	cmp	r3, #1
1000107e:	d101      	bne.n	10001084 <_Z41__static_initialization_and_destruction_0ii+0x88>
10001080:	f000 fe36 	bl	10001cf0 <_Z41__static_initialization_and_destruction_0ii+0xcf4>
10001084:	4acb      	ldr	r2, [pc, #812]	; (100013b4 <_Z41__static_initialization_and_destruction_0ii+0x3b8>)
10001086:	6813      	ldr	r3, [r2, #0]
10001088:	3301      	adds	r3, #1
1000108a:	6013      	str	r3, [r2, #0]
1000108c:	2b01      	cmp	r3, #1
1000108e:	d101      	bne.n	10001094 <_Z41__static_initialization_and_destruction_0ii+0x98>
10001090:	f000 fe44 	bl	10001d1c <_Z41__static_initialization_and_destruction_0ii+0xd20>
10001094:	4ac8      	ldr	r2, [pc, #800]	; (100013b8 <_Z41__static_initialization_and_destruction_0ii+0x3bc>)
10001096:	6813      	ldr	r3, [r2, #0]
10001098:	3301      	adds	r3, #1
1000109a:	6013      	str	r3, [r2, #0]
1000109c:	2b01      	cmp	r3, #1
1000109e:	d1b7      	bne.n	10001010 <_Z41__static_initialization_and_destruction_0ii+0x14>
100010a0:	22cd      	movs	r2, #205	; 0xcd
100010a2:	00d2      	lsls	r2, r2, #3
100010a4:	446a      	add	r2, sp
100010a6:	49c5      	ldr	r1, [pc, #788]	; (100013bc <_Z41__static_initialization_and_destruction_0ii+0x3c0>)
100010a8:	48c5      	ldr	r0, [pc, #788]	; (100013c0 <_Z41__static_initialization_and_destruction_0ii+0x3c4>)
100010aa:	f7ff faf3 	bl	10000694 <_ZNSt7__cxx1112basic_stringIcSt11char_traitsIcESaIcEEC1IS3_EEPKcRKS3_>
100010ae:	e7af      	b.n	10001010 <_Z41__static_initialization_and_destruction_0ii+0x14>
100010b0:	aa2e      	add	r2, sp, #184	; 0xb8
100010b2:	49c4      	ldr	r1, [pc, #784]	; (100013c4 <_Z41__static_initialization_and_destruction_0ii+0x3c8>)
100010b4:	48c4      	ldr	r0, [pc, #784]	; (100013c8 <_Z41__static_initialization_and_destruction_0ii+0x3cc>)
100010b6:	f7ff faed 	bl	10000694 <_ZNSt7__cxx1112basic_stringIcSt11char_traitsIcESaIcEEC1IS3_EEPKcRKS3_>
100010ba:	e010      	b.n	100010de <_Z41__static_initialization_and_destruction_0ii+0xe2>
100010bc:	2605      	movs	r6, #5
100010be:	2405      	movs	r4, #5
100010c0:	1ba6      	subs	r6, r4, r6
100010c2:	3413      	adds	r4, #19
100010c4:	4374      	muls	r4, r6
100010c6:	4bc0      	ldr	r3, [pc, #768]	; (100013c8 <_Z41__static_initialization_and_destruction_0ii+0x3cc>)
100010c8:	18e4      	adds	r4, r4, r3
100010ca:	4bbf      	ldr	r3, [pc, #764]	; (100013c8 <_Z41__static_initialization_and_destruction_0ii+0x3cc>)
100010cc:	429c      	cmp	r4, r3
100010ce:	d101      	bne.n	100010d4 <_Z41__static_initialization_and_destruction_0ii+0xd8>
100010d0:	f000 feaa 	bl	10001e28 <_Z41__static_initialization_and_destruction_0ii+0xe2c>
100010d4:	3c18      	subs	r4, #24
100010d6:	0020      	movs	r0, r4
100010d8:	f020 fc8e 	bl	100219f8 <_ZNSt7__cxx1112basic_stringIcSt11char_traitsIcESaIcEE10_M_disposeEv>
100010dc:	e7f5      	b.n	100010ca <_Z41__static_initialization_and_destruction_0ii+0xce>
100010de:	aa2f      	add	r2, sp, #188	; 0xbc
100010e0:	49ba      	ldr	r1, [pc, #744]	; (100013cc <_Z41__static_initialization_and_destruction_0ii+0x3d0>)
100010e2:	48bb      	ldr	r0, [pc, #748]	; (100013d0 <_Z41__static_initialization_and_destruction_0ii+0x3d4>)
100010e4:	f7ff fad6 	bl	10000694 <_ZNSt7__cxx1112basic_stringIcSt11char_traitsIcESaIcEEC1IS3_EEPKcRKS3_>
100010e8:	e001      	b.n	100010ee <_Z41__static_initialization_and_destruction_0ii+0xf2>
100010ea:	2604      	movs	r6, #4
100010ec:	e7e7      	b.n	100010be <_Z41__static_initialization_and_destruction_0ii+0xc2>
100010ee:	aa30      	add	r2, sp, #192	; 0xc0
100010f0:	49b8      	ldr	r1, [pc, #736]	; (100013d4 <_Z41__static_initialization_and_destruction_0ii+0x3d8>)
100010f2:	48b9      	ldr	r0, [pc, #740]	; (100013d8 <_Z41__static_initialization_and_destruction_0ii+0x3dc>)
100010f4:	f7ff face 	bl	10000694 <_ZNSt7__cxx1112basic_stringIcSt11char_traitsIcESaIcEEC1IS3_EEPKcRKS3_>
100010f8:	e001      	b.n	100010fe <_Z41__static_initialization_and_destruction_0ii+0x102>
100010fa:	2603      	movs	r6, #3
100010fc:	e7df      	b.n	100010be <_Z41__static_initialization_and_destruction_0ii+0xc2>
100010fe:	aa31      	add	r2, sp, #196	; 0xc4
10001100:	49b6      	ldr	r1, [pc, #728]	; (100013dc <_Z41__static_initialization_and_destruction_0ii+0x3e0>)
10001102:	48b7      	ldr	r0, [pc, #732]	; (100013e0 <_Z41__static_initialization_and_destruction_0ii+0x3e4>)
10001104:	f7ff fac6 	bl	10000694 <_ZNSt7__cxx1112basic_stringIcSt11char_traitsIcESaIcEEC1IS3_EEPKcRKS3_>
10001108:	aa32      	add	r2, sp, #200	; 0xc8
1000110a:	49b6      	ldr	r1, [pc, #728]	; (100013e4 <_Z41__static_initialization_and_destruction_0ii+0x3e8>)
1000110c:	48b6      	ldr	r0, [pc, #728]	; (100013e8 <_Z41__static_initialization_and_destruction_0ii+0x3ec>)
1000110e:	f7ff fac1 	bl	10000694 <_ZNSt7__cxx1112basic_stringIcSt11char_traitsIcESaIcEEC1IS3_EEPKcRKS3_>
10001112:	aa33      	add	r2, sp, #204	; 0xcc
10001114:	49b5      	ldr	r1, [pc, #724]	; (100013ec <_Z41__static_initialization_and_destruction_0ii+0x3f0>)
10001116:	48b6      	ldr	r0, [pc, #728]	; (100013f0 <_Z41__static_initialization_and_destruction_0ii+0x3f4>)
10001118:	f7ff fabc 	bl	10000694 <_ZNSt7__cxx1112basic_stringIcSt11char_traitsIcESaIcEEC1IS3_EEPKcRKS3_>
1000111c:	e796      	b.n	1000104c <_Z41__static_initialization_and_destruction_0ii+0x50>
1000111e:	2600      	movs	r6, #0
10001120:	e7cd      	b.n	100010be <_Z41__static_initialization_and_destruction_0ii+0xc2>
10001122:	4bb4      	ldr	r3, [pc, #720]	; (100013f4 <_Z41__static_initialization_and_destruction_0ii+0x3f8>)
10001124:	2200      	movs	r2, #0
10001126:	701a      	strb	r2, [r3, #0]
10001128:	605a      	str	r2, [r3, #4]
1000112a:	2102      	movs	r1, #2
1000112c:	6099      	str	r1, [r3, #8]
1000112e:	311c      	adds	r1, #28
10001130:	7319      	strb	r1, [r3, #12]
10001132:	735a      	strb	r2, [r3, #13]
10001134:	e790      	b.n	10001058 <_Z41__static_initialization_and_destruction_0ii+0x5c>
10001136:	aa3a      	add	r2, sp, #232	; 0xe8
10001138:	49a0      	ldr	r1, [pc, #640]	; (100013bc <_Z41__static_initialization_and_destruction_0ii+0x3c0>)
1000113a:	a834      	add	r0, sp, #208	; 0xd0
1000113c:	f7ff faaa 	bl	10000694 <_ZNSt7__cxx1112basic_stringIcSt11char_traitsIcESaIcEEC1IS3_EEPKcRKS3_>
10001140:	e010      	b.n	10001164 <_Z41__static_initialization_and_destruction_0ii+0x168>
10001142:	270f      	movs	r7, #15
10001144:	230f      	movs	r3, #15
10001146:	1bdb      	subs	r3, r3, r7
10001148:	244c      	movs	r4, #76	; 0x4c
1000114a:	435c      	muls	r4, r3
1000114c:	4baa      	ldr	r3, [pc, #680]	; (100013f8 <_Z41__static_initialization_and_destruction_0ii+0x3fc>)
1000114e:	18e4      	adds	r4, r4, r3
10001150:	4ba9      	ldr	r3, [pc, #676]	; (100013f8 <_Z41__static_initialization_and_destruction_0ii+0x3fc>)
10001152:	429c      	cmp	r4, r3
10001154:	d101      	bne.n	1000115a <_Z41__static_initialization_and_destruction_0ii+0x15e>
10001156:	f000 ff59 	bl	1000200c <_Z41__static_initialization_and_destruction_0ii+0x1010>
1000115a:	3c4c      	subs	r4, #76	; 0x4c
1000115c:	0020      	movs	r0, r4
1000115e:	f7ff f9ff 	bl	10000560 <_ZNSt11_Tuple_implILj0EJKNSt7__cxx1112basic_stringIcSt11char_traitsIcESaIcEEES6_N14wifi_interface12CMD_DATATYPEEiibSt6vectorIS5_SaIS5_EEEED1Ev>
10001162:	e7f5      	b.n	10001150 <_Z41__static_initialization_and_destruction_0ii+0x154>
10001164:	aa41      	add	r2, sp, #260	; 0x104
10001166:	4995      	ldr	r1, [pc, #596]	; (100013bc <_Z41__static_initialization_and_destruction_0ii+0x3c0>)
10001168:	a83b      	add	r0, sp, #236	; 0xec
1000116a:	f7ff fa93 	bl	10000694 <_ZNSt7__cxx1112basic_stringIcSt11char_traitsIcESaIcEEC1IS3_EEPKcRKS3_>
1000116e:	2600      	movs	r6, #0
10001170:	9642      	str	r6, [sp, #264]	; 0x108
10001172:	2301      	movs	r3, #1
10001174:	425b      	negs	r3, r3
10001176:	9343      	str	r3, [sp, #268]	; 0x10c
10001178:	9344      	str	r3, [sp, #272]	; 0x110
1000117a:	2318      	movs	r3, #24
1000117c:	33ff      	adds	r3, #255	; 0xff
1000117e:	446b      	add	r3, sp
10001180:	701e      	strb	r6, [r3, #0]
10001182:	220c      	movs	r2, #12
10001184:	0031      	movs	r1, r6
10001186:	a846      	add	r0, sp, #280	; 0x118
10001188:	f01a ff5c 	bl	1001c044 <__wrap_memset>
1000118c:	9646      	str	r6, [sp, #280]	; 0x118
1000118e:	9647      	str	r6, [sp, #284]	; 0x11c
10001190:	9648      	str	r6, [sp, #288]	; 0x120
10001192:	ab46      	add	r3, sp, #280	; 0x118
10001194:	9303      	str	r3, [sp, #12]
10001196:	2318      	movs	r3, #24
10001198:	33ff      	adds	r3, #255	; 0xff
1000119a:	446b      	add	r3, sp
1000119c:	9302      	str	r3, [sp, #8]
1000119e:	ab44      	add	r3, sp, #272	; 0x110
100011a0:	9301      	str	r3, [sp, #4]
100011a2:	ab43      	add	r3, sp, #268	; 0x10c
100011a4:	9300      	str	r3, [sp, #0]
100011a6:	ab42      	add	r3, sp, #264	; 0x108
100011a8:	aa3b      	add	r2, sp, #236	; 0xec
100011aa:	a934      	add	r1, sp, #208	; 0xd0
100011ac:	4892      	ldr	r0, [pc, #584]	; (100013f8 <_Z41__static_initialization_and_destruction_0ii+0x3fc>)
100011ae:	f7ff fc0d 	bl	100009cc <_ZNSt11_Tuple_implILj0EJKNSt7__cxx1112basic_stringIcSt11char_traitsIcESaIcEEES6_N14wifi_interface12CMD_DATATYPEEiibSt6vectorIS5_SaIS5_EEEEC1ERS6_SD_RKS8_RKiSH_RKbRKSB_>
100011b2:	a846      	add	r0, sp, #280	; 0x118
100011b4:	f7ff fa17 	bl	100005e6 <_ZNSt6vectorINSt7__cxx1112basic_stringIcSt11char_traitsIcESaIcEEESaIS5_EED1Ev>
100011b8:	a83b      	add	r0, sp, #236	; 0xec
100011ba:	f020 fc1d 	bl	100219f8 <_ZNSt7__cxx1112basic_stringIcSt11char_traitsIcESaIcEE10_M_disposeEv>
100011be:	a834      	add	r0, sp, #208	; 0xd0
100011c0:	f020 fc1a 	bl	100219f8 <_ZNSt7__cxx1112basic_stringIcSt11char_traitsIcESaIcEE10_M_disposeEv>
100011c4:	aa4f      	add	r2, sp, #316	; 0x13c
100011c6:	498d      	ldr	r1, [pc, #564]	; (100013fc <_Z41__static_initialization_and_destruction_0ii+0x400>)
100011c8:	a849      	add	r0, sp, #292	; 0x124
100011ca:	f7ff fa63 	bl	10000694 <_ZNSt7__cxx1112basic_stringIcSt11char_traitsIcESaIcEEC1IS3_EEPKcRKS3_>
100011ce:	e001      	b.n	100011d4 <_Z41__static_initialization_and_destruction_0ii+0x1d8>
100011d0:	270e      	movs	r7, #14
100011d2:	e7b7      	b.n	10001144 <_Z41__static_initialization_and_destruction_0ii+0x148>
100011d4:	aa56      	add	r2, sp, #344	; 0x158
100011d6:	498a      	ldr	r1, [pc, #552]	; (10001400 <_Z41__static_initialization_and_destruction_0ii+0x404>)
100011d8:	a850      	add	r0, sp, #320	; 0x140
100011da:	f7ff fa5b 	bl	10000694 <_ZNSt7__cxx1112basic_stringIcSt11char_traitsIcESaIcEEC1IS3_EEPKcRKS3_>
100011de:	2303      	movs	r3, #3
100011e0:	9357      	str	r3, [sp, #348]	; 0x15c
100011e2:	3b04      	subs	r3, #4
100011e4:	9358      	str	r3, [sp, #352]	; 0x160
100011e6:	9359      	str	r3, [sp, #356]	; 0x164
100011e8:	2600      	movs	r6, #0
100011ea:	236c      	movs	r3, #108	; 0x6c
100011ec:	33ff      	adds	r3, #255	; 0xff
100011ee:	446b      	add	r3, sp
100011f0:	701e      	strb	r6, [r3, #0]
100011f2:	220c      	movs	r2, #12
100011f4:	0031      	movs	r1, r6
100011f6:	a85b      	add	r0, sp, #364	; 0x16c
100011f8:	f01a ff24 	bl	1001c044 <__wrap_memset>
100011fc:	965b      	str	r6, [sp, #364]	; 0x16c
100011fe:	965c      	str	r6, [sp, #368]	; 0x170
10001200:	965d      	str	r6, [sp, #372]	; 0x174
10001202:	ab5b      	add	r3, sp, #364	; 0x16c
10001204:	9303      	str	r3, [sp, #12]
10001206:	236c      	movs	r3, #108	; 0x6c
10001208:	33ff      	adds	r3, #255	; 0xff
1000120a:	446b      	add	r3, sp
1000120c:	9302      	str	r3, [sp, #8]
1000120e:	ab59      	add	r3, sp, #356	; 0x164
10001210:	9301      	str	r3, [sp, #4]
10001212:	ab58      	add	r3, sp, #352	; 0x160
10001214:	9300      	str	r3, [sp, #0]
10001216:	ab57      	add	r3, sp, #348	; 0x15c
10001218:	aa50      	add	r2, sp, #320	; 0x140
1000121a:	a949      	add	r1, sp, #292	; 0x124
1000121c:	4879      	ldr	r0, [pc, #484]	; (10001404 <_Z41__static_initialization_and_destruction_0ii+0x408>)
1000121e:	f7ff fbd5 	bl	100009cc <_ZNSt11_Tuple_implILj0EJKNSt7__cxx1112basic_stringIcSt11char_traitsIcESaIcEEES6_N14wifi_interface12CMD_DATATYPEEiibSt6vectorIS5_SaIS5_EEEEC1ERS6_SD_RKS8_RKiSH_RKbRKSB_>
10001222:	a85b      	add	r0, sp, #364	; 0x16c
10001224:	f7ff f9df 	bl	100005e6 <_ZNSt6vectorINSt7__cxx1112basic_stringIcSt11char_traitsIcESaIcEEESaIS5_EED1Ev>
10001228:	a850      	add	r0, sp, #320	; 0x140
1000122a:	f020 fbe5 	bl	100219f8 <_ZNSt7__cxx1112basic_stringIcSt11char_traitsIcESaIcEE10_M_disposeEv>
1000122e:	a849      	add	r0, sp, #292	; 0x124
10001230:	f020 fbe2 	bl	100219f8 <_ZNSt7__cxx1112basic_stringIcSt11char_traitsIcESaIcEE10_M_disposeEv>
10001234:	aa64      	add	r2, sp, #400	; 0x190
10001236:	4974      	ldr	r1, [pc, #464]	; (10001408 <_Z41__static_initialization_and_destruction_0ii+0x40c>)
10001238:	a85e      	add	r0, sp, #376	; 0x178
1000123a:	f7ff fa2b 	bl	10000694 <_ZNSt7__cxx1112basic_stringIcSt11char_traitsIcESaIcEEC1IS3_EEPKcRKS3_>
1000123e:	e001      	b.n	10001244 <_Z41__static_initialization_and_destruction_0ii+0x248>
10001240:	270d      	movs	r7, #13
10001242:	e77f      	b.n	10001144 <_Z41__static_initialization_and_destruction_0ii+0x148>
10001244:	aa6b      	add	r2, sp, #428	; 0x1ac
10001246:	4971      	ldr	r1, [pc, #452]	; (1000140c <_Z41__static_initialization_and_destruction_0ii+0x410>)
10001248:	a865      	add	r0, sp, #404	; 0x194
1000124a:	f7ff fa23 	bl	10000694 <_ZNSt7__cxx1112basic_stringIcSt11char_traitsIcESaIcEEC1IS3_EEPKcRKS3_>
1000124e:	2303      	movs	r3, #3
10001250:	936c      	str	r3, [sp, #432]	; 0x1b0
10001252:	3b04      	subs	r3, #4
10001254:	936d      	str	r3, [sp, #436]	; 0x1b4
10001256:	936e      	str	r3, [sp, #440]	; 0x1b8
10001258:	2600      	movs	r6, #0
1000125a:	23c0      	movs	r3, #192	; 0xc0
1000125c:	33ff      	adds	r3, #255	; 0xff
1000125e:	446b      	add	r3, sp
10001260:	701e      	strb	r6, [r3, #0]
10001262:	220c      	movs	r2, #12
10001264:	0031      	movs	r1, r6
10001266:	a870      	add	r0, sp, #448	; 0x1c0
10001268:	f01a feec 	bl	1001c044 <__wrap_memset>
1000126c:	9670      	str	r6, [sp, #448]	; 0x1c0
1000126e:	9671      	str	r6, [sp, #452]	; 0x1c4
10001270:	9672      	str	r6, [sp, #456]	; 0x1c8
10001272:	ab70      	add	r3, sp, #448	; 0x1c0
10001274:	9303      	str	r3, [sp, #12]
10001276:	23c0      	movs	r3, #192	; 0xc0
10001278:	33ff      	adds	r3, #255	; 0xff
1000127a:	446b      	add	r3, sp
1000127c:	9302      	str	r3, [sp, #8]
1000127e:	ab6e      	add	r3, sp, #440	; 0x1b8
10001280:	9301      	str	r3, [sp, #4]
10001282:	ab6d      	add	r3, sp, #436	; 0x1b4
10001284:	9300      	str	r3, [sp, #0]
10001286:	ab6c      	add	r3, sp, #432	; 0x1b0
10001288:	aa65      	add	r2, sp, #404	; 0x194
1000128a:	a95e      	add	r1, sp, #376	; 0x178
1000128c:	4860      	ldr	r0, [pc, #384]	; (10001410 <_Z41__static_initialization_and_destruction_0ii+0x414>)
1000128e:	f7ff fb9d 	bl	100009cc <_ZNSt11_Tuple_implILj0EJKNSt7__cxx1112basic_stringIcSt11char_traitsIcESaIcEEES6_N14wifi_interface12CMD_DATATYPEEiibSt6vectorIS5_SaIS5_EEEEC1ERS6_SD_RKS8_RKiSH_RKbRKSB_>
10001292:	a870      	add	r0, sp, #448	; 0x1c0
10001294:	f7ff f9a7 	bl	100005e6 <_ZNSt6vectorINSt7__cxx1112basic_stringIcSt11char_traitsIcESaIcEEESaIS5_EED1Ev>
10001298:	a865      	add	r0, sp, #404	; 0x194
1000129a:	f020 fbad 	bl	100219f8 <_ZNSt7__cxx1112basic_stringIcSt11char_traitsIcESaIcEE10_M_disposeEv>
1000129e:	a85e      	add	r0, sp, #376	; 0x178
100012a0:	f020 fbaa 	bl	100219f8 <_ZNSt7__cxx1112basic_stringIcSt11char_traitsIcESaIcEE10_M_disposeEv>
100012a4:	aa79      	add	r2, sp, #484	; 0x1e4
100012a6:	495b      	ldr	r1, [pc, #364]	; (10001414 <_Z41__static_initialization_and_destruction_0ii+0x418>)
100012a8:	a873      	add	r0, sp, #460	; 0x1cc
100012aa:	f7ff f9f3 	bl	10000694 <_ZNSt7__cxx1112basic_stringIcSt11char_traitsIcESaIcEEC1IS3_EEPKcRKS3_>
100012ae:	e001      	b.n	100012b4 <_Z41__static_initialization_and_destruction_0ii+0x2b8>
100012b0:	270c      	movs	r7, #12
100012b2:	e747      	b.n	10001144 <_Z41__static_initialization_and_destruction_0ii+0x148>
100012b4:	aa80      	add	r2, sp, #512	; 0x200
100012b6:	4958      	ldr	r1, [pc, #352]	; (10001418 <_Z41__static_initialization_and_destruction_0ii+0x41c>)
100012b8:	a87a      	add	r0, sp, #488	; 0x1e8
100012ba:	f7ff f9eb 	bl	10000694 <_ZNSt7__cxx1112basic_stringIcSt11char_traitsIcESaIcEEC1IS3_EEPKcRKS3_>
100012be:	2301      	movs	r3, #1
100012c0:	9381      	str	r3, [sp, #516]	; 0x204
100012c2:	2600      	movs	r6, #0
100012c4:	9682      	str	r6, [sp, #520]	; 0x208
100012c6:	22ff      	movs	r2, #255	; 0xff
100012c8:	4252      	negs	r2, r2
100012ca:	9283      	str	r2, [sp, #524]	; 0x20c
100012cc:	4a53      	ldr	r2, [pc, #332]	; (1000141c <_Z41__static_initialization_and_destruction_0ii+0x420>)
100012ce:	446a      	add	r2, sp
100012d0:	7013      	strb	r3, [r2, #0]
100012d2:	220c      	movs	r2, #12
100012d4:	0031      	movs	r1, r6
100012d6:	a885      	add	r0, sp, #532	; 0x214
100012d8:	f01a feb4 	bl	1001c044 <__wrap_memset>
100012dc:	9685      	str	r6, [sp, #532]	; 0x214
100012de:	9686      	str	r6, [sp, #536]	; 0x218
100012e0:	9687      	str	r6, [sp, #540]	; 0x21c
100012e2:	ab85      	add	r3, sp, #532	; 0x214
100012e4:	9303      	str	r3, [sp, #12]
100012e6:	4b4d      	ldr	r3, [pc, #308]	; (1000141c <_Z41__static_initialization_and_destruction_0ii+0x420>)
100012e8:	446b      	add	r3, sp
100012ea:	9302      	str	r3, [sp, #8]
100012ec:	ab83      	add	r3, sp, #524	; 0x20c
100012ee:	9301      	str	r3, [sp, #4]
100012f0:	ab82      	add	r3, sp, #520	; 0x208
100012f2:	9300      	str	r3, [sp, #0]
100012f4:	ab81      	add	r3, sp, #516	; 0x204
100012f6:	aa7a      	add	r2, sp, #488	; 0x1e8
100012f8:	a973      	add	r1, sp, #460	; 0x1cc
100012fa:	4849      	ldr	r0, [pc, #292]	; (10001420 <_Z41__static_initialization_and_destruction_0ii+0x424>)
100012fc:	f7ff fb66 	bl	100009cc <_ZNSt11_Tuple_implILj0EJKNSt7__cxx1112basic_stringIcSt11char_traitsIcESaIcEEES6_N14wifi_interface12CMD_DATATYPEEiibSt6vectorIS5_SaIS5_EEEEC1ERS6_SD_RKS8_RKiSH_RKbRKSB_>
10001300:	a885      	add	r0, sp, #532	; 0x214
10001302:	f7ff f970 	bl	100005e6 <_ZNSt6vectorINSt7__cxx1112basic_stringIcSt11char_traitsIcESaIcEEESaIS5_EED1Ev>
10001306:	a87a      	add	r0, sp, #488	; 0x1e8
10001308:	f020 fb76 	bl	100219f8 <_ZNSt7__cxx1112basic_stringIcSt11char_traitsIcESaIcEE10_M_disposeEv>
1000130c:	a873      	add	r0, sp, #460	; 0x1cc
1000130e:	f020 fb73 	bl	100219f8 <_ZNSt7__cxx1112basic_stringIcSt11char_traitsIcESaIcEE10_M_disposeEv>
10001312:	aa8e      	add	r2, sp, #568	; 0x238
10001314:	4943      	ldr	r1, [pc, #268]	; (10001424 <_Z41__static_initialization_and_destruction_0ii+0x428>)
10001316:	a888      	add	r0, sp, #544	; 0x220
10001318:	f7ff f9bc 	bl	10000694 <_ZNSt7__cxx1112basic_stringIcSt11char_traitsIcESaIcEEC1IS3_EEPKcRKS3_>
1000131c:	e001      	b.n	10001322 <_Z41__static_initialization_and_destruction_0ii+0x326>
1000131e:	270b      	movs	r7, #11
10001320:	e710      	b.n	10001144 <_Z41__static_initialization_and_destruction_0ii+0x148>
10001322:	aa95      	add	r2, sp, #596	; 0x254
10001324:	4925      	ldr	r1, [pc, #148]	; (100013bc <_Z41__static_initialization_and_destruction_0ii+0x3c0>)
10001326:	a88f      	add	r0, sp, #572	; 0x23c
10001328:	f7ff f9b4 	bl	10000694 <_ZNSt7__cxx1112basic_stringIcSt11char_traitsIcESaIcEEC1IS3_EEPKcRKS3_>
1000132c:	2303      	movs	r3, #3
1000132e:	9396      	str	r3, [sp, #600]	; 0x258
10001330:	3b04      	subs	r3, #4
10001332:	9397      	str	r3, [sp, #604]	; 0x25c
10001334:	9398      	str	r3, [sp, #608]	; 0x260
10001336:	2600      	movs	r6, #0
10001338:	4b3b      	ldr	r3, [pc, #236]	; (10001428 <_Z41__static_initialization_and_destruction_0ii+0x42c>)
1000133a:	446b      	add	r3, sp
1000133c:	701e      	strb	r6, [r3, #0]
1000133e:	220c      	movs	r2, #12
10001340:	0031      	movs	r1, r6
10001342:	a89a      	add	r0, sp, #616	; 0x268
10001344:	f01a fe7e 	bl	1001c044 <__wrap_memset>
10001348:	969a      	str	r6, [sp, #616]	; 0x268
1000134a:	969b      	str	r6, [sp, #620]	; 0x26c
1000134c:	969c      	str	r6, [sp, #624]	; 0x270
1000134e:	ab9a      	add	r3, sp, #616	; 0x268
10001350:	9303      	str	r3, [sp, #12]
10001352:	4b35      	ldr	r3, [pc, #212]	; (10001428 <_Z41__static_initialization_and_destruction_0ii+0x42c>)
10001354:	446b      	add	r3, sp
10001356:	9302      	str	r3, [sp, #8]
10001358:	ab98      	add	r3, sp, #608	; 0x260
1000135a:	9301      	str	r3, [sp, #4]
1000135c:	ab97      	add	r3, sp, #604	; 0x25c
1000135e:	9300      	str	r3, [sp, #0]
10001360:	ab96      	add	r3, sp, #600	; 0x258
10001362:	aa8f      	add	r2, sp, #572	; 0x23c
10001364:	a988      	add	r1, sp, #544	; 0x220
10001366:	4831      	ldr	r0, [pc, #196]	; (1000142c <_Z41__static_initialization_and_destruction_0ii+0x430>)
10001368:	f7ff fb30 	bl	100009cc <_ZNSt11_Tuple_implILj0EJKNSt7__cxx1112basic_stringIcSt11char_traitsIcESaIcEEES6_N14wifi_interface12CMD_DATATYPEEiibSt6vectorIS5_SaIS5_EEEEC1ERS6_SD_RKS8_RKiSH_RKbRKSB_>
1000136c:	a89a      	add	r0, sp, #616	; 0x268
1000136e:	f7ff f93a 	bl	100005e6 <_ZNSt6vectorINSt7__cxx1112basic_stringIcSt11char_traitsIcESaIcEEESaIS5_EED1Ev>
10001372:	a88f      	add	r0, sp, #572	; 0x23c
10001374:	f020 fb40 	bl	100219f8 <_ZNSt7__cxx1112basic_stringIcSt11char_traitsIcESaIcEE10_M_disposeEv>
10001378:	a888      	add	r0, sp, #544	; 0x220
1000137a:	f020 fb3d 	bl	100219f8 <_ZNSt7__cxx1112basic_stringIcSt11char_traitsIcESaIcEE10_M_disposeEv>
1000137e:	aaa3      	add	r2, sp, #652	; 0x28c
10001380:	492b      	ldr	r1, [pc, #172]	; (10001430 <_Z41__static_initialization_and_destruction_0ii+0x434>)
10001382:	a89d      	add	r0, sp, #628	; 0x274
10001384:	f7ff f986 	bl	10000694 <_ZNSt7__cxx1112basic_stringIcSt11char_traitsIcESaIcEEC1IS3_EEPKcRKS3_>
10001388:	e054      	b.n	10001434 <_Z41__static_initialization_and_destruction_0ii+0x438>
1000138a:	270a      	movs	r7, #10
1000138c:	e6da      	b.n	10001144 <_Z41__static_initialization_and_destruction_0ii+0x148>
1000138e:	46c0      	nop			; (mov r8, r8)
10001390:	fffff944 	.word	0xfffff944
10001394:	0000ffff 	.word	0x0000ffff
10001398:	000006bc 	.word	0x000006bc
1000139c:	20002c28 	.word	0x20002c28
100013a0:	20001ff8 	.word	0x20001ff8
100013a4:	20001ffc 	.word	0x20001ffc
100013a8:	20001ff4 	.word	0x20001ff4
100013ac:	20001ff0 	.word	0x20001ff0
100013b0:	20001fec 	.word	0x20001fec
100013b4:	20001fe4 	.word	0x20001fe4
100013b8:	20001fe8 	.word	0x20001fe8
100013bc:	1002c1c4 	.word	0x1002c1c4
100013c0:	20002048 	.word	0x20002048
100013c4:	1002ae8c 	.word	0x1002ae8c
100013c8:	20002564 	.word	0x20002564
100013cc:	1002ae94 	.word	0x1002ae94
100013d0:	2000257c 	.word	0x2000257c
100013d4:	1002ae9c 	.word	0x1002ae9c
100013d8:	20002594 	.word	0x20002594
100013dc:	1002aea4 	.word	0x1002aea4
100013e0:	200025ac 	.word	0x200025ac
100013e4:	1002aeac 	.word	0x1002aeac
100013e8:	200025c4 	.word	0x200025c4
100013ec:	1002aeb4 	.word	0x1002aeb4
100013f0:	200025dc 	.word	0x200025dc
100013f4:	200025f4 	.word	0x200025f4
100013f8:	200020a4 	.word	0x200020a4
100013fc:	1002aebc 	.word	0x1002aebc
10001400:	1002aec0 	.word	0x1002aec0
10001404:	200020f0 	.word	0x200020f0
10001408:	10030ae0 	.word	0x10030ae0
1000140c:	1002aec4 	.word	0x1002aec4
10001410:	2000213c 	.word	0x2000213c
10001414:	1002aed0 	.word	0x1002aed0
10001418:	1002aed4 	.word	0x1002aed4
1000141c:	00000213 	.word	0x00000213
10001420:	20002188 	.word	0x20002188
10001424:	1002aee4 	.word	0x1002aee4
10001428:	00000267 	.word	0x00000267
1000142c:	200021d4 	.word	0x200021d4
10001430:	1002aee8 	.word	0x1002aee8
10001434:	aaaa      	add	r2, sp, #680	; 0x2a8
10001436:	49ec      	ldr	r1, [pc, #944]	; (100017e8 <_Z41__static_initialization_and_destruction_0ii+0x7ec>)
10001438:	a8a4      	add	r0, sp, #656	; 0x290
1000143a:	f7ff f92b 	bl	10000694 <_ZNSt7__cxx1112basic_stringIcSt11char_traitsIcESaIcEEC1IS3_EEPKcRKS3_>
1000143e:	2304      	movs	r3, #4
10001440:	93ab      	str	r3, [sp, #684]	; 0x2ac
10001442:	2300      	movs	r3, #0
10001444:	93ac      	str	r3, [sp, #688]	; 0x2b0
10001446:	3305      	adds	r3, #5
10001448:	93ad      	str	r3, [sp, #692]	; 0x2b4
1000144a:	4be8      	ldr	r3, [pc, #928]	; (100017ec <_Z41__static_initialization_and_destruction_0ii+0x7f0>)
1000144c:	446b      	add	r3, sp
1000144e:	2201      	movs	r2, #1
10001450:	701a      	strb	r2, [r3, #0]
10001452:	aab4      	add	r2, sp, #720	; 0x2d0
10001454:	49e6      	ldr	r1, [pc, #920]	; (100017f0 <_Z41__static_initialization_and_destruction_0ii+0x7f4>)
10001456:	a80a      	add	r0, sp, #40	; 0x28
10001458:	f7ff f91c 	bl	10000694 <_ZNSt7__cxx1112basic_stringIcSt11char_traitsIcESaIcEEC1IS3_EEPKcRKS3_>
1000145c:	aab5      	add	r2, sp, #724	; 0x2d4
1000145e:	49e5      	ldr	r1, [pc, #916]	; (100017f4 <_Z41__static_initialization_and_destruction_0ii+0x7f8>)
10001460:	a810      	add	r0, sp, #64	; 0x40
10001462:	f7ff f917 	bl	10000694 <_ZNSt7__cxx1112basic_stringIcSt11char_traitsIcESaIcEEC1IS3_EEPKcRKS3_>
10001466:	aab6      	add	r2, sp, #728	; 0x2d8
10001468:	49e3      	ldr	r1, [pc, #908]	; (100017f8 <_Z41__static_initialization_and_destruction_0ii+0x7fc>)
1000146a:	a816      	add	r0, sp, #88	; 0x58
1000146c:	f7ff f912 	bl	10000694 <_ZNSt7__cxx1112basic_stringIcSt11char_traitsIcESaIcEEC1IS3_EEPKcRKS3_>
10001470:	aab7      	add	r2, sp, #732	; 0x2dc
10001472:	49e2      	ldr	r1, [pc, #904]	; (100017fc <_Z41__static_initialization_and_destruction_0ii+0x800>)
10001474:	a81c      	add	r0, sp, #112	; 0x70
10001476:	f7ff f90d 	bl	10000694 <_ZNSt7__cxx1112basic_stringIcSt11char_traitsIcESaIcEEC1IS3_EEPKcRKS3_>
1000147a:	aab8      	add	r2, sp, #736	; 0x2e0
1000147c:	49e0      	ldr	r1, [pc, #896]	; (10001800 <_Z41__static_initialization_and_destruction_0ii+0x804>)
1000147e:	a822      	add	r0, sp, #136	; 0x88
10001480:	f7ff f908 	bl	10000694 <_ZNSt7__cxx1112basic_stringIcSt11char_traitsIcESaIcEEC1IS3_EEPKcRKS3_>
10001484:	aab9      	add	r2, sp, #740	; 0x2e4
10001486:	49df      	ldr	r1, [pc, #892]	; (10001804 <_Z41__static_initialization_and_destruction_0ii+0x808>)
10001488:	a828      	add	r0, sp, #160	; 0xa0
1000148a:	f7ff f903 	bl	10000694 <_ZNSt7__cxx1112basic_stringIcSt11char_traitsIcESaIcEEC1IS3_EEPKcRKS3_>
1000148e:	a90a      	add	r1, sp, #40	; 0x28
10001490:	91b2      	str	r1, [sp, #712]	; 0x2c8
10001492:	2206      	movs	r2, #6
10001494:	92b3      	str	r2, [sp, #716]	; 0x2cc
10001496:	abba      	add	r3, sp, #744	; 0x2e8
10001498:	a8af      	add	r0, sp, #700	; 0x2bc
1000149a:	f7ff fa2d 	bl	100008f8 <_ZNSt6vectorINSt7__cxx1112basic_stringIcSt11char_traitsIcESaIcEEESaIS5_EEC1ESt16initializer_listIS5_ERKS6_>
1000149e:	e00a      	b.n	100014b6 <_Z41__static_initialization_and_destruction_0ii+0x4ba>
100014a0:	ac2e      	add	r4, sp, #184	; 0xb8
100014a2:	ab0a      	add	r3, sp, #40	; 0x28
100014a4:	429c      	cmp	r4, r3
100014a6:	d101      	bne.n	100014ac <_Z41__static_initialization_and_destruction_0ii+0x4b0>
100014a8:	f000 fd07 	bl	10001eba <_Z41__static_initialization_and_destruction_0ii+0xebe>
100014ac:	3c18      	subs	r4, #24
100014ae:	0020      	movs	r0, r4
100014b0:	f020 faa2 	bl	100219f8 <_ZNSt7__cxx1112basic_stringIcSt11char_traitsIcESaIcEE10_M_disposeEv>
100014b4:	e7f5      	b.n	100014a2 <_Z41__static_initialization_and_destruction_0ii+0x4a6>
100014b6:	abaf      	add	r3, sp, #700	; 0x2bc
100014b8:	9303      	str	r3, [sp, #12]
100014ba:	4bcc      	ldr	r3, [pc, #816]	; (100017ec <_Z41__static_initialization_and_destruction_0ii+0x7f0>)
100014bc:	446b      	add	r3, sp
100014be:	9302      	str	r3, [sp, #8]
100014c0:	abad      	add	r3, sp, #692	; 0x2b4
100014c2:	9301      	str	r3, [sp, #4]
100014c4:	abac      	add	r3, sp, #688	; 0x2b0
100014c6:	9300      	str	r3, [sp, #0]
100014c8:	abab      	add	r3, sp, #684	; 0x2ac
100014ca:	aaa4      	add	r2, sp, #656	; 0x290
100014cc:	a99d      	add	r1, sp, #628	; 0x274
100014ce:	48ce      	ldr	r0, [pc, #824]	; (10001808 <_Z41__static_initialization_and_destruction_0ii+0x80c>)
100014d0:	f7ff fa7c 	bl	100009cc <_ZNSt11_Tuple_implILj0EJKNSt7__cxx1112basic_stringIcSt11char_traitsIcESaIcEEES6_N14wifi_interface12CMD_DATATYPEEiibSt6vectorIS5_SaIS5_EEEEC1ERS6_SD_RKS8_RKiSH_RKbRKSB_>
100014d4:	a8af      	add	r0, sp, #700	; 0x2bc
100014d6:	f7ff f886 	bl	100005e6 <_ZNSt6vectorINSt7__cxx1112basic_stringIcSt11char_traitsIcESaIcEEESaIS5_EED1Ev>
100014da:	ae2e      	add	r6, sp, #184	; 0xb8
100014dc:	ab0a      	add	r3, sp, #40	; 0x28
100014de:	429e      	cmp	r6, r3
100014e0:	d004      	beq.n	100014ec <_Z41__static_initialization_and_destruction_0ii+0x4f0>
100014e2:	3e18      	subs	r6, #24
100014e4:	0030      	movs	r0, r6
100014e6:	f020 fa87 	bl	100219f8 <_ZNSt7__cxx1112basic_stringIcSt11char_traitsIcESaIcEE10_M_disposeEv>
100014ea:	e7f7      	b.n	100014dc <_Z41__static_initialization_and_destruction_0ii+0x4e0>
100014ec:	a8a4      	add	r0, sp, #656	; 0x290
100014ee:	f020 fa83 	bl	100219f8 <_ZNSt7__cxx1112basic_stringIcSt11char_traitsIcESaIcEE10_M_disposeEv>
100014f2:	a89d      	add	r0, sp, #628	; 0x274
100014f4:	f020 fa80 	bl	100219f8 <_ZNSt7__cxx1112basic_stringIcSt11char_traitsIcESaIcEE10_M_disposeEv>
100014f8:	aac1      	add	r2, sp, #772	; 0x304
100014fa:	49c4      	ldr	r1, [pc, #784]	; (1000180c <_Z41__static_initialization_and_destruction_0ii+0x810>)
100014fc:	a8bb      	add	r0, sp, #748	; 0x2ec
100014fe:	f7ff f8c9 	bl	10000694 <_ZNSt7__cxx1112basic_stringIcSt11char_traitsIcESaIcEEC1IS3_EEPKcRKS3_>
10001502:	e001      	b.n	10001508 <_Z41__static_initialization_and_destruction_0ii+0x50c>
10001504:	2709      	movs	r7, #9
10001506:	e61d      	b.n	10001144 <_Z41__static_initialization_and_destruction_0ii+0x148>
10001508:	aac8      	add	r2, sp, #800	; 0x320
1000150a:	49c1      	ldr	r1, [pc, #772]	; (10001810 <_Z41__static_initialization_and_destruction_0ii+0x814>)
1000150c:	a8c2      	add	r0, sp, #776	; 0x308
1000150e:	f7ff f8c1 	bl	10000694 <_ZNSt7__cxx1112basic_stringIcSt11char_traitsIcESaIcEEC1IS3_EEPKcRKS3_>
10001512:	2302      	movs	r3, #2
10001514:	93c9      	str	r3, [sp, #804]	; 0x324
10001516:	3b03      	subs	r3, #3
10001518:	93ca      	str	r3, [sp, #808]	; 0x328
1000151a:	93cb      	str	r3, [sp, #812]	; 0x32c
1000151c:	4bbd      	ldr	r3, [pc, #756]	; (10001814 <_Z41__static_initialization_and_destruction_0ii+0x818>)
1000151e:	446b      	add	r3, sp
10001520:	2201      	movs	r2, #1
10001522:	701a      	strb	r2, [r3, #0]
10001524:	320b      	adds	r2, #11
10001526:	2100      	movs	r1, #0
10001528:	a8cd      	add	r0, sp, #820	; 0x334
1000152a:	f01a fd8b 	bl	1001c044 <__wrap_memset>
1000152e:	2300      	movs	r3, #0
10001530:	93cd      	str	r3, [sp, #820]	; 0x334
10001532:	93ce      	str	r3, [sp, #824]	; 0x338
10001534:	93cf      	str	r3, [sp, #828]	; 0x33c
10001536:	abcd      	add	r3, sp, #820	; 0x334
10001538:	9303      	str	r3, [sp, #12]
1000153a:	4bb6      	ldr	r3, [pc, #728]	; (10001814 <_Z41__static_initialization_and_destruction_0ii+0x818>)
1000153c:	446b      	add	r3, sp
1000153e:	9302      	str	r3, [sp, #8]
10001540:	abcb      	add	r3, sp, #812	; 0x32c
10001542:	9301      	str	r3, [sp, #4]
10001544:	abca      	add	r3, sp, #808	; 0x328
10001546:	9300      	str	r3, [sp, #0]
10001548:	abc9      	add	r3, sp, #804	; 0x324
1000154a:	aac2      	add	r2, sp, #776	; 0x308
1000154c:	a9bb      	add	r1, sp, #748	; 0x2ec
1000154e:	48b2      	ldr	r0, [pc, #712]	; (10001818 <_Z41__static_initialization_and_destruction_0ii+0x81c>)
10001550:	f7ff fa3c 	bl	100009cc <_ZNSt11_Tuple_implILj0EJKNSt7__cxx1112basic_stringIcSt11char_traitsIcESaIcEEES6_N14wifi_interface12CMD_DATATYPEEiibSt6vectorIS5_SaIS5_EEEEC1ERS6_SD_RKS8_RKiSH_RKbRKSB_>
10001554:	a8cd      	add	r0, sp, #820	; 0x334
10001556:	f7ff f846 	bl	100005e6 <_ZNSt6vectorINSt7__cxx1112basic_stringIcSt11char_traitsIcESaIcEEESaIS5_EED1Ev>
1000155a:	a8c2      	add	r0, sp, #776	; 0x308
1000155c:	f020 fa4c 	bl	100219f8 <_ZNSt7__cxx1112basic_stringIcSt11char_traitsIcESaIcEE10_M_disposeEv>
10001560:	a8bb      	add	r0, sp, #748	; 0x2ec
10001562:	f020 fa49 	bl	100219f8 <_ZNSt7__cxx1112basic_stringIcSt11char_traitsIcESaIcEE10_M_disposeEv>
10001566:	aad6      	add	r2, sp, #856	; 0x358
10001568:	49ac      	ldr	r1, [pc, #688]	; (1000181c <_Z41__static_initialization_and_destruction_0ii+0x820>)
1000156a:	a8d0      	add	r0, sp, #832	; 0x340
1000156c:	f7ff f892 	bl	10000694 <_ZNSt7__cxx1112basic_stringIcSt11char_traitsIcESaIcEEC1IS3_EEPKcRKS3_>
10001570:	e001      	b.n	10001576 <_Z41__static_initialization_and_destruction_0ii+0x57a>
10001572:	2708      	movs	r7, #8
10001574:	e5e6      	b.n	10001144 <_Z41__static_initialization_and_destruction_0ii+0x148>
10001576:	aadd      	add	r2, sp, #884	; 0x374
10001578:	49a9      	ldr	r1, [pc, #676]	; (10001820 <_Z41__static_initialization_and_destruction_0ii+0x824>)
1000157a:	a8d7      	add	r0, sp, #860	; 0x35c
1000157c:	f7ff f88a 	bl	10000694 <_ZNSt7__cxx1112basic_stringIcSt11char_traitsIcESaIcEEC1IS3_EEPKcRKS3_>
10001580:	2301      	movs	r3, #1
10001582:	93de      	str	r3, [sp, #888]	; 0x378
10001584:	220a      	movs	r2, #10
10001586:	92df      	str	r2, [sp, #892]	; 0x37c
10001588:	325a      	adds	r2, #90	; 0x5a
1000158a:	92e0      	str	r2, [sp, #896]	; 0x380
1000158c:	4aa5      	ldr	r2, [pc, #660]	; (10001824 <_Z41__static_initialization_and_destruction_0ii+0x828>)
1000158e:	446a      	add	r2, sp
10001590:	7013      	strb	r3, [r2, #0]
10001592:	220c      	movs	r2, #12
10001594:	2100      	movs	r1, #0
10001596:	a8e2      	add	r0, sp, #904	; 0x388
10001598:	f01a fd54 	bl	1001c044 <__wrap_memset>
1000159c:	2300      	movs	r3, #0
1000159e:	93e2      	str	r3, [sp, #904]	; 0x388
100015a0:	93e3      	str	r3, [sp, #908]	; 0x38c
100015a2:	93e4      	str	r3, [sp, #912]	; 0x390
100015a4:	abe2      	add	r3, sp, #904	; 0x388
100015a6:	9303      	str	r3, [sp, #12]
100015a8:	4b9e      	ldr	r3, [pc, #632]	; (10001824 <_Z41__static_initialization_and_destruction_0ii+0x828>)
100015aa:	446b      	add	r3, sp
100015ac:	9302      	str	r3, [sp, #8]
100015ae:	abe0      	add	r3, sp, #896	; 0x380
100015b0:	9301      	str	r3, [sp, #4]
100015b2:	abdf      	add	r3, sp, #892	; 0x37c
100015b4:	9300      	str	r3, [sp, #0]
100015b6:	abde      	add	r3, sp, #888	; 0x378
100015b8:	aad7      	add	r2, sp, #860	; 0x35c
100015ba:	a9d0      	add	r1, sp, #832	; 0x340
100015bc:	489a      	ldr	r0, [pc, #616]	; (10001828 <_Z41__static_initialization_and_destruction_0ii+0x82c>)
100015be:	f7ff fa05 	bl	100009cc <_ZNSt11_Tuple_implILj0EJKNSt7__cxx1112basic_stringIcSt11char_traitsIcESaIcEEES6_N14wifi_interface12CMD_DATATYPEEiibSt6vectorIS5_SaIS5_EEEEC1ERS6_SD_RKS8_RKiSH_RKbRKSB_>
100015c2:	a8e2      	add	r0, sp, #904	; 0x388
100015c4:	f7ff f80f 	bl	100005e6 <_ZNSt6vectorINSt7__cxx1112basic_stringIcSt11char_traitsIcESaIcEEESaIS5_EED1Ev>
100015c8:	a8d7      	add	r0, sp, #860	; 0x35c
100015ca:	f020 fa15 	bl	100219f8 <_ZNSt7__cxx1112basic_stringIcSt11char_traitsIcESaIcEE10_M_disposeEv>
100015ce:	a8d0      	add	r0, sp, #832	; 0x340
100015d0:	f020 fa12 	bl	100219f8 <_ZNSt7__cxx1112basic_stringIcSt11char_traitsIcESaIcEE10_M_disposeEv>
100015d4:	aaeb      	add	r2, sp, #940	; 0x3ac
100015d6:	4995      	ldr	r1, [pc, #596]	; (1000182c <_Z41__static_initialization_and_destruction_0ii+0x830>)
100015d8:	a8e5      	add	r0, sp, #916	; 0x394
100015da:	f7ff f85b 	bl	10000694 <_ZNSt7__cxx1112basic_stringIcSt11char_traitsIcESaIcEEC1IS3_EEPKcRKS3_>
100015de:	e001      	b.n	100015e4 <_Z41__static_initialization_and_destruction_0ii+0x5e8>
100015e0:	2707      	movs	r7, #7
100015e2:	e5af      	b.n	10001144 <_Z41__static_initialization_and_destruction_0ii+0x148>
100015e4:	aaf2      	add	r2, sp, #968	; 0x3c8
100015e6:	4992      	ldr	r1, [pc, #584]	; (10001830 <_Z41__static_initialization_and_destruction_0ii+0x834>)
100015e8:	a8ec      	add	r0, sp, #944	; 0x3b0
100015ea:	f7ff f853 	bl	10000694 <_ZNSt7__cxx1112basic_stringIcSt11char_traitsIcESaIcEEC1IS3_EEPKcRKS3_>
100015ee:	2303      	movs	r3, #3
100015f0:	93f3      	str	r3, [sp, #972]	; 0x3cc
100015f2:	3b04      	subs	r3, #4
100015f4:	93f4      	str	r3, [sp, #976]	; 0x3d0
100015f6:	93f5      	str	r3, [sp, #980]	; 0x3d4
100015f8:	2600      	movs	r6, #0
100015fa:	4b8e      	ldr	r3, [pc, #568]	; (10001834 <_Z41__static_initialization_and_destruction_0ii+0x838>)
100015fc:	446b      	add	r3, sp
100015fe:	701e      	strb	r6, [r3, #0]
10001600:	220c      	movs	r2, #12
10001602:	0031      	movs	r1, r6
10001604:	a8f7      	add	r0, sp, #988	; 0x3dc
10001606:	f01a fd1d 	bl	1001c044 <__wrap_memset>
1000160a:	96f7      	str	r6, [sp, #988]	; 0x3dc
1000160c:	96f8      	str	r6, [sp, #992]	; 0x3e0
1000160e:	96f9      	str	r6, [sp, #996]	; 0x3e4
10001610:	abf7      	add	r3, sp, #988	; 0x3dc
10001612:	9303      	str	r3, [sp, #12]
10001614:	4b87      	ldr	r3, [pc, #540]	; (10001834 <_Z41__static_initialization_and_destruction_0ii+0x838>)
10001616:	446b      	add	r3, sp
10001618:	9302      	str	r3, [sp, #8]
1000161a:	abf5      	add	r3, sp, #980	; 0x3d4
1000161c:	9301      	str	r3, [sp, #4]
1000161e:	abf4      	add	r3, sp, #976	; 0x3d0
10001620:	9300      	str	r3, [sp, #0]
10001622:	abf3      	add	r3, sp, #972	; 0x3cc
10001624:	aaec      	add	r2, sp, #944	; 0x3b0
10001626:	a9e5      	add	r1, sp, #916	; 0x394
10001628:	4883      	ldr	r0, [pc, #524]	; (10001838 <_Z41__static_initialization_and_destruction_0ii+0x83c>)
1000162a:	f7ff f9cf 	bl	100009cc <_ZNSt11_Tuple_implILj0EJKNSt7__cxx1112basic_stringIcSt11char_traitsIcESaIcEEES6_N14wifi_interface12CMD_DATATYPEEiibSt6vectorIS5_SaIS5_EEEEC1ERS6_SD_RKS8_RKiSH_RKbRKSB_>
1000162e:	a8f7      	add	r0, sp, #988	; 0x3dc
10001630:	f7fe ffd9 	bl	100005e6 <_ZNSt6vectorINSt7__cxx1112basic_stringIcSt11char_traitsIcESaIcEEESaIS5_EED1Ev>
10001634:	a8ec      	add	r0, sp, #944	; 0x3b0
10001636:	f020 f9df 	bl	100219f8 <_ZNSt7__cxx1112basic_stringIcSt11char_traitsIcESaIcEE10_M_disposeEv>
1000163a:	a8e5      	add	r0, sp, #916	; 0x394
1000163c:	f020 f9dc 	bl	100219f8 <_ZNSt7__cxx1112basic_stringIcSt11char_traitsIcESaIcEE10_M_disposeEv>
10001640:	aaff      	add	r2, sp, #1020	; 0x3fc
10001642:	3204      	adds	r2, #4
10001644:	497d      	ldr	r1, [pc, #500]	; (1000183c <_Z41__static_initialization_and_destruction_0ii+0x840>)
10001646:	a8fa      	add	r0, sp, #1000	; 0x3e8
10001648:	f7ff f824 	bl	10000694 <_ZNSt7__cxx1112basic_stringIcSt11char_traitsIcESaIcEEC1IS3_EEPKcRKS3_>
1000164c:	e001      	b.n	10001652 <_Z41__static_initialization_and_destruction_0ii+0x656>
1000164e:	2706      	movs	r7, #6
10001650:	e578      	b.n	10001144 <_Z41__static_initialization_and_destruction_0ii+0x148>
10001652:	aaff      	add	r2, sp, #1020	; 0x3fc
10001654:	3220      	adds	r2, #32
10001656:	497a      	ldr	r1, [pc, #488]	; (10001840 <_Z41__static_initialization_and_destruction_0ii+0x844>)
10001658:	a8ff      	add	r0, sp, #1020	; 0x3fc
1000165a:	3008      	adds	r0, #8
1000165c:	f7ff f81a 	bl	10000694 <_ZNSt7__cxx1112basic_stringIcSt11char_traitsIcESaIcEEC1IS3_EEPKcRKS3_>
10001660:	2302      	movs	r3, #2
10001662:	aaff      	add	r2, sp, #1020	; 0x3fc
10001664:	3224      	adds	r2, #36	; 0x24
10001666:	6013      	str	r3, [r2, #0]
10001668:	3b03      	subs	r3, #3
1000166a:	aaff      	add	r2, sp, #1020	; 0x3fc
1000166c:	3228      	adds	r2, #40	; 0x28
1000166e:	6013      	str	r3, [r2, #0]
10001670:	aaff      	add	r2, sp, #1020	; 0x3fc
10001672:	322c      	adds	r2, #44	; 0x2c
10001674:	6013      	str	r3, [r2, #0]
10001676:	abff      	add	r3, sp, #1020	; 0x3fc
10001678:	3333      	adds	r3, #51	; 0x33
1000167a:	2201      	movs	r2, #1
1000167c:	701a      	strb	r2, [r3, #0]
1000167e:	320b      	adds	r2, #11
10001680:	2100      	movs	r1, #0
10001682:	a8ff      	add	r0, sp, #1020	; 0x3fc
10001684:	3034      	adds	r0, #52	; 0x34
10001686:	f01a fcdd 	bl	1001c044 <__wrap_memset>
1000168a:	2300      	movs	r3, #0
1000168c:	aaff      	add	r2, sp, #1020	; 0x3fc
1000168e:	3234      	adds	r2, #52	; 0x34
10001690:	6013      	str	r3, [r2, #0]
10001692:	aaff      	add	r2, sp, #1020	; 0x3fc
10001694:	3238      	adds	r2, #56	; 0x38
10001696:	6013      	str	r3, [r2, #0]
10001698:	aaff      	add	r2, sp, #1020	; 0x3fc
1000169a:	323c      	adds	r2, #60	; 0x3c
1000169c:	6013      	str	r3, [r2, #0]
1000169e:	abff      	add	r3, sp, #1020	; 0x3fc
100016a0:	3334      	adds	r3, #52	; 0x34
100016a2:	9303      	str	r3, [sp, #12]
100016a4:	abff      	add	r3, sp, #1020	; 0x3fc
100016a6:	3333      	adds	r3, #51	; 0x33
100016a8:	9302      	str	r3, [sp, #8]
100016aa:	abff      	add	r3, sp, #1020	; 0x3fc
100016ac:	332c      	adds	r3, #44	; 0x2c
100016ae:	9301      	str	r3, [sp, #4]
100016b0:	abff      	add	r3, sp, #1020	; 0x3fc
100016b2:	3328      	adds	r3, #40	; 0x28
100016b4:	9300      	str	r3, [sp, #0]
100016b6:	abff      	add	r3, sp, #1020	; 0x3fc
100016b8:	3324      	adds	r3, #36	; 0x24
100016ba:	aaff      	add	r2, sp, #1020	; 0x3fc
100016bc:	3208      	adds	r2, #8
100016be:	a9fa      	add	r1, sp, #1000	; 0x3e8
100016c0:	4860      	ldr	r0, [pc, #384]	; (10001844 <_Z41__static_initialization_and_destruction_0ii+0x848>)
100016c2:	f7ff f983 	bl	100009cc <_ZNSt11_Tuple_implILj0EJKNSt7__cxx1112basic_stringIcSt11char_traitsIcESaIcEEES6_N14wifi_interface12CMD_DATATYPEEiibSt6vectorIS5_SaIS5_EEEEC1ERS6_SD_RKS8_RKiSH_RKbRKSB_>
100016c6:	a8ff      	add	r0, sp, #1020	; 0x3fc
100016c8:	3034      	adds	r0, #52	; 0x34
100016ca:	f7fe ff8c 	bl	100005e6 <_ZNSt6vectorINSt7__cxx1112basic_stringIcSt11char_traitsIcESaIcEEESaIS5_EED1Ev>
100016ce:	a8ff      	add	r0, sp, #1020	; 0x3fc
100016d0:	3008      	adds	r0, #8
100016d2:	f020 f991 	bl	100219f8 <_ZNSt7__cxx1112basic_stringIcSt11char_traitsIcESaIcEE10_M_disposeEv>
100016d6:	a8fa      	add	r0, sp, #1000	; 0x3e8
100016d8:	f020 f98e 	bl	100219f8 <_ZNSt7__cxx1112basic_stringIcSt11char_traitsIcESaIcEE10_M_disposeEv>
100016dc:	aaff      	add	r2, sp, #1020	; 0x3fc
100016de:	3258      	adds	r2, #88	; 0x58
100016e0:	4959      	ldr	r1, [pc, #356]	; (10001848 <_Z41__static_initialization_and_destruction_0ii+0x84c>)
100016e2:	a8ff      	add	r0, sp, #1020	; 0x3fc
100016e4:	3040      	adds	r0, #64	; 0x40
100016e6:	f7fe ffd5 	bl	10000694 <_ZNSt7__cxx1112basic_stringIcSt11char_traitsIcESaIcEEC1IS3_EEPKcRKS3_>
100016ea:	e001      	b.n	100016f0 <_Z41__static_initialization_and_destruction_0ii+0x6f4>
100016ec:	2705      	movs	r7, #5
100016ee:	e529      	b.n	10001144 <_Z41__static_initialization_and_destruction_0ii+0x148>
100016f0:	aaff      	add	r2, sp, #1020	; 0x3fc
100016f2:	3274      	adds	r2, #116	; 0x74
100016f4:	4955      	ldr	r1, [pc, #340]	; (1000184c <_Z41__static_initialization_and_destruction_0ii+0x850>)
100016f6:	a8ff      	add	r0, sp, #1020	; 0x3fc
100016f8:	305c      	adds	r0, #92	; 0x5c
100016fa:	f7fe ffcb 	bl	10000694 <_ZNSt7__cxx1112basic_stringIcSt11char_traitsIcESaIcEEC1IS3_EEPKcRKS3_>
100016fe:	2304      	movs	r3, #4
10001700:	aaff      	add	r2, sp, #1020	; 0x3fc
10001702:	3278      	adds	r2, #120	; 0x78
10001704:	6013      	str	r3, [r2, #0]
10001706:	2300      	movs	r3, #0
10001708:	aaff      	add	r2, sp, #1020	; 0x3fc
1000170a:	327c      	adds	r2, #124	; 0x7c
1000170c:	6013      	str	r3, [r2, #0]
1000170e:	3303      	adds	r3, #3
10001710:	aaff      	add	r2, sp, #1020	; 0x3fc
10001712:	3280      	adds	r2, #128	; 0x80
10001714:	6013      	str	r3, [r2, #0]
10001716:	abff      	add	r3, sp, #1020	; 0x3fc
10001718:	3387      	adds	r3, #135	; 0x87
1000171a:	2201      	movs	r2, #1
1000171c:	701a      	strb	r2, [r3, #0]
1000171e:	aaff      	add	r2, sp, #1020	; 0x3fc
10001720:	329c      	adds	r2, #156	; 0x9c
10001722:	494b      	ldr	r1, [pc, #300]	; (10001850 <_Z41__static_initialization_and_destruction_0ii+0x854>)
10001724:	a80a      	add	r0, sp, #40	; 0x28
10001726:	f7fe ffb5 	bl	10000694 <_ZNSt7__cxx1112basic_stringIcSt11char_traitsIcESaIcEEC1IS3_EEPKcRKS3_>
1000172a:	aaff      	add	r2, sp, #1020	; 0x3fc
1000172c:	32a0      	adds	r2, #160	; 0xa0
1000172e:	4949      	ldr	r1, [pc, #292]	; (10001854 <_Z41__static_initialization_and_destruction_0ii+0x858>)
10001730:	a810      	add	r0, sp, #64	; 0x40
10001732:	f7fe ffaf 	bl	10000694 <_ZNSt7__cxx1112basic_stringIcSt11char_traitsIcESaIcEEC1IS3_EEPKcRKS3_>
10001736:	aaff      	add	r2, sp, #1020	; 0x3fc
10001738:	32a4      	adds	r2, #164	; 0xa4
1000173a:	4947      	ldr	r1, [pc, #284]	; (10001858 <_Z41__static_initialization_and_destruction_0ii+0x85c>)
1000173c:	a816      	add	r0, sp, #88	; 0x58
1000173e:	f7fe ffa9 	bl	10000694 <_ZNSt7__cxx1112basic_stringIcSt11char_traitsIcESaIcEEC1IS3_EEPKcRKS3_>
10001742:	aaff      	add	r2, sp, #1020	; 0x3fc
10001744:	32a8      	adds	r2, #168	; 0xa8
10001746:	4945      	ldr	r1, [pc, #276]	; (1000185c <_Z41__static_initialization_and_destruction_0ii+0x860>)
10001748:	a81c      	add	r0, sp, #112	; 0x70
1000174a:	f7fe ffa3 	bl	10000694 <_ZNSt7__cxx1112basic_stringIcSt11char_traitsIcESaIcEEC1IS3_EEPKcRKS3_>
1000174e:	a90a      	add	r1, sp, #40	; 0x28
10001750:	abff      	add	r3, sp, #1020	; 0x3fc
10001752:	3394      	adds	r3, #148	; 0x94
10001754:	6019      	str	r1, [r3, #0]
10001756:	2204      	movs	r2, #4
10001758:	abff      	add	r3, sp, #1020	; 0x3fc
1000175a:	3398      	adds	r3, #152	; 0x98
1000175c:	601a      	str	r2, [r3, #0]
1000175e:	abff      	add	r3, sp, #1020	; 0x3fc
10001760:	33ac      	adds	r3, #172	; 0xac
10001762:	a8ff      	add	r0, sp, #1020	; 0x3fc
10001764:	3088      	adds	r0, #136	; 0x88
10001766:	f7ff f8c7 	bl	100008f8 <_ZNSt6vectorINSt7__cxx1112basic_stringIcSt11char_traitsIcESaIcEEESaIS5_EEC1ESt16initializer_listIS5_ERKS6_>
1000176a:	e009      	b.n	10001780 <_Z41__static_initialization_and_destruction_0ii+0x784>
1000176c:	ac22      	add	r4, sp, #136	; 0x88
1000176e:	ab0a      	add	r3, sp, #40	; 0x28
10001770:	429c      	cmp	r4, r3
10001772:	d100      	bne.n	10001776 <_Z41__static_initialization_and_destruction_0ii+0x77a>
10001774:	e3e7      	b.n	10001f46 <_Z41__static_initialization_and_destruction_0ii+0xf4a>
10001776:	3c18      	subs	r4, #24
10001778:	0020      	movs	r0, r4
1000177a:	f020 f93d 	bl	100219f8 <_ZNSt7__cxx1112basic_stringIcSt11char_traitsIcESaIcEE10_M_disposeEv>
1000177e:	e7f6      	b.n	1000176e <_Z41__static_initialization_and_destruction_0ii+0x772>
10001780:	abff      	add	r3, sp, #1020	; 0x3fc
10001782:	3388      	adds	r3, #136	; 0x88
10001784:	9303      	str	r3, [sp, #12]
10001786:	abff      	add	r3, sp, #1020	; 0x3fc
10001788:	3387      	adds	r3, #135	; 0x87
1000178a:	9302      	str	r3, [sp, #8]
1000178c:	abff      	add	r3, sp, #1020	; 0x3fc
1000178e:	3380      	adds	r3, #128	; 0x80
10001790:	9301      	str	r3, [sp, #4]
10001792:	abff      	add	r3, sp, #1020	; 0x3fc
10001794:	337c      	adds	r3, #124	; 0x7c
10001796:	9300      	str	r3, [sp, #0]
10001798:	abff      	add	r3, sp, #1020	; 0x3fc
1000179a:	3378      	adds	r3, #120	; 0x78
1000179c:	aaff      	add	r2, sp, #1020	; 0x3fc
1000179e:	325c      	adds	r2, #92	; 0x5c
100017a0:	a9ff      	add	r1, sp, #1020	; 0x3fc
100017a2:	3140      	adds	r1, #64	; 0x40
100017a4:	482e      	ldr	r0, [pc, #184]	; (10001860 <_Z41__static_initialization_and_destruction_0ii+0x864>)
100017a6:	f7ff f911 	bl	100009cc <_ZNSt11_Tuple_implILj0EJKNSt7__cxx1112basic_stringIcSt11char_traitsIcESaIcEEES6_N14wifi_interface12CMD_DATATYPEEiibSt6vectorIS5_SaIS5_EEEEC1ERS6_SD_RKS8_RKiSH_RKbRKSB_>
100017aa:	a8ff      	add	r0, sp, #1020	; 0x3fc
100017ac:	3088      	adds	r0, #136	; 0x88
100017ae:	f7fe ff1a 	bl	100005e6 <_ZNSt6vectorINSt7__cxx1112basic_stringIcSt11char_traitsIcESaIcEEESaIS5_EED1Ev>
100017b2:	ae22      	add	r6, sp, #136	; 0x88
100017b4:	ab0a      	add	r3, sp, #40	; 0x28
100017b6:	429e      	cmp	r6, r3
100017b8:	d004      	beq.n	100017c4 <_Z41__static_initialization_and_destruction_0ii+0x7c8>
100017ba:	3e18      	subs	r6, #24
100017bc:	0030      	movs	r0, r6
100017be:	f020 f91b 	bl	100219f8 <_ZNSt7__cxx1112basic_stringIcSt11char_traitsIcESaIcEE10_M_disposeEv>
100017c2:	e7f7      	b.n	100017b4 <_Z41__static_initialization_and_destruction_0ii+0x7b8>
100017c4:	a8ff      	add	r0, sp, #1020	; 0x3fc
100017c6:	305c      	adds	r0, #92	; 0x5c
100017c8:	f020 f916 	bl	100219f8 <_ZNSt7__cxx1112basic_stringIcSt11char_traitsIcESaIcEE10_M_disposeEv>
100017cc:	a8ff      	add	r0, sp, #1020	; 0x3fc
100017ce:	3040      	adds	r0, #64	; 0x40
100017d0:	f020 f912 	bl	100219f8 <_ZNSt7__cxx1112basic_stringIcSt11char_traitsIcESaIcEE10_M_disposeEv>
100017d4:	aaff      	add	r2, sp, #1020	; 0x3fc
100017d6:	32c8      	adds	r2, #200	; 0xc8
100017d8:	4922      	ldr	r1, [pc, #136]	; (10001864 <_Z41__static_initialization_and_destruction_0ii+0x868>)
100017da:	a8ff      	add	r0, sp, #1020	; 0x3fc
100017dc:	30b0      	adds	r0, #176	; 0xb0
100017de:	f7fe ff59 	bl	10000694 <_ZNSt7__cxx1112basic_stringIcSt11char_traitsIcESaIcEEC1IS3_EEPKcRKS3_>
100017e2:	e041      	b.n	10001868 <_Z41__static_initialization_and_destruction_0ii+0x86c>
100017e4:	2704      	movs	r7, #4
100017e6:	e4ad      	b.n	10001144 <_Z41__static_initialization_and_destruction_0ii+0x148>
100017e8:	1002aeec 	.word	0x1002aeec
100017ec:	000002bb 	.word	0x000002bb
100017f0:	1002ae8c 	.word	0x1002ae8c
100017f4:	1002ae94 	.word	0x1002ae94
100017f8:	1002ae9c 	.word	0x1002ae9c
100017fc:	1002aea4 	.word	0x1002aea4
10001800:	1002aeac 	.word	0x1002aeac
10001804:	1002aeb4 	.word	0x1002aeb4
10001808:	20002220 	.word	0x20002220
1000180c:	1002aefc 	.word	0x1002aefc
10001810:	1002af00 	.word	0x1002af00
10001814:	00000333 	.word	0x00000333
10001818:	2000226c 	.word	0x2000226c
1000181c:	1002af10 	.word	0x1002af10
10001820:	1002af14 	.word	0x1002af14
10001824:	00000387 	.word	0x00000387
10001828:	200022b8 	.word	0x200022b8
1000182c:	1002af28 	.word	0x1002af28
10001830:	1002c1c4 	.word	0x1002c1c4
10001834:	000003db 	.word	0x000003db
10001838:	20002304 	.word	0x20002304
1000183c:	1002af2c 	.word	0x1002af2c
10001840:	1002af30 	.word	0x1002af30
10001844:	20002350 	.word	0x20002350
10001848:	1002af40 	.word	0x1002af40
1000184c:	1002af44 	.word	0x1002af44
10001850:	1002af50 	.word	0x1002af50
10001854:	1002af64 	.word	0x1002af64
10001858:	1002af74 	.word	0x1002af74
1000185c:	1002af80 	.word	0x1002af80
10001860:	2000239c 	.word	0x2000239c
10001864:	1002af8c 	.word	0x1002af8c
10001868:	aaff      	add	r2, sp, #1020	; 0x3fc
1000186a:	32e4      	adds	r2, #228	; 0xe4
1000186c:	49f6      	ldr	r1, [pc, #984]	; (10001c48 <_Z41__static_initialization_and_destruction_0ii+0xc4c>)
1000186e:	a8ff      	add	r0, sp, #1020	; 0x3fc
10001870:	30cc      	adds	r0, #204	; 0xcc
10001872:	f7fe ff0f 	bl	10000694 <_ZNSt7__cxx1112basic_stringIcSt11char_traitsIcESaIcEEC1IS3_EEPKcRKS3_>
10001876:	2302      	movs	r3, #2
10001878:	aaff      	add	r2, sp, #1020	; 0x3fc
1000187a:	32e8      	adds	r2, #232	; 0xe8
1000187c:	6013      	str	r3, [r2, #0]
1000187e:	3b03      	subs	r3, #3
10001880:	aaff      	add	r2, sp, #1020	; 0x3fc
10001882:	32ec      	adds	r2, #236	; 0xec
10001884:	6013      	str	r3, [r2, #0]
10001886:	aaff      	add	r2, sp, #1020	; 0x3fc
10001888:	32f0      	adds	r2, #240	; 0xf0
1000188a:	6013      	str	r3, [r2, #0]
1000188c:	abff      	add	r3, sp, #1020	; 0x3fc
1000188e:	33f7      	adds	r3, #247	; 0xf7
10001890:	2201      	movs	r2, #1
10001892:	701a      	strb	r2, [r3, #0]
10001894:	320b      	adds	r2, #11
10001896:	2100      	movs	r1, #0
10001898:	a8ff      	add	r0, sp, #1020	; 0x3fc
1000189a:	30f8      	adds	r0, #248	; 0xf8
1000189c:	f01a fbd2 	bl	1001c044 <__wrap_memset>
100018a0:	2300      	movs	r3, #0
100018a2:	aaff      	add	r2, sp, #1020	; 0x3fc
100018a4:	32f8      	adds	r2, #248	; 0xf8
100018a6:	6013      	str	r3, [r2, #0]
100018a8:	aaff      	add	r2, sp, #1020	; 0x3fc
100018aa:	32fc      	adds	r2, #252	; 0xfc
100018ac:	6013      	str	r3, [r2, #0]
100018ae:	4ae7      	ldr	r2, [pc, #924]	; (10001c4c <_Z41__static_initialization_and_destruction_0ii+0xc50>)
100018b0:	446a      	add	r2, sp
100018b2:	6013      	str	r3, [r2, #0]
100018b4:	abff      	add	r3, sp, #1020	; 0x3fc
100018b6:	33f8      	adds	r3, #248	; 0xf8
100018b8:	9303      	str	r3, [sp, #12]
100018ba:	abff      	add	r3, sp, #1020	; 0x3fc
100018bc:	33f7      	adds	r3, #247	; 0xf7
100018be:	9302      	str	r3, [sp, #8]
100018c0:	abff      	add	r3, sp, #1020	; 0x3fc
100018c2:	33f0      	adds	r3, #240	; 0xf0
100018c4:	9301      	str	r3, [sp, #4]
100018c6:	abff      	add	r3, sp, #1020	; 0x3fc
100018c8:	33ec      	adds	r3, #236	; 0xec
100018ca:	9300      	str	r3, [sp, #0]
100018cc:	abff      	add	r3, sp, #1020	; 0x3fc
100018ce:	33e8      	adds	r3, #232	; 0xe8
100018d0:	aaff      	add	r2, sp, #1020	; 0x3fc
100018d2:	32cc      	adds	r2, #204	; 0xcc
100018d4:	a9ff      	add	r1, sp, #1020	; 0x3fc
100018d6:	31b0      	adds	r1, #176	; 0xb0
100018d8:	48dd      	ldr	r0, [pc, #884]	; (10001c50 <_Z41__static_initialization_and_destruction_0ii+0xc54>)
100018da:	f7ff f877 	bl	100009cc <_ZNSt11_Tuple_implILj0EJKNSt7__cxx1112basic_stringIcSt11char_traitsIcESaIcEEES6_N14wifi_interface12CMD_DATATYPEEiibSt6vectorIS5_SaIS5_EEEEC1ERS6_SD_RKS8_RKiSH_RKbRKSB_>
100018de:	a8ff      	add	r0, sp, #1020	; 0x3fc
100018e0:	30f8      	adds	r0, #248	; 0xf8
100018e2:	f7fe fe80 	bl	100005e6 <_ZNSt6vectorINSt7__cxx1112basic_stringIcSt11char_traitsIcESaIcEEESaIS5_EED1Ev>
100018e6:	a8ff      	add	r0, sp, #1020	; 0x3fc
100018e8:	30cc      	adds	r0, #204	; 0xcc
100018ea:	f020 f885 	bl	100219f8 <_ZNSt7__cxx1112basic_stringIcSt11char_traitsIcESaIcEE10_M_disposeEv>
100018ee:	a8ff      	add	r0, sp, #1020	; 0x3fc
100018f0:	30b0      	adds	r0, #176	; 0xb0
100018f2:	f020 f881 	bl	100219f8 <_ZNSt7__cxx1112basic_stringIcSt11char_traitsIcESaIcEE10_M_disposeEv>
100018f6:	22a3      	movs	r2, #163	; 0xa3
100018f8:	00d2      	lsls	r2, r2, #3
100018fa:	446a      	add	r2, sp
100018fc:	49d5      	ldr	r1, [pc, #852]	; (10001c54 <_Z41__static_initialization_and_destruction_0ii+0xc58>)
100018fe:	20a0      	movs	r0, #160	; 0xa0
10001900:	00c0      	lsls	r0, r0, #3
10001902:	4468      	add	r0, sp
10001904:	f7fe fec6 	bl	10000694 <_ZNSt7__cxx1112basic_stringIcSt11char_traitsIcESaIcEEC1IS3_EEPKcRKS3_>
10001908:	e001      	b.n	1000190e <_Z41__static_initialization_and_destruction_0ii+0x912>
1000190a:	2703      	movs	r7, #3
1000190c:	e41a      	b.n	10001144 <_Z41__static_initialization_and_destruction_0ii+0x148>
1000190e:	4ad2      	ldr	r2, [pc, #840]	; (10001c58 <_Z41__static_initialization_and_destruction_0ii+0xc5c>)
10001910:	446a      	add	r2, sp
10001912:	49d2      	ldr	r1, [pc, #840]	; (10001c5c <_Z41__static_initialization_and_destruction_0ii+0xc60>)
10001914:	48d2      	ldr	r0, [pc, #840]	; (10001c60 <_Z41__static_initialization_and_destruction_0ii+0xc64>)
10001916:	4468      	add	r0, sp
10001918:	f7fe febc 	bl	10000694 <_ZNSt7__cxx1112basic_stringIcSt11char_traitsIcESaIcEEC1IS3_EEPKcRKS3_>
1000191c:	2301      	movs	r3, #1
1000191e:	22a7      	movs	r2, #167	; 0xa7
10001920:	00d2      	lsls	r2, r2, #3
10001922:	446a      	add	r2, sp
10001924:	6013      	str	r3, [r2, #0]
10001926:	2600      	movs	r6, #0
10001928:	4ace      	ldr	r2, [pc, #824]	; (10001c64 <_Z41__static_initialization_and_destruction_0ii+0xc68>)
1000192a:	446a      	add	r2, sp
1000192c:	6016      	str	r6, [r2, #0]
1000192e:	2264      	movs	r2, #100	; 0x64
10001930:	21a8      	movs	r1, #168	; 0xa8
10001932:	00c9      	lsls	r1, r1, #3
10001934:	4469      	add	r1, sp
10001936:	600a      	str	r2, [r1, #0]
10001938:	4acb      	ldr	r2, [pc, #812]	; (10001c68 <_Z41__static_initialization_and_destruction_0ii+0xc6c>)
1000193a:	446a      	add	r2, sp
1000193c:	7013      	strb	r3, [r2, #0]
1000193e:	220c      	movs	r2, #12
10001940:	0031      	movs	r1, r6
10001942:	23a9      	movs	r3, #169	; 0xa9
10001944:	00db      	lsls	r3, r3, #3
10001946:	446b      	add	r3, sp
10001948:	0018      	movs	r0, r3
1000194a:	f01a fb7b 	bl	1001c044 <__wrap_memset>
1000194e:	23a9      	movs	r3, #169	; 0xa9
10001950:	00db      	lsls	r3, r3, #3
10001952:	446b      	add	r3, sp
10001954:	601e      	str	r6, [r3, #0]
10001956:	4bc5      	ldr	r3, [pc, #788]	; (10001c6c <_Z41__static_initialization_and_destruction_0ii+0xc70>)
10001958:	446b      	add	r3, sp
1000195a:	601e      	str	r6, [r3, #0]
1000195c:	23aa      	movs	r3, #170	; 0xaa
1000195e:	00db      	lsls	r3, r3, #3
10001960:	446b      	add	r3, sp
10001962:	601e      	str	r6, [r3, #0]
10001964:	23a9      	movs	r3, #169	; 0xa9
10001966:	00db      	lsls	r3, r3, #3
10001968:	446b      	add	r3, sp
1000196a:	9303      	str	r3, [sp, #12]
1000196c:	4bbe      	ldr	r3, [pc, #760]	; (10001c68 <_Z41__static_initialization_and_destruction_0ii+0xc6c>)
1000196e:	446b      	add	r3, sp
10001970:	9302      	str	r3, [sp, #8]
10001972:	23a8      	movs	r3, #168	; 0xa8
10001974:	00db      	lsls	r3, r3, #3
10001976:	446b      	add	r3, sp
10001978:	9301      	str	r3, [sp, #4]
1000197a:	4bba      	ldr	r3, [pc, #744]	; (10001c64 <_Z41__static_initialization_and_destruction_0ii+0xc68>)
1000197c:	446b      	add	r3, sp
1000197e:	9300      	str	r3, [sp, #0]
10001980:	23a7      	movs	r3, #167	; 0xa7
10001982:	00db      	lsls	r3, r3, #3
10001984:	446b      	add	r3, sp
10001986:	4ab6      	ldr	r2, [pc, #728]	; (10001c60 <_Z41__static_initialization_and_destruction_0ii+0xc64>)
10001988:	446a      	add	r2, sp
1000198a:	21a0      	movs	r1, #160	; 0xa0
1000198c:	00c9      	lsls	r1, r1, #3
1000198e:	4469      	add	r1, sp
10001990:	48b7      	ldr	r0, [pc, #732]	; (10001c70 <_Z41__static_initialization_and_destruction_0ii+0xc74>)
10001992:	f7ff f81b 	bl	100009cc <_ZNSt11_Tuple_implILj0EJKNSt7__cxx1112basic_stringIcSt11char_traitsIcESaIcEEES6_N14wifi_interface12CMD_DATATYPEEiibSt6vectorIS5_SaIS5_EEEEC1ERS6_SD_RKS8_RKiSH_RKbRKSB_>
10001996:	20a9      	movs	r0, #169	; 0xa9
10001998:	00c0      	lsls	r0, r0, #3
1000199a:	4468      	add	r0, sp
1000199c:	f7fe fe23 	bl	100005e6 <_ZNSt6vectorINSt7__cxx1112basic_stringIcSt11char_traitsIcESaIcEEESaIS5_EED1Ev>
100019a0:	48af      	ldr	r0, [pc, #700]	; (10001c60 <_Z41__static_initialization_and_destruction_0ii+0xc64>)
100019a2:	4468      	add	r0, sp
100019a4:	f020 f828 	bl	100219f8 <_ZNSt7__cxx1112basic_stringIcSt11char_traitsIcESaIcEE10_M_disposeEv>
100019a8:	20a0      	movs	r0, #160	; 0xa0
100019aa:	00c0      	lsls	r0, r0, #3
100019ac:	4468      	add	r0, sp
100019ae:	f020 f823 	bl	100219f8 <_ZNSt7__cxx1112basic_stringIcSt11char_traitsIcESaIcEE10_M_disposeEv>
100019b2:	4ab0      	ldr	r2, [pc, #704]	; (10001c74 <_Z41__static_initialization_and_destruction_0ii+0xc78>)
100019b4:	446a      	add	r2, sp
100019b6:	49b0      	ldr	r1, [pc, #704]	; (10001c78 <_Z41__static_initialization_and_destruction_0ii+0xc7c>)
100019b8:	48b0      	ldr	r0, [pc, #704]	; (10001c7c <_Z41__static_initialization_and_destruction_0ii+0xc80>)
100019ba:	4468      	add	r0, sp
100019bc:	f7fe fe6a 	bl	10000694 <_ZNSt7__cxx1112basic_stringIcSt11char_traitsIcESaIcEEC1IS3_EEPKcRKS3_>
100019c0:	e002      	b.n	100019c8 <_Z41__static_initialization_and_destruction_0ii+0x9cc>
100019c2:	2702      	movs	r7, #2
100019c4:	f7ff fbbe 	bl	10001144 <_Z41__static_initialization_and_destruction_0ii+0x148>
100019c8:	22b1      	movs	r2, #177	; 0xb1
100019ca:	00d2      	lsls	r2, r2, #3
100019cc:	446a      	add	r2, sp
100019ce:	49ac      	ldr	r1, [pc, #688]	; (10001c80 <_Z41__static_initialization_and_destruction_0ii+0xc84>)
100019d0:	20ae      	movs	r0, #174	; 0xae
100019d2:	00c0      	lsls	r0, r0, #3
100019d4:	4468      	add	r0, sp
100019d6:	f7fe fe5d 	bl	10000694 <_ZNSt7__cxx1112basic_stringIcSt11char_traitsIcESaIcEEC1IS3_EEPKcRKS3_>
100019da:	2302      	movs	r3, #2
100019dc:	4aa9      	ldr	r2, [pc, #676]	; (10001c84 <_Z41__static_initialization_and_destruction_0ii+0xc88>)
100019de:	446a      	add	r2, sp
100019e0:	6013      	str	r3, [r2, #0]
100019e2:	3b03      	subs	r3, #3
100019e4:	22b2      	movs	r2, #178	; 0xb2
100019e6:	00d2      	lsls	r2, r2, #3
100019e8:	446a      	add	r2, sp
100019ea:	6013      	str	r3, [r2, #0]
100019ec:	4aa6      	ldr	r2, [pc, #664]	; (10001c88 <_Z41__static_initialization_and_destruction_0ii+0xc8c>)
100019ee:	446a      	add	r2, sp
100019f0:	6013      	str	r3, [r2, #0]
100019f2:	4ba6      	ldr	r3, [pc, #664]	; (10001c8c <_Z41__static_initialization_and_destruction_0ii+0xc90>)
100019f4:	446b      	add	r3, sp
100019f6:	2201      	movs	r2, #1
100019f8:	701a      	strb	r2, [r3, #0]
100019fa:	320b      	adds	r2, #11
100019fc:	2100      	movs	r1, #0
100019fe:	4ba4      	ldr	r3, [pc, #656]	; (10001c90 <_Z41__static_initialization_and_destruction_0ii+0xc94>)
10001a00:	446b      	add	r3, sp
10001a02:	0018      	movs	r0, r3
10001a04:	f01a fb1e 	bl	1001c044 <__wrap_memset>
10001a08:	2300      	movs	r3, #0
10001a0a:	4aa1      	ldr	r2, [pc, #644]	; (10001c90 <_Z41__static_initialization_and_destruction_0ii+0xc94>)
10001a0c:	446a      	add	r2, sp
10001a0e:	6013      	str	r3, [r2, #0]
10001a10:	22b4      	movs	r2, #180	; 0xb4
10001a12:	00d2      	lsls	r2, r2, #3
10001a14:	446a      	add	r2, sp
10001a16:	6013      	str	r3, [r2, #0]
10001a18:	4a9e      	ldr	r2, [pc, #632]	; (10001c94 <_Z41__static_initialization_and_destruction_0ii+0xc98>)
10001a1a:	446a      	add	r2, sp
10001a1c:	6013      	str	r3, [r2, #0]
10001a1e:	4b9c      	ldr	r3, [pc, #624]	; (10001c90 <_Z41__static_initialization_and_destruction_0ii+0xc94>)
10001a20:	446b      	add	r3, sp
10001a22:	9303      	str	r3, [sp, #12]
10001a24:	4b99      	ldr	r3, [pc, #612]	; (10001c8c <_Z41__static_initialization_and_destruction_0ii+0xc90>)
10001a26:	446b      	add	r3, sp
10001a28:	9302      	str	r3, [sp, #8]
10001a2a:	4b97      	ldr	r3, [pc, #604]	; (10001c88 <_Z41__static_initialization_and_destruction_0ii+0xc8c>)
10001a2c:	446b      	add	r3, sp
10001a2e:	9301      	str	r3, [sp, #4]
10001a30:	23b2      	movs	r3, #178	; 0xb2
10001a32:	00db      	lsls	r3, r3, #3
10001a34:	446b      	add	r3, sp
10001a36:	9300      	str	r3, [sp, #0]
10001a38:	4b92      	ldr	r3, [pc, #584]	; (10001c84 <_Z41__static_initialization_and_destruction_0ii+0xc88>)
10001a3a:	446b      	add	r3, sp
10001a3c:	22ae      	movs	r2, #174	; 0xae
10001a3e:	00d2      	lsls	r2, r2, #3
10001a40:	446a      	add	r2, sp
10001a42:	498e      	ldr	r1, [pc, #568]	; (10001c7c <_Z41__static_initialization_and_destruction_0ii+0xc80>)
10001a44:	4469      	add	r1, sp
10001a46:	4894      	ldr	r0, [pc, #592]	; (10001c98 <_Z41__static_initialization_and_destruction_0ii+0xc9c>)
10001a48:	f7fe ffc0 	bl	100009cc <_ZNSt11_Tuple_implILj0EJKNSt7__cxx1112basic_stringIcSt11char_traitsIcESaIcEEES6_N14wifi_interface12CMD_DATATYPEEiibSt6vectorIS5_SaIS5_EEEEC1ERS6_SD_RKS8_RKiSH_RKbRKSB_>
10001a4c:	4890      	ldr	r0, [pc, #576]	; (10001c90 <_Z41__static_initialization_and_destruction_0ii+0xc94>)
10001a4e:	4468      	add	r0, sp
10001a50:	f7fe fdc9 	bl	100005e6 <_ZNSt6vectorINSt7__cxx1112basic_stringIcSt11char_traitsIcESaIcEEESaIS5_EED1Ev>
10001a54:	20ae      	movs	r0, #174	; 0xae
10001a56:	00c0      	lsls	r0, r0, #3
10001a58:	4468      	add	r0, sp
10001a5a:	f01f ffcd 	bl	100219f8 <_ZNSt7__cxx1112basic_stringIcSt11char_traitsIcESaIcEE10_M_disposeEv>
10001a5e:	4887      	ldr	r0, [pc, #540]	; (10001c7c <_Z41__static_initialization_and_destruction_0ii+0xc80>)
10001a60:	4468      	add	r0, sp
10001a62:	f01f ffc9 	bl	100219f8 <_ZNSt7__cxx1112basic_stringIcSt11char_traitsIcESaIcEE10_M_disposeEv>
10001a66:	22b8      	movs	r2, #184	; 0xb8
10001a68:	00d2      	lsls	r2, r2, #3
10001a6a:	446a      	add	r2, sp
10001a6c:	498b      	ldr	r1, [pc, #556]	; (10001c9c <_Z41__static_initialization_and_destruction_0ii+0xca0>)
10001a6e:	20b5      	movs	r0, #181	; 0xb5
10001a70:	00c0      	lsls	r0, r0, #3
10001a72:	4468      	add	r0, sp
10001a74:	f7fe fe0e 	bl	10000694 <_ZNSt7__cxx1112basic_stringIcSt11char_traitsIcESaIcEEC1IS3_EEPKcRKS3_>
10001a78:	4a89      	ldr	r2, [pc, #548]	; (10001ca0 <_Z41__static_initialization_and_destruction_0ii+0xca4>)
10001a7a:	446a      	add	r2, sp
10001a7c:	4989      	ldr	r1, [pc, #548]	; (10001ca4 <_Z41__static_initialization_and_destruction_0ii+0xca8>)
10001a7e:	488a      	ldr	r0, [pc, #552]	; (10001ca8 <_Z41__static_initialization_and_destruction_0ii+0xcac>)
10001a80:	4468      	add	r0, sp
10001a82:	f7fe fe07 	bl	10000694 <_ZNSt7__cxx1112basic_stringIcSt11char_traitsIcESaIcEEC1IS3_EEPKcRKS3_>
10001a86:	2300      	movs	r3, #0
10001a88:	4699      	mov	r9, r3
10001a8a:	23bc      	movs	r3, #188	; 0xbc
10001a8c:	00db      	lsls	r3, r3, #3
10001a8e:	446b      	add	r3, sp
10001a90:	464a      	mov	r2, r9
10001a92:	601a      	str	r2, [r3, #0]
10001a94:	2301      	movs	r3, #1
10001a96:	425b      	negs	r3, r3
10001a98:	4a84      	ldr	r2, [pc, #528]	; (10001cac <_Z41__static_initialization_and_destruction_0ii+0xcb0>)
10001a9a:	446a      	add	r2, sp
10001a9c:	6013      	str	r3, [r2, #0]
10001a9e:	22bd      	movs	r2, #189	; 0xbd
10001aa0:	00d2      	lsls	r2, r2, #3
10001aa2:	446a      	add	r2, sp
10001aa4:	6013      	str	r3, [r2, #0]
10001aa6:	466b      	mov	r3, sp
10001aa8:	4a81      	ldr	r2, [pc, #516]	; (10001cb0 <_Z41__static_initialization_and_destruction_0ii+0xcb4>)
10001aaa:	189b      	adds	r3, r3, r2
10001aac:	464a      	mov	r2, r9
10001aae:	701a      	strb	r2, [r3, #0]
10001ab0:	26be      	movs	r6, #190	; 0xbe
10001ab2:	00f6      	lsls	r6, r6, #3
10001ab4:	446e      	add	r6, sp
10001ab6:	320c      	adds	r2, #12
10001ab8:	4649      	mov	r1, r9
10001aba:	0030      	movs	r0, r6
10001abc:	f01a fac2 	bl	1001c044 <__wrap_memset>
10001ac0:	464a      	mov	r2, r9
10001ac2:	6032      	str	r2, [r6, #0]
10001ac4:	6072      	str	r2, [r6, #4]
10001ac6:	60b2      	str	r2, [r6, #8]
10001ac8:	9603      	str	r6, [sp, #12]
10001aca:	4b79      	ldr	r3, [pc, #484]	; (10001cb0 <_Z41__static_initialization_and_destruction_0ii+0xcb4>)
10001acc:	446b      	add	r3, sp
10001ace:	9302      	str	r3, [sp, #8]
10001ad0:	23bd      	movs	r3, #189	; 0xbd
10001ad2:	00db      	lsls	r3, r3, #3
10001ad4:	446b      	add	r3, sp
10001ad6:	9301      	str	r3, [sp, #4]
10001ad8:	4b74      	ldr	r3, [pc, #464]	; (10001cac <_Z41__static_initialization_and_destruction_0ii+0xcb0>)
10001ada:	446b      	add	r3, sp
10001adc:	9300      	str	r3, [sp, #0]
10001ade:	23bc      	movs	r3, #188	; 0xbc
10001ae0:	00db      	lsls	r3, r3, #3
10001ae2:	446b      	add	r3, sp
10001ae4:	4a70      	ldr	r2, [pc, #448]	; (10001ca8 <_Z41__static_initialization_and_destruction_0ii+0xcac>)
10001ae6:	446a      	add	r2, sp
10001ae8:	21b5      	movs	r1, #181	; 0xb5
10001aea:	00c9      	lsls	r1, r1, #3
10001aec:	4469      	add	r1, sp
10001aee:	4871      	ldr	r0, [pc, #452]	; (10001cb4 <_Z41__static_initialization_and_destruction_0ii+0xcb8>)
10001af0:	f7fe ff6c 	bl	100009cc <_ZNSt11_Tuple_implILj0EJKNSt7__cxx1112basic_stringIcSt11char_traitsIcESaIcEEES6_N14wifi_interface12CMD_DATATYPEEiibSt6vectorIS5_SaIS5_EEEEC1ERS6_SD_RKS8_RKiSH_RKbRKSB_>
10001af4:	0030      	movs	r0, r6
10001af6:	f7fe fd76 	bl	100005e6 <_ZNSt6vectorINSt7__cxx1112basic_stringIcSt11char_traitsIcESaIcEEESaIS5_EED1Ev>
10001afa:	486b      	ldr	r0, [pc, #428]	; (10001ca8 <_Z41__static_initialization_and_destruction_0ii+0xcac>)
10001afc:	4468      	add	r0, sp
10001afe:	f01f ff7b 	bl	100219f8 <_ZNSt7__cxx1112basic_stringIcSt11char_traitsIcESaIcEE10_M_disposeEv>
10001b02:	20b5      	movs	r0, #181	; 0xb5
10001b04:	00c0      	lsls	r0, r0, #3
10001b06:	4468      	add	r0, sp
10001b08:	f01f ff76 	bl	100219f8 <_ZNSt7__cxx1112basic_stringIcSt11char_traitsIcESaIcEE10_M_disposeEv>
10001b0c:	4a6a      	ldr	r2, [pc, #424]	; (10001cb8 <_Z41__static_initialization_and_destruction_0ii+0xcbc>)
10001b0e:	446a      	add	r2, sp
10001b10:	496a      	ldr	r1, [pc, #424]	; (10001cbc <_Z41__static_initialization_and_destruction_0ii+0xcc0>)
10001b12:	486b      	ldr	r0, [pc, #428]	; (10001cc0 <_Z41__static_initialization_and_destruction_0ii+0xcc4>)
10001b14:	4468      	add	r0, sp
10001b16:	f7fe fdbd 	bl	10000694 <_ZNSt7__cxx1112basic_stringIcSt11char_traitsIcESaIcEEC1IS3_EEPKcRKS3_>
10001b1a:	e002      	b.n	10001b22 <_Z41__static_initialization_and_destruction_0ii+0xb26>
10001b1c:	2700      	movs	r7, #0
10001b1e:	f7ff fb11 	bl	10001144 <_Z41__static_initialization_and_destruction_0ii+0x148>
10001b22:	22c6      	movs	r2, #198	; 0xc6
10001b24:	00d2      	lsls	r2, r2, #3
10001b26:	446a      	add	r2, sp
10001b28:	495e      	ldr	r1, [pc, #376]	; (10001ca4 <_Z41__static_initialization_and_destruction_0ii+0xca8>)
10001b2a:	20c3      	movs	r0, #195	; 0xc3
10001b2c:	00c0      	lsls	r0, r0, #3
10001b2e:	4468      	add	r0, sp
10001b30:	f7fe fdb0 	bl	10000694 <_ZNSt7__cxx1112basic_stringIcSt11char_traitsIcESaIcEEC1IS3_EEPKcRKS3_>
10001b34:	2305      	movs	r3, #5
10001b36:	4a63      	ldr	r2, [pc, #396]	; (10001cc4 <_Z41__static_initialization_and_destruction_0ii+0xcc8>)
10001b38:	446a      	add	r2, sp
10001b3a:	6013      	str	r3, [r2, #0]
10001b3c:	3b06      	subs	r3, #6
10001b3e:	22c7      	movs	r2, #199	; 0xc7
10001b40:	00d2      	lsls	r2, r2, #3
10001b42:	446a      	add	r2, sp
10001b44:	6013      	str	r3, [r2, #0]
10001b46:	4a60      	ldr	r2, [pc, #384]	; (10001cc8 <_Z41__static_initialization_and_destruction_0ii+0xccc>)
10001b48:	446a      	add	r2, sp
10001b4a:	6013      	str	r3, [r2, #0]
10001b4c:	4f5f      	ldr	r7, [pc, #380]	; (10001ccc <_Z41__static_initialization_and_destruction_0ii+0xcd0>)
10001b4e:	446f      	add	r7, sp
10001b50:	2300      	movs	r3, #0
10001b52:	4698      	mov	r8, r3
10001b54:	703b      	strb	r3, [r7, #0]
10001b56:	4e5e      	ldr	r6, [pc, #376]	; (10001cd0 <_Z41__static_initialization_and_destruction_0ii+0xcd4>)
10001b58:	446e      	add	r6, sp
10001b5a:	220c      	movs	r2, #12
10001b5c:	0019      	movs	r1, r3
10001b5e:	0030      	movs	r0, r6
10001b60:	f01a fa70 	bl	1001c044 <__wrap_memset>
10001b64:	4642      	mov	r2, r8
10001b66:	6032      	str	r2, [r6, #0]
10001b68:	6072      	str	r2, [r6, #4]
10001b6a:	60b2      	str	r2, [r6, #8]
10001b6c:	9603      	str	r6, [sp, #12]
10001b6e:	9702      	str	r7, [sp, #8]
10001b70:	4b55      	ldr	r3, [pc, #340]	; (10001cc8 <_Z41__static_initialization_and_destruction_0ii+0xccc>)
10001b72:	446b      	add	r3, sp
10001b74:	9301      	str	r3, [sp, #4]
10001b76:	23c7      	movs	r3, #199	; 0xc7
10001b78:	00db      	lsls	r3, r3, #3
10001b7a:	446b      	add	r3, sp
10001b7c:	9300      	str	r3, [sp, #0]
10001b7e:	4b51      	ldr	r3, [pc, #324]	; (10001cc4 <_Z41__static_initialization_and_destruction_0ii+0xcc8>)
10001b80:	446b      	add	r3, sp
10001b82:	22c3      	movs	r2, #195	; 0xc3
10001b84:	00d2      	lsls	r2, r2, #3
10001b86:	446a      	add	r2, sp
10001b88:	494d      	ldr	r1, [pc, #308]	; (10001cc0 <_Z41__static_initialization_and_destruction_0ii+0xcc4>)
10001b8a:	4469      	add	r1, sp
10001b8c:	4851      	ldr	r0, [pc, #324]	; (10001cd4 <_Z41__static_initialization_and_destruction_0ii+0xcd8>)
10001b8e:	f7fe ff1d 	bl	100009cc <_ZNSt11_Tuple_implILj0EJKNSt7__cxx1112basic_stringIcSt11char_traitsIcESaIcEEES6_N14wifi_interface12CMD_DATATYPEEiibSt6vectorIS5_SaIS5_EEEEC1ERS6_SD_RKS8_RKiSH_RKbRKSB_>
10001b92:	0030      	movs	r0, r6
10001b94:	f7fe fd27 	bl	100005e6 <_ZNSt6vectorINSt7__cxx1112basic_stringIcSt11char_traitsIcESaIcEEESaIS5_EED1Ev>
10001b98:	20c3      	movs	r0, #195	; 0xc3
10001b9a:	00c0      	lsls	r0, r0, #3
10001b9c:	4468      	add	r0, sp
10001b9e:	f01f ff2b 	bl	100219f8 <_ZNSt7__cxx1112basic_stringIcSt11char_traitsIcESaIcEE10_M_disposeEv>
10001ba2:	4847      	ldr	r0, [pc, #284]	; (10001cc0 <_Z41__static_initialization_and_destruction_0ii+0xcc4>)
10001ba4:	4468      	add	r0, sp
10001ba6:	f01f ff27 	bl	100219f8 <_ZNSt7__cxx1112basic_stringIcSt11char_traitsIcESaIcEE10_M_disposeEv>
10001baa:	f7ff fa5b 	bl	10001064 <_Z41__static_initialization_and_destruction_0ii+0x68>
10001bae:	ae0a      	add	r6, sp, #40	; 0x28
10001bb0:	ab0c      	add	r3, sp, #48	; 0x30
10001bb2:	930a      	str	r3, [sp, #40]	; 0x28
10001bb4:	2300      	movs	r3, #0
10001bb6:	4a48      	ldr	r2, [pc, #288]	; (10001cd8 <_Z41__static_initialization_and_destruction_0ii+0xcdc>)
10001bb8:	4938      	ldr	r1, [pc, #224]	; (10001c9c <_Z41__static_initialization_and_destruction_0ii+0xca0>)
10001bba:	0030      	movs	r0, r6
10001bbc:	f7fe fd3c 	bl	10000638 <_ZNSt7__cxx1112basic_stringIcSt11char_traitsIcESaIcEE12_M_constructIPKcEEvT_S8_St20forward_iterator_tag>
10001bc0:	4946      	ldr	r1, [pc, #280]	; (10001cdc <_Z41__static_initialization_and_destruction_0ii+0xce0>)
10001bc2:	a810      	add	r0, sp, #64	; 0x40
10001bc4:	f7fe fd2a 	bl	1000061c <_ZNSt8functionIFvNSt7__cxx1112basic_stringIcSt11char_traitsIcESaIcEEEEEC1IPS6_vvEET_>
10001bc8:	21ca      	movs	r1, #202	; 0xca
10001bca:	00c9      	lsls	r1, r1, #3
10001bcc:	4469      	add	r1, sp
10001bce:	600e      	str	r6, [r1, #0]
10001bd0:	2301      	movs	r3, #1
10001bd2:	604b      	str	r3, [r1, #4]
10001bd4:	2608      	movs	r6, #8
10001bd6:	0032      	movs	r2, r6
10001bd8:	a806      	add	r0, sp, #24
10001bda:	f01a fa39 	bl	1001c050 <__wrap___aeabi_memcpy>
10001bde:	0032      	movs	r2, r6
10001be0:	a906      	add	r1, sp, #24
10001be2:	a808      	add	r0, sp, #32
10001be4:	f01a fa34 	bl	1001c050 <__wrap___aeabi_memcpy>
10001be8:	9b09      	ldr	r3, [sp, #36]	; 0x24
10001bea:	2228      	movs	r2, #40	; 0x28
10001bec:	435a      	muls	r2, r3
10001bee:	9b08      	ldr	r3, [sp, #32]
10001bf0:	469c      	mov	ip, r3
10001bf2:	4462      	add	r2, ip
10001bf4:	23cc      	movs	r3, #204	; 0xcc
10001bf6:	00db      	lsls	r3, r3, #3
10001bf8:	446b      	add	r3, sp
10001bfa:	9305      	str	r3, [sp, #20]
10001bfc:	4b38      	ldr	r3, [pc, #224]	; (10001ce0 <_Z41__static_initialization_and_destruction_0ii+0xce4>)
10001bfe:	446b      	add	r3, sp
10001c00:	9304      	str	r3, [sp, #16]
10001c02:	4b38      	ldr	r3, [pc, #224]	; (10001ce4 <_Z41__static_initialization_and_destruction_0ii+0xce8>)
10001c04:	446b      	add	r3, sp
10001c06:	9303      	str	r3, [sp, #12]
10001c08:	23ce      	movs	r3, #206	; 0xce
10001c0a:	00db      	lsls	r3, r3, #3
10001c0c:	446b      	add	r3, sp
10001c0e:	9302      	str	r3, [sp, #8]
10001c10:	4b35      	ldr	r3, [pc, #212]	; (10001ce8 <_Z41__static_initialization_and_destruction_0ii+0xcec>)
10001c12:	446b      	add	r3, sp
10001c14:	9301      	str	r3, [sp, #4]
10001c16:	23cb      	movs	r3, #203	; 0xcb
10001c18:	00db      	lsls	r3, r3, #3
10001c1a:	446b      	add	r3, sp
10001c1c:	9300      	str	r3, [sp, #0]
10001c1e:	2300      	movs	r3, #0
10001c20:	4661      	mov	r1, ip
10001c22:	4832      	ldr	r0, [pc, #200]	; (10001cec <_Z41__static_initialization_and_destruction_0ii+0xcf0>)
10001c24:	f7ff f978 	bl	10000f18 <_ZNSt10_HashtableINSt7__cxx1112basic_stringIcSt11char_traitsIcESaIcEEESt4pairIKS5_St8functionIFvS5_EEESaISB_ENSt8__detail10_Select1stESt8equal_toIS5_ESt4hashIS5_ENSD_18_Mod_range_hashingENSD_20_Default_ranged_hashENSD_20_Prime_rehash_policyENSD_17_Hashtable_traitsILb1ELb0ELb1EEEEC1IPKSB_EET_SS_jRKSI_RKSJ_RKSK_RKSG_RKSE_RKSC_>
10001c28:	ae14      	add	r6, sp, #80	; 0x50
10001c2a:	ab0a      	add	r3, sp, #40	; 0x28
10001c2c:	429e      	cmp	r6, r3
10001c2e:	d101      	bne.n	10001c34 <_Z41__static_initialization_and_destruction_0ii+0xc38>
10001c30:	f7ff fa20 	bl	10001074 <_Z41__static_initialization_and_destruction_0ii+0x78>
10001c34:	3e28      	subs	r6, #40	; 0x28
10001c36:	0030      	movs	r0, r6
10001c38:	3018      	adds	r0, #24
10001c3a:	f7fe fc87 	bl	1000054c <_ZNSt14_Function_baseD1Ev>
10001c3e:	0030      	movs	r0, r6
10001c40:	f01f feda 	bl	100219f8 <_ZNSt7__cxx1112basic_stringIcSt11char_traitsIcESaIcEE10_M_disposeEv>
10001c44:	e7f1      	b.n	10001c2a <_Z41__static_initialization_and_destruction_0ii+0xc2e>
10001c46:	46c0      	nop			; (mov r8, r8)
10001c48:	1002af90 	.word	0x1002af90
10001c4c:	000004fc 	.word	0x000004fc
10001c50:	200023e8 	.word	0x200023e8
10001c54:	1002afa8 	.word	0x1002afa8
10001c58:	00000534 	.word	0x00000534
10001c5c:	1002afac 	.word	0x1002afac
10001c60:	0000051c 	.word	0x0000051c
10001c64:	0000053c 	.word	0x0000053c
10001c68:	00000547 	.word	0x00000547
10001c6c:	0000054c 	.word	0x0000054c
10001c70:	20002434 	.word	0x20002434
10001c74:	0000056c 	.word	0x0000056c
10001c78:	1002afbc 	.word	0x1002afbc
10001c7c:	00000554 	.word	0x00000554
10001c80:	1002afc0 	.word	0x1002afc0
10001c84:	0000058c 	.word	0x0000058c
10001c88:	00000594 	.word	0x00000594
10001c8c:	0000059b 	.word	0x0000059b
10001c90:	0000059c 	.word	0x0000059c
10001c94:	000005a4 	.word	0x000005a4
10001c98:	20002480 	.word	0x20002480
10001c9c:	1002afcc 	.word	0x1002afcc
10001ca0:	000005dc 	.word	0x000005dc
10001ca4:	1002c1c4 	.word	0x1002c1c4
10001ca8:	000005c4 	.word	0x000005c4
10001cac:	000005e4 	.word	0x000005e4
10001cb0:	000005ef 	.word	0x000005ef
10001cb4:	200024cc 	.word	0x200024cc
10001cb8:	00000614 	.word	0x00000614
10001cbc:	1002afd4 	.word	0x1002afd4
10001cc0:	000005fc 	.word	0x000005fc
10001cc4:	00000634 	.word	0x00000634
10001cc8:	0000063c 	.word	0x0000063c
10001ccc:	00000643 	.word	0x00000643
10001cd0:	00000644 	.word	0x00000644
10001cd4:	20002518 	.word	0x20002518
10001cd8:	1002afd1 	.word	0x1002afd1
10001cdc:	10010e41 	.word	0x10010e41
10001ce0:	0000066c 	.word	0x0000066c
10001ce4:	0000065c 	.word	0x0000065c
10001ce8:	00000674 	.word	0x00000674
10001cec:	20002088 	.word	0x20002088
10001cf0:	4ecf      	ldr	r6, [pc, #828]	; (10002030 <_Z41__static_initialization_and_destruction_0ii+0x1034>)
10001cf2:	2228      	movs	r2, #40	; 0x28
10001cf4:	2100      	movs	r1, #0
10001cf6:	0030      	movs	r0, r6
10001cf8:	f01a f9a4 	bl	1001c044 <__wrap_memset>
10001cfc:	2100      	movs	r1, #0
10001cfe:	6031      	str	r1, [r6, #0]
10001d00:	6071      	str	r1, [r6, #4]
10001d02:	60b1      	str	r1, [r6, #8]
10001d04:	60f1      	str	r1, [r6, #12]
10001d06:	6131      	str	r1, [r6, #16]
10001d08:	6171      	str	r1, [r6, #20]
10001d0a:	61b1      	str	r1, [r6, #24]
10001d0c:	61f1      	str	r1, [r6, #28]
10001d0e:	6231      	str	r1, [r6, #32]
10001d10:	6271      	str	r1, [r6, #36]	; 0x24
10001d12:	0030      	movs	r0, r6
10001d14:	f7fe fd12 	bl	1000073c <_ZNSt11_Deque_baseINSt7__cxx1112basic_stringIcSt11char_traitsIcESaIcEEESaIS5_EE17_M_initialize_mapEj>
10001d18:	f7ff f9b4 	bl	10001084 <_Z41__static_initialization_and_destruction_0ii+0x88>
10001d1c:	4ac5      	ldr	r2, [pc, #788]	; (10002034 <_Z41__static_initialization_and_destruction_0ii+0x1038>)
10001d1e:	446a      	add	r2, sp
10001d20:	49c5      	ldr	r1, [pc, #788]	; (10002038 <_Z41__static_initialization_and_destruction_0ii+0x103c>)
10001d22:	48c6      	ldr	r0, [pc, #792]	; (1000203c <_Z41__static_initialization_and_destruction_0ii+0x1040>)
10001d24:	f7fe fcb6 	bl	10000694 <_ZNSt7__cxx1112basic_stringIcSt11char_traitsIcESaIcEEC1IS3_EEPKcRKS3_>
10001d28:	f7ff f9b4 	bl	10001094 <_Z41__static_initialization_and_destruction_0ii+0x98>
10001d2c:	4ac4      	ldr	r2, [pc, #784]	; (10002040 <_Z41__static_initialization_and_destruction_0ii+0x1044>)
10001d2e:	6813      	ldr	r3, [r2, #0]
10001d30:	3b01      	subs	r3, #1
10001d32:	6013      	str	r3, [r2, #0]
10001d34:	2b00      	cmp	r3, #0
10001d36:	d019      	beq.n	10001d6c <_Z41__static_initialization_and_destruction_0ii+0xd70>
10001d38:	4ac2      	ldr	r2, [pc, #776]	; (10002044 <_Z41__static_initialization_and_destruction_0ii+0x1048>)
10001d3a:	6813      	ldr	r3, [r2, #0]
10001d3c:	3b01      	subs	r3, #1
10001d3e:	6013      	str	r3, [r2, #0]
10001d40:	2b00      	cmp	r3, #0
10001d42:	d017      	beq.n	10001d74 <_Z41__static_initialization_and_destruction_0ii+0xd78>
10001d44:	4ac0      	ldr	r2, [pc, #768]	; (10002048 <_Z41__static_initialization_and_destruction_0ii+0x104c>)
10001d46:	6813      	ldr	r3, [r2, #0]
10001d48:	3b01      	subs	r3, #1
10001d4a:	6013      	str	r3, [r2, #0]
10001d4c:	2b00      	cmp	r3, #0
10001d4e:	d015      	beq.n	10001d7c <_Z41__static_initialization_and_destruction_0ii+0xd80>
10001d50:	4abe      	ldr	r2, [pc, #760]	; (1000204c <_Z41__static_initialization_and_destruction_0ii+0x1050>)
10001d52:	6813      	ldr	r3, [r2, #0]
10001d54:	3b01      	subs	r3, #1
10001d56:	6013      	str	r3, [r2, #0]
10001d58:	2b00      	cmp	r3, #0
10001d5a:	d040      	beq.n	10001dde <_Z41__static_initialization_and_destruction_0ii+0xde2>
10001d5c:	4abc      	ldr	r2, [pc, #752]	; (10002050 <_Z41__static_initialization_and_destruction_0ii+0x1054>)
10001d5e:	6813      	ldr	r3, [r2, #0]
10001d60:	3b01      	subs	r3, #1
10001d62:	6013      	str	r3, [r2, #0]
10001d64:	2b00      	cmp	r3, #0
10001d66:	d145      	bne.n	10001df4 <_Z41__static_initialization_and_destruction_0ii+0xdf8>
10001d68:	4cba      	ldr	r4, [pc, #744]	; (10002054 <_Z41__static_initialization_and_destruction_0ii+0x1058>)
10001d6a:	e040      	b.n	10001dee <_Z41__static_initialization_and_destruction_0ii+0xdf2>
10001d6c:	48ba      	ldr	r0, [pc, #744]	; (10002058 <_Z41__static_initialization_and_destruction_0ii+0x105c>)
10001d6e:	f01f fe43 	bl	100219f8 <_ZNSt7__cxx1112basic_stringIcSt11char_traitsIcESaIcEE10_M_disposeEv>
10001d72:	e7e1      	b.n	10001d38 <_Z41__static_initialization_and_destruction_0ii+0xd3c>
10001d74:	48b1      	ldr	r0, [pc, #708]	; (1000203c <_Z41__static_initialization_and_destruction_0ii+0x1040>)
10001d76:	f01f fe3f 	bl	100219f8 <_ZNSt7__cxx1112basic_stringIcSt11char_traitsIcESaIcEE10_M_disposeEv>
10001d7a:	e7e3      	b.n	10001d44 <_Z41__static_initialization_and_destruction_0ii+0xd48>
10001d7c:	4cac      	ldr	r4, [pc, #688]	; (10002030 <_Z41__static_initialization_and_destruction_0ii+0x1034>)
10001d7e:	23d1      	movs	r3, #209	; 0xd1
10001d80:	00db      	lsls	r3, r3, #3
10001d82:	446b      	add	r3, sp
10001d84:	68a1      	ldr	r1, [r4, #8]
10001d86:	6019      	str	r1, [r3, #0]
10001d88:	68e2      	ldr	r2, [r4, #12]
10001d8a:	605a      	str	r2, [r3, #4]
10001d8c:	6922      	ldr	r2, [r4, #16]
10001d8e:	609a      	str	r2, [r3, #8]
10001d90:	6962      	ldr	r2, [r4, #20]
10001d92:	60da      	str	r2, [r3, #12]
10001d94:	69a0      	ldr	r0, [r4, #24]
10001d96:	21cf      	movs	r1, #207	; 0xcf
10001d98:	00c9      	lsls	r1, r1, #3
10001d9a:	4469      	add	r1, sp
10001d9c:	6008      	str	r0, [r1, #0]
10001d9e:	69e3      	ldr	r3, [r4, #28]
10001da0:	604b      	str	r3, [r1, #4]
10001da2:	6a25      	ldr	r5, [r4, #32]
10001da4:	608d      	str	r5, [r1, #8]
10001da6:	6a65      	ldr	r5, [r4, #36]	; 0x24
10001da8:	60cd      	str	r5, [r1, #12]
10001daa:	21d5      	movs	r1, #213	; 0xd5
10001dac:	00c9      	lsls	r1, r1, #3
10001dae:	4469      	add	r1, sp
10001db0:	68a6      	ldr	r6, [r4, #8]
10001db2:	600e      	str	r6, [r1, #0]
10001db4:	68e5      	ldr	r5, [r4, #12]
10001db6:	604d      	str	r5, [r1, #4]
10001db8:	6925      	ldr	r5, [r4, #16]
10001dba:	608d      	str	r5, [r1, #8]
10001dbc:	60ca      	str	r2, [r1, #12]
10001dbe:	22d3      	movs	r2, #211	; 0xd3
10001dc0:	00d2      	lsls	r2, r2, #3
10001dc2:	446a      	add	r2, sp
10001dc4:	6010      	str	r0, [r2, #0]
10001dc6:	6053      	str	r3, [r2, #4]
10001dc8:	6a23      	ldr	r3, [r4, #32]
10001dca:	6093      	str	r3, [r2, #8]
10001dcc:	6a63      	ldr	r3, [r4, #36]	; 0x24
10001dce:	60d3      	str	r3, [r2, #12]
10001dd0:	0020      	movs	r0, r4
10001dd2:	f7fe fd0b 	bl	100007ec <_ZNSt5dequeINSt7__cxx1112basic_stringIcSt11char_traitsIcESaIcEEESaIS5_EE19_M_destroy_data_auxESt15_Deque_iteratorIS5_RS5_PS5_ESB_>
10001dd6:	0020      	movs	r0, r4
10001dd8:	f7fe fc7d 	bl	100006d6 <_ZNSt11_Deque_baseINSt7__cxx1112basic_stringIcSt11char_traitsIcESaIcEEESaIS5_EED1Ev>
10001ddc:	e7b8      	b.n	10001d50 <_Z41__static_initialization_and_destruction_0ii+0xd54>
10001dde:	489f      	ldr	r0, [pc, #636]	; (1000205c <_Z41__static_initialization_and_destruction_0ii+0x1060>)
10001de0:	f7fe fedb 	bl	10000b9a <_ZNSt10_HashtableINSt7__cxx1112basic_stringIcSt11char_traitsIcESaIcEEESt4pairIKS5_St8functionIFvS5_EEESaISB_ENSt8__detail10_Select1stESt8equal_toIS5_ESt4hashIS5_ENSD_18_Mod_range_hashingENSD_20_Default_ranged_hashENSD_20_Prime_rehash_policyENSD_17_Hashtable_traitsILb1ELb0ELb1EEEED1Ev>
10001de4:	e7ba      	b.n	10001d5c <_Z41__static_initialization_and_destruction_0ii+0xd60>
10001de6:	3c4c      	subs	r4, #76	; 0x4c
10001de8:	0020      	movs	r0, r4
10001dea:	f7fe fbb9 	bl	10000560 <_ZNSt11_Tuple_implILj0EJKNSt7__cxx1112basic_stringIcSt11char_traitsIcESaIcEEES6_N14wifi_interface12CMD_DATATYPEEiibSt6vectorIS5_SaIS5_EEEED1Ev>
10001dee:	4b9c      	ldr	r3, [pc, #624]	; (10002060 <_Z41__static_initialization_and_destruction_0ii+0x1064>)
10001df0:	429c      	cmp	r4, r3
10001df2:	d1f8      	bne.n	10001de6 <_Z41__static_initialization_and_destruction_0ii+0xdea>
10001df4:	4a9b      	ldr	r2, [pc, #620]	; (10002064 <_Z41__static_initialization_and_destruction_0ii+0x1068>)
10001df6:	6813      	ldr	r3, [r2, #0]
10001df8:	3b01      	subs	r3, #1
10001dfa:	6013      	str	r3, [r2, #0]
10001dfc:	2b00      	cmp	r3, #0
10001dfe:	d108      	bne.n	10001e12 <_Z41__static_initialization_and_destruction_0ii+0xe16>
10001e00:	4c99      	ldr	r4, [pc, #612]	; (10002068 <_Z41__static_initialization_and_destruction_0ii+0x106c>)
10001e02:	4b9a      	ldr	r3, [pc, #616]	; (1000206c <_Z41__static_initialization_and_destruction_0ii+0x1070>)
10001e04:	429c      	cmp	r4, r3
10001e06:	d004      	beq.n	10001e12 <_Z41__static_initialization_and_destruction_0ii+0xe16>
10001e08:	3c18      	subs	r4, #24
10001e0a:	0020      	movs	r0, r4
10001e0c:	f01f fdf4 	bl	100219f8 <_ZNSt7__cxx1112basic_stringIcSt11char_traitsIcESaIcEE10_M_disposeEv>
10001e10:	e7f7      	b.n	10001e02 <_Z41__static_initialization_and_destruction_0ii+0xe06>
10001e12:	4897      	ldr	r0, [pc, #604]	; (10002070 <_Z41__static_initialization_and_destruction_0ii+0x1074>)
10001e14:	6881      	ldr	r1, [r0, #8]
10001e16:	f7fe ff54 	bl	10000cc2 <_ZNSt8_Rb_treeIjSt4pairIKjSt3mapIjSt10shared_ptrIN7PicoLed13PicoLedTargetEESt4lessIjESaIS0_IS1_S6_EEEESt10_Select1stISC_ES8_SaISC_EE8_M_eraseEPSt13_Rb_tree_nodeISC_E>
10001e1a:	f7ff f900 	bl	1000101e <_Z41__static_initialization_and_destruction_0ii+0x22>
10001e1e:	2602      	movs	r6, #2
10001e20:	f7ff f94d 	bl	100010be <_Z41__static_initialization_and_destruction_0ii+0xc2>
10001e24:	f7ff f94b 	bl	100010be <_Z41__static_initialization_and_destruction_0ii+0xc2>
10001e28:	f01e face 	bl	100203c8 <__cxa_end_cleanup>
10001e2c:	a846      	add	r0, sp, #280	; 0x118
10001e2e:	f7fe fbda 	bl	100005e6 <_ZNSt6vectorINSt7__cxx1112basic_stringIcSt11char_traitsIcESaIcEEESaIS5_EED1Ev>
10001e32:	a83b      	add	r0, sp, #236	; 0xec
10001e34:	f01f fde0 	bl	100219f8 <_ZNSt7__cxx1112basic_stringIcSt11char_traitsIcESaIcEE10_M_disposeEv>
10001e38:	a834      	add	r0, sp, #208	; 0xd0
10001e3a:	f01f fddd 	bl	100219f8 <_ZNSt7__cxx1112basic_stringIcSt11char_traitsIcESaIcEE10_M_disposeEv>
10001e3e:	270f      	movs	r7, #15
10001e40:	f7ff f980 	bl	10001144 <_Z41__static_initialization_and_destruction_0ii+0x148>
10001e44:	e7f8      	b.n	10001e38 <_Z41__static_initialization_and_destruction_0ii+0xe3c>
10001e46:	a85b      	add	r0, sp, #364	; 0x16c
10001e48:	f7fe fbcd 	bl	100005e6 <_ZNSt6vectorINSt7__cxx1112basic_stringIcSt11char_traitsIcESaIcEEESaIS5_EED1Ev>
10001e4c:	a850      	add	r0, sp, #320	; 0x140
10001e4e:	f01f fdd3 	bl	100219f8 <_ZNSt7__cxx1112basic_stringIcSt11char_traitsIcESaIcEE10_M_disposeEv>
10001e52:	a849      	add	r0, sp, #292	; 0x124
10001e54:	f01f fdd0 	bl	100219f8 <_ZNSt7__cxx1112basic_stringIcSt11char_traitsIcESaIcEE10_M_disposeEv>
10001e58:	270e      	movs	r7, #14
10001e5a:	f7ff f973 	bl	10001144 <_Z41__static_initialization_and_destruction_0ii+0x148>
10001e5e:	e7f8      	b.n	10001e52 <_Z41__static_initialization_and_destruction_0ii+0xe56>
10001e60:	a870      	add	r0, sp, #448	; 0x1c0
10001e62:	f7fe fbc0 	bl	100005e6 <_ZNSt6vectorINSt7__cxx1112basic_stringIcSt11char_traitsIcESaIcEEESaIS5_EED1Ev>
10001e66:	a865      	add	r0, sp, #404	; 0x194
10001e68:	f01f fdc6 	bl	100219f8 <_ZNSt7__cxx1112basic_stringIcSt11char_traitsIcESaIcEE10_M_disposeEv>
10001e6c:	a85e      	add	r0, sp, #376	; 0x178
10001e6e:	f01f fdc3 	bl	100219f8 <_ZNSt7__cxx1112basic_stringIcSt11char_traitsIcESaIcEE10_M_disposeEv>
10001e72:	270d      	movs	r7, #13
10001e74:	f7ff f966 	bl	10001144 <_Z41__static_initialization_and_destruction_0ii+0x148>
10001e78:	e7f8      	b.n	10001e6c <_Z41__static_initialization_and_destruction_0ii+0xe70>
10001e7a:	a885      	add	r0, sp, #532	; 0x214
10001e7c:	f7fe fbb3 	bl	100005e6 <_ZNSt6vectorINSt7__cxx1112basic_stringIcSt11char_traitsIcESaIcEEESaIS5_EED1Ev>
10001e80:	a87a      	add	r0, sp, #488	; 0x1e8
10001e82:	f01f fdb9 	bl	100219f8 <_ZNSt7__cxx1112basic_stringIcSt11char_traitsIcESaIcEE10_M_disposeEv>
10001e86:	a873      	add	r0, sp, #460	; 0x1cc
10001e88:	f01f fdb6 	bl	100219f8 <_ZNSt7__cxx1112basic_stringIcSt11char_traitsIcESaIcEE10_M_disposeEv>
10001e8c:	270c      	movs	r7, #12
10001e8e:	f7ff f959 	bl	10001144 <_Z41__static_initialization_and_destruction_0ii+0x148>
10001e92:	e7f8      	b.n	10001e86 <_Z41__static_initialization_and_destruction_0ii+0xe8a>
10001e94:	a89a      	add	r0, sp, #616	; 0x268
10001e96:	f7fe fba6 	bl	100005e6 <_ZNSt6vectorINSt7__cxx1112basic_stringIcSt11char_traitsIcESaIcEEESaIS5_EED1Ev>
10001e9a:	a88f      	add	r0, sp, #572	; 0x23c
10001e9c:	f01f fdac 	bl	100219f8 <_ZNSt7__cxx1112basic_stringIcSt11char_traitsIcESaIcEE10_M_disposeEv>
10001ea0:	a888      	add	r0, sp, #544	; 0x220
10001ea2:	f01f fda9 	bl	100219f8 <_ZNSt7__cxx1112basic_stringIcSt11char_traitsIcESaIcEE10_M_disposeEv>
10001ea6:	270b      	movs	r7, #11
10001ea8:	f7ff f94c 	bl	10001144 <_Z41__static_initialization_and_destruction_0ii+0x148>
10001eac:	e7f8      	b.n	10001ea0 <_Z41__static_initialization_and_destruction_0ii+0xea4>
10001eae:	a8af      	add	r0, sp, #700	; 0x2bc
10001eb0:	f7fe fb99 	bl	100005e6 <_ZNSt6vectorINSt7__cxx1112basic_stringIcSt11char_traitsIcESaIcEEESaIS5_EED1Ev>
10001eb4:	ac2e      	add	r4, sp, #184	; 0xb8
10001eb6:	f7ff faf4 	bl	100014a2 <_Z41__static_initialization_and_destruction_0ii+0x4a6>
10001eba:	a8a4      	add	r0, sp, #656	; 0x290
10001ebc:	f01f fd9c 	bl	100219f8 <_ZNSt7__cxx1112basic_stringIcSt11char_traitsIcESaIcEE10_M_disposeEv>
10001ec0:	a89d      	add	r0, sp, #628	; 0x274
10001ec2:	f01f fd99 	bl	100219f8 <_ZNSt7__cxx1112basic_stringIcSt11char_traitsIcESaIcEE10_M_disposeEv>
10001ec6:	270a      	movs	r7, #10
10001ec8:	f7ff f93c 	bl	10001144 <_Z41__static_initialization_and_destruction_0ii+0x148>
10001ecc:	e7f8      	b.n	10001ec0 <_Z41__static_initialization_and_destruction_0ii+0xec4>
10001ece:	a8cd      	add	r0, sp, #820	; 0x334
10001ed0:	f7fe fb89 	bl	100005e6 <_ZNSt6vectorINSt7__cxx1112basic_stringIcSt11char_traitsIcESaIcEEESaIS5_EED1Ev>
10001ed4:	a8c2      	add	r0, sp, #776	; 0x308
10001ed6:	f01f fd8f 	bl	100219f8 <_ZNSt7__cxx1112basic_stringIcSt11char_traitsIcESaIcEE10_M_disposeEv>
10001eda:	a8bb      	add	r0, sp, #748	; 0x2ec
10001edc:	f01f fd8c 	bl	100219f8 <_ZNSt7__cxx1112basic_stringIcSt11char_traitsIcESaIcEE10_M_disposeEv>
10001ee0:	2709      	movs	r7, #9
10001ee2:	f7ff f92f 	bl	10001144 <_Z41__static_initialization_and_destruction_0ii+0x148>
10001ee6:	e7f8      	b.n	10001eda <_Z41__static_initialization_and_destruction_0ii+0xede>
10001ee8:	a8e2      	add	r0, sp, #904	; 0x388
10001eea:	f7fe fb7c 	bl	100005e6 <_ZNSt6vectorINSt7__cxx1112basic_stringIcSt11char_traitsIcESaIcEEESaIS5_EED1Ev>
10001eee:	a8d7      	add	r0, sp, #860	; 0x35c
10001ef0:	f01f fd82 	bl	100219f8 <_ZNSt7__cxx1112basic_stringIcSt11char_traitsIcESaIcEE10_M_disposeEv>
10001ef4:	a8d0      	add	r0, sp, #832	; 0x340
10001ef6:	f01f fd7f 	bl	100219f8 <_ZNSt7__cxx1112basic_stringIcSt11char_traitsIcESaIcEE10_M_disposeEv>
10001efa:	2708      	movs	r7, #8
10001efc:	f7ff f922 	bl	10001144 <_Z41__static_initialization_and_destruction_0ii+0x148>
10001f00:	e7f8      	b.n	10001ef4 <_Z41__static_initialization_and_destruction_0ii+0xef8>
10001f02:	a8f7      	add	r0, sp, #988	; 0x3dc
10001f04:	f7fe fb6f 	bl	100005e6 <_ZNSt6vectorINSt7__cxx1112basic_stringIcSt11char_traitsIcESaIcEEESaIS5_EED1Ev>
10001f08:	a8ec      	add	r0, sp, #944	; 0x3b0
10001f0a:	f01f fd75 	bl	100219f8 <_ZNSt7__cxx1112basic_stringIcSt11char_traitsIcESaIcEE10_M_disposeEv>
10001f0e:	a8e5      	add	r0, sp, #916	; 0x394
10001f10:	f01f fd72 	bl	100219f8 <_ZNSt7__cxx1112basic_stringIcSt11char_traitsIcESaIcEE10_M_disposeEv>
10001f14:	2707      	movs	r7, #7
10001f16:	f7ff f915 	bl	10001144 <_Z41__static_initialization_and_destruction_0ii+0x148>
10001f1a:	e7f8      	b.n	10001f0e <_Z41__static_initialization_and_destruction_0ii+0xf12>
10001f1c:	a8ff      	add	r0, sp, #1020	; 0x3fc
10001f1e:	3034      	adds	r0, #52	; 0x34
10001f20:	f7fe fb61 	bl	100005e6 <_ZNSt6vectorINSt7__cxx1112basic_stringIcSt11char_traitsIcESaIcEEESaIS5_EED1Ev>
10001f24:	a8ff      	add	r0, sp, #1020	; 0x3fc
10001f26:	3008      	adds	r0, #8
10001f28:	f01f fd66 	bl	100219f8 <_ZNSt7__cxx1112basic_stringIcSt11char_traitsIcESaIcEE10_M_disposeEv>
10001f2c:	a8fa      	add	r0, sp, #1000	; 0x3e8
10001f2e:	f01f fd63 	bl	100219f8 <_ZNSt7__cxx1112basic_stringIcSt11char_traitsIcESaIcEE10_M_disposeEv>
10001f32:	2706      	movs	r7, #6
10001f34:	f7ff f906 	bl	10001144 <_Z41__static_initialization_and_destruction_0ii+0x148>
10001f38:	e7f8      	b.n	10001f2c <_Z41__static_initialization_and_destruction_0ii+0xf30>
10001f3a:	a8ff      	add	r0, sp, #1020	; 0x3fc
10001f3c:	3088      	adds	r0, #136	; 0x88
10001f3e:	f7fe fb52 	bl	100005e6 <_ZNSt6vectorINSt7__cxx1112basic_stringIcSt11char_traitsIcESaIcEEESaIS5_EED1Ev>
10001f42:	ac22      	add	r4, sp, #136	; 0x88
10001f44:	e413      	b.n	1000176e <_Z41__static_initialization_and_destruction_0ii+0x772>
10001f46:	a8ff      	add	r0, sp, #1020	; 0x3fc
10001f48:	305c      	adds	r0, #92	; 0x5c
10001f4a:	f01f fd55 	bl	100219f8 <_ZNSt7__cxx1112basic_stringIcSt11char_traitsIcESaIcEE10_M_disposeEv>
10001f4e:	a8ff      	add	r0, sp, #1020	; 0x3fc
10001f50:	3040      	adds	r0, #64	; 0x40
10001f52:	f01f fd51 	bl	100219f8 <_ZNSt7__cxx1112basic_stringIcSt11char_traitsIcESaIcEE10_M_disposeEv>
10001f56:	2705      	movs	r7, #5
10001f58:	f7ff f8f4 	bl	10001144 <_Z41__static_initialization_and_destruction_0ii+0x148>
10001f5c:	e7f7      	b.n	10001f4e <_Z41__static_initialization_and_destruction_0ii+0xf52>
10001f5e:	a8ff      	add	r0, sp, #1020	; 0x3fc
10001f60:	30f8      	adds	r0, #248	; 0xf8
10001f62:	f7fe fb40 	bl	100005e6 <_ZNSt6vectorINSt7__cxx1112basic_stringIcSt11char_traitsIcESaIcEEESaIS5_EED1Ev>
10001f66:	a8ff      	add	r0, sp, #1020	; 0x3fc
10001f68:	30cc      	adds	r0, #204	; 0xcc
10001f6a:	f01f fd45 	bl	100219f8 <_ZNSt7__cxx1112basic_stringIcSt11char_traitsIcESaIcEE10_M_disposeEv>
10001f6e:	a8ff      	add	r0, sp, #1020	; 0x3fc
10001f70:	30b0      	adds	r0, #176	; 0xb0
10001f72:	f01f fd41 	bl	100219f8 <_ZNSt7__cxx1112basic_stringIcSt11char_traitsIcESaIcEE10_M_disposeEv>
10001f76:	2704      	movs	r7, #4
10001f78:	f7ff f8e4 	bl	10001144 <_Z41__static_initialization_and_destruction_0ii+0x148>
10001f7c:	e7f7      	b.n	10001f6e <_Z41__static_initialization_and_destruction_0ii+0xf72>
10001f7e:	20a9      	movs	r0, #169	; 0xa9
10001f80:	00c0      	lsls	r0, r0, #3
10001f82:	4468      	add	r0, sp
10001f84:	f7fe fb2f 	bl	100005e6 <_ZNSt6vectorINSt7__cxx1112basic_stringIcSt11char_traitsIcESaIcEEESaIS5_EED1Ev>
10001f88:	483a      	ldr	r0, [pc, #232]	; (10002074 <_Z41__static_initialization_and_destruction_0ii+0x1078>)
10001f8a:	4468      	add	r0, sp
10001f8c:	f01f fd34 	bl	100219f8 <_ZNSt7__cxx1112basic_stringIcSt11char_traitsIcESaIcEE10_M_disposeEv>
10001f90:	20a0      	movs	r0, #160	; 0xa0
10001f92:	00c0      	lsls	r0, r0, #3
10001f94:	4468      	add	r0, sp
10001f96:	f01f fd2f 	bl	100219f8 <_ZNSt7__cxx1112basic_stringIcSt11char_traitsIcESaIcEE10_M_disposeEv>
10001f9a:	2703      	movs	r7, #3
10001f9c:	f7ff f8d2 	bl	10001144 <_Z41__static_initialization_and_destruction_0ii+0x148>
10001fa0:	e7f6      	b.n	10001f90 <_Z41__static_initialization_and_destruction_0ii+0xf94>
10001fa2:	4835      	ldr	r0, [pc, #212]	; (10002078 <_Z41__static_initialization_and_destruction_0ii+0x107c>)
10001fa4:	4468      	add	r0, sp
10001fa6:	f7fe fb1e 	bl	100005e6 <_ZNSt6vectorINSt7__cxx1112basic_stringIcSt11char_traitsIcESaIcEEESaIS5_EED1Ev>
10001faa:	20ae      	movs	r0, #174	; 0xae
10001fac:	00c0      	lsls	r0, r0, #3
10001fae:	4468      	add	r0, sp
10001fb0:	f01f fd22 	bl	100219f8 <_ZNSt7__cxx1112basic_stringIcSt11char_traitsIcESaIcEE10_M_disposeEv>
10001fb4:	4831      	ldr	r0, [pc, #196]	; (1000207c <_Z41__static_initialization_and_destruction_0ii+0x1080>)
10001fb6:	4468      	add	r0, sp
10001fb8:	f01f fd1e 	bl	100219f8 <_ZNSt7__cxx1112basic_stringIcSt11char_traitsIcESaIcEE10_M_disposeEv>
10001fbc:	2702      	movs	r7, #2
10001fbe:	f7ff f8c1 	bl	10001144 <_Z41__static_initialization_and_destruction_0ii+0x148>
10001fc2:	e7f7      	b.n	10001fb4 <_Z41__static_initialization_and_destruction_0ii+0xfb8>
10001fc4:	20be      	movs	r0, #190	; 0xbe
10001fc6:	00c0      	lsls	r0, r0, #3
10001fc8:	4468      	add	r0, sp
10001fca:	f7fe fb0c 	bl	100005e6 <_ZNSt6vectorINSt7__cxx1112basic_stringIcSt11char_traitsIcESaIcEEESaIS5_EED1Ev>
10001fce:	482c      	ldr	r0, [pc, #176]	; (10002080 <_Z41__static_initialization_and_destruction_0ii+0x1084>)
10001fd0:	4468      	add	r0, sp
10001fd2:	f01f fd11 	bl	100219f8 <_ZNSt7__cxx1112basic_stringIcSt11char_traitsIcESaIcEE10_M_disposeEv>
10001fd6:	20b5      	movs	r0, #181	; 0xb5
10001fd8:	00c0      	lsls	r0, r0, #3
10001fda:	4468      	add	r0, sp
10001fdc:	f01f fd0c 	bl	100219f8 <_ZNSt7__cxx1112basic_stringIcSt11char_traitsIcESaIcEE10_M_disposeEv>
10001fe0:	f7ff f8b0 	bl	10001144 <_Z41__static_initialization_and_destruction_0ii+0x148>
10001fe4:	e7f7      	b.n	10001fd6 <_Z41__static_initialization_and_destruction_0ii+0xfda>
10001fe6:	4827      	ldr	r0, [pc, #156]	; (10002084 <_Z41__static_initialization_and_destruction_0ii+0x1088>)
10001fe8:	4468      	add	r0, sp
10001fea:	f7fe fafc 	bl	100005e6 <_ZNSt6vectorINSt7__cxx1112basic_stringIcSt11char_traitsIcESaIcEEESaIS5_EED1Ev>
10001fee:	20c3      	movs	r0, #195	; 0xc3
10001ff0:	00c0      	lsls	r0, r0, #3
10001ff2:	4468      	add	r0, sp
10001ff4:	f01f fd00 	bl	100219f8 <_ZNSt7__cxx1112basic_stringIcSt11char_traitsIcESaIcEE10_M_disposeEv>
10001ff8:	4823      	ldr	r0, [pc, #140]	; (10002088 <_Z41__static_initialization_and_destruction_0ii+0x108c>)
10001ffa:	4468      	add	r0, sp
10001ffc:	f01f fcfc 	bl	100219f8 <_ZNSt7__cxx1112basic_stringIcSt11char_traitsIcESaIcEE10_M_disposeEv>
10002000:	2700      	movs	r7, #0
10002002:	f7ff f89f 	bl	10001144 <_Z41__static_initialization_and_destruction_0ii+0x148>
10002006:	e7f7      	b.n	10001ff8 <_Z41__static_initialization_and_destruction_0ii+0xffc>
10002008:	f7ff f89c 	bl	10001144 <_Z41__static_initialization_and_destruction_0ii+0x148>
1000200c:	f01e f9dc 	bl	100203c8 <__cxa_end_cleanup>
10002010:	ac14      	add	r4, sp, #80	; 0x50
10002012:	ab0a      	add	r3, sp, #40	; 0x28
10002014:	429c      	cmp	r4, r3
10002016:	d008      	beq.n	1000202a <_Z41__static_initialization_and_destruction_0ii+0x102e>
10002018:	3c28      	subs	r4, #40	; 0x28
1000201a:	0020      	movs	r0, r4
1000201c:	3018      	adds	r0, #24
1000201e:	f7fe fa95 	bl	1000054c <_ZNSt14_Function_baseD1Ev>
10002022:	0020      	movs	r0, r4
10002024:	f01f fce8 	bl	100219f8 <_ZNSt7__cxx1112basic_stringIcSt11char_traitsIcESaIcEE10_M_disposeEv>
10002028:	e7f3      	b.n	10002012 <_Z41__static_initialization_and_destruction_0ii+0x1016>
1000202a:	f01e f9cd 	bl	100203c8 <__cxa_end_cleanup>
1000202e:	46c0      	nop			; (mov r8, r8)
10002030:	20002060 	.word	0x20002060
10002034:	00000664 	.word	0x00000664
10002038:	1002c1c4 	.word	0x1002c1c4
1000203c:	20002030 	.word	0x20002030
10002040:	20001fe8 	.word	0x20001fe8
10002044:	20001fe4 	.word	0x20001fe4
10002048:	20001fec 	.word	0x20001fec
1000204c:	20001ff0 	.word	0x20001ff0
10002050:	20001ff4 	.word	0x20001ff4
10002054:	20002564 	.word	0x20002564
10002058:	20002048 	.word	0x20002048
1000205c:	20002088 	.word	0x20002088
10002060:	200020a4 	.word	0x200020a4
10002064:	20001ff8 	.word	0x20001ff8
10002068:	200025f4 	.word	0x200025f4
1000206c:	20002564 	.word	0x20002564
10002070:	20002c28 	.word	0x20002c28
10002074:	0000051c 	.word	0x0000051c
10002078:	0000059c 	.word	0x0000059c
1000207c:	00000554 	.word	0x00000554
10002080:	000005c4 	.word	0x000005c4
10002084:	00000644 	.word	0x00000644
10002088:	000005fc 	.word	0x000005fc

1000208c <_GLOBAL__sub_I__ZN16settings_storageC2Ev>:
1000208c:	b510      	push	{r4, lr}
1000208e:	4902      	ldr	r1, [pc, #8]	; (10002098 <_GLOBAL__sub_I__ZN16settings_storageC2Ev+0xc>)
10002090:	2001      	movs	r0, #1
10002092:	f7fe ffb3 	bl	10000ffc <_Z41__static_initialization_and_destruction_0ii>
10002096:	bd10      	pop	{r4, pc}
10002098:	0000ffff 	.word	0x0000ffff

1000209c <_ZN22settings_storage_flash4initEv>:
1000209c:	4770      	bx	lr
	...

100020a0 <_ZN22settings_storage_flashD1Ev>:
100020a0:	b510      	push	{r4, lr}
100020a2:	0004      	movs	r4, r0
100020a4:	4b03      	ldr	r3, [pc, #12]	; (100020b4 <_ZN22settings_storage_flashD1Ev+0x14>)
100020a6:	3308      	adds	r3, #8
100020a8:	6003      	str	r3, [r0, #0]
100020aa:	f7fe f9d9 	bl	10000460 <_ZN16settings_storageD1Ev>
100020ae:	0020      	movs	r0, r4
100020b0:	bd10      	pop	{r4, pc}
100020b2:	46c0      	nop			; (mov r8, r8)
100020b4:	1002b0d0 	.word	0x1002b0d0

100020b8 <_ZN22settings_storage_flashD0Ev>:
100020b8:	b510      	push	{r4, lr}
100020ba:	0004      	movs	r4, r0
100020bc:	f7ff fff0 	bl	100020a0 <_ZN22settings_storage_flashD1Ev>
100020c0:	2134      	movs	r1, #52	; 0x34
100020c2:	0020      	movs	r0, r4
100020c4:	f01e f8d8 	bl	10020278 <_ZdlPvj>
100020c8:	0020      	movs	r0, r4
100020ca:	bd10      	pop	{r4, pc}

100020cc <_ZN22settings_storage_flash6formatEv>:
100020cc:	b570      	push	{r4, r5, r6, lr}
100020ce:	0005      	movs	r5, r0
100020d0:	f3ef 8610 	mrs	r6, PRIMASK
100020d4:	b672      	cpsid	i
100020d6:	2400      	movs	r4, #0
100020d8:	e008      	b.n	100020ec <_ZN22settings_storage_flash6formatEv+0x20>
100020da:	0320      	lsls	r0, r4, #12
100020dc:	6b2b      	ldr	r3, [r5, #48]	; 0x30
100020de:	469c      	mov	ip, r3
100020e0:	4460      	add	r0, ip
100020e2:	2180      	movs	r1, #128	; 0x80
100020e4:	0149      	lsls	r1, r1, #5
100020e6:	f028 fe27 	bl	1002ad38 <__flash_range_erase_veneer>
100020ea:	3401      	adds	r4, #1
100020ec:	6a6b      	ldr	r3, [r5, #36]	; 0x24
100020ee:	42a3      	cmp	r3, r4
100020f0:	d8f3      	bhi.n	100020da <_ZN22settings_storage_flash6formatEv+0xe>
100020f2:	f386 8810 	msr	PRIMASK, r6
100020f6:	bd70      	pop	{r4, r5, r6, pc}

100020f8 <_ZN22settings_storage_flashC1Ev>:
100020f8:	b510      	push	{r4, lr}
100020fa:	0004      	movs	r4, r0
100020fc:	f7fe fa62 	bl	100005c4 <_ZN16settings_storageC1Ev>
10002100:	4b09      	ldr	r3, [pc, #36]	; (10002128 <_ZN22settings_storage_flashC1Ev+0x30>)
10002102:	3308      	adds	r3, #8
10002104:	6023      	str	r3, [r4, #0]
10002106:	2311      	movs	r3, #17
10002108:	61a3      	str	r3, [r4, #24]
1000210a:	3b10      	subs	r3, #16
1000210c:	61e3      	str	r3, [r4, #28]
1000210e:	2280      	movs	r2, #128	; 0x80
10002110:	0052      	lsls	r2, r2, #1
10002112:	6222      	str	r2, [r4, #32]
10002114:	6263      	str	r3, [r4, #36]	; 0x24
10002116:	2380      	movs	r3, #128	; 0x80
10002118:	015b      	lsls	r3, r3, #5
1000211a:	62a3      	str	r3, [r4, #40]	; 0x28
1000211c:	2300      	movs	r3, #0
1000211e:	62e3      	str	r3, [r4, #44]	; 0x2c
10002120:	4b02      	ldr	r3, [pc, #8]	; (1000212c <_ZN22settings_storage_flashC1Ev+0x34>)
10002122:	6323      	str	r3, [r4, #48]	; 0x30
10002124:	0020      	movs	r0, r4
10002126:	bd10      	pop	{r4, pc}
10002128:	1002b0d0 	.word	0x1002b0d0
1000212c:	007ff000 	.word	0x007ff000

10002130 <_ZN22settings_storage_flash11read_unsafeEj>:
10002130:	6b03      	ldr	r3, [r0, #48]	; 0x30
10002132:	2280      	movs	r2, #128	; 0x80
10002134:	0552      	lsls	r2, r2, #21
10002136:	4694      	mov	ip, r2
10002138:	4463      	add	r3, ip
1000213a:	5c58      	ldrb	r0, [r3, r1]
1000213c:	4770      	bx	lr

1000213e <_ZN22settings_storage_flash4readEN14wifi_interface9CMD_INDEXE>:
1000213e:	b510      	push	{r4, lr}
10002140:	2910      	cmp	r1, #16
10002142:	d802      	bhi.n	1000214a <_ZN22settings_storage_flash4readEN14wifi_interface9CMD_INDEXE+0xc>
10002144:	f7ff fff4 	bl	10002130 <_ZN22settings_storage_flash11read_unsafeEj>
10002148:	bd10      	pop	{r4, pc}
1000214a:	2000      	movs	r0, #0
1000214c:	e7fc      	b.n	10002148 <_ZN22settings_storage_flash4readEN14wifi_interface9CMD_INDEXE+0xa>

1000214e <_ZN22settings_storage_flash5writeEN14wifi_interface9CMD_INDEXEh>:
1000214e:	b5f0      	push	{r4, r5, r6, r7, lr}
10002150:	46c6      	mov	lr, r8
10002152:	b500      	push	{lr}
10002154:	b082      	sub	sp, #8
10002156:	af00      	add	r7, sp, #0
10002158:	0005      	movs	r5, r0
1000215a:	4688      	mov	r8, r1
1000215c:	607a      	str	r2, [r7, #4]
1000215e:	2910      	cmp	r1, #16
10002160:	d83b      	bhi.n	100021da <_ZN22settings_storage_flash5writeEN14wifi_interface9CMD_INDEXEh+0x8c>
10002162:	69c3      	ldr	r3, [r0, #28]
10002164:	021b      	lsls	r3, r3, #8
10002166:	466a      	mov	r2, sp
10002168:	1ad2      	subs	r2, r2, r3
1000216a:	4695      	mov	sp, r2
1000216c:	466e      	mov	r6, sp
1000216e:	2200      	movs	r2, #0
10002170:	7032      	strb	r2, [r6, #0]
10002172:	466a      	mov	r2, sp
10002174:	3201      	adds	r2, #1
10002176:	3b02      	subs	r3, #2
10002178:	2b00      	cmp	r3, #0
1000217a:	db04      	blt.n	10002186 <_ZN22settings_storage_flash5writeEN14wifi_interface9CMD_INDEXEh+0x38>
1000217c:	2100      	movs	r1, #0
1000217e:	7011      	strb	r1, [r2, #0]
10002180:	3201      	adds	r2, #1
10002182:	3b01      	subs	r3, #1
10002184:	e7f8      	b.n	10002178 <_ZN22settings_storage_flash5writeEN14wifi_interface9CMD_INDEXEh+0x2a>
10002186:	2400      	movs	r4, #0
10002188:	e005      	b.n	10002196 <_ZN22settings_storage_flash5writeEN14wifi_interface9CMD_INDEXEh+0x48>
1000218a:	0021      	movs	r1, r4
1000218c:	0028      	movs	r0, r5
1000218e:	f7ff ffcf 	bl	10002130 <_ZN22settings_storage_flash11read_unsafeEj>
10002192:	5530      	strb	r0, [r6, r4]
10002194:	3401      	adds	r4, #1
10002196:	2c10      	cmp	r4, #16
10002198:	d9f7      	bls.n	1000218a <_ZN22settings_storage_flash5writeEN14wifi_interface9CMD_INDEXEh+0x3c>
1000219a:	4643      	mov	r3, r8
1000219c:	687a      	ldr	r2, [r7, #4]
1000219e:	54f2      	strb	r2, [r6, r3]
100021a0:	682b      	ldr	r3, [r5, #0]
100021a2:	68db      	ldr	r3, [r3, #12]
100021a4:	0028      	movs	r0, r5
100021a6:	4798      	blx	r3
100021a8:	f3ef 8810 	mrs	r8, PRIMASK
100021ac:	b672      	cpsid	i
100021ae:	2400      	movs	r4, #0
100021b0:	69eb      	ldr	r3, [r5, #28]
100021b2:	429c      	cmp	r4, r3
100021b4:	d209      	bcs.n	100021ca <_ZN22settings_storage_flash5writeEN14wifi_interface9CMD_INDEXEh+0x7c>
100021b6:	0221      	lsls	r1, r4, #8
100021b8:	6b2b      	ldr	r3, [r5, #48]	; 0x30
100021ba:	1858      	adds	r0, r3, r1
100021bc:	2280      	movs	r2, #128	; 0x80
100021be:	1871      	adds	r1, r6, r1
100021c0:	0052      	lsls	r2, r2, #1
100021c2:	f028 fd81 	bl	1002acc8 <__flash_range_program_veneer>
100021c6:	3401      	adds	r4, #1
100021c8:	e7f2      	b.n	100021b0 <_ZN22settings_storage_flash5writeEN14wifi_interface9CMD_INDEXEh+0x62>
100021ca:	f388 8810 	msr	PRIMASK, r8
100021ce:	2001      	movs	r0, #1
100021d0:	46bd      	mov	sp, r7
100021d2:	b002      	add	sp, #8
100021d4:	bc80      	pop	{r7}
100021d6:	46b8      	mov	r8, r7
100021d8:	bdf0      	pop	{r4, r5, r6, r7, pc}
100021da:	2000      	movs	r0, #0
100021dc:	e7f8      	b.n	100021d0 <_ZN22settings_storage_flash5writeEN14wifi_interface9CMD_INDEXEh+0x82>
	...

100021e0 <_Z41__static_initialization_and_destruction_0ii>:
100021e0:	b5f0      	push	{r4, r5, r6, r7, lr}
100021e2:	46ce      	mov	lr, r9
100021e4:	4647      	mov	r7, r8
100021e6:	b580      	push	{r7, lr}
100021e8:	4ce2      	ldr	r4, [pc, #904]	; (10002574 <_Z41__static_initialization_and_destruction_0ii+0x394>)
100021ea:	44a5      	add	sp, r4
100021ec:	0004      	movs	r4, r0
100021ee:	000d      	movs	r5, r1
100021f0:	2801      	cmp	r0, #1
100021f2:	d00c      	beq.n	1000220e <_Z41__static_initialization_and_destruction_0ii+0x2e>
100021f4:	2c00      	cmp	r4, #0
100021f6:	d104      	bne.n	10002202 <_Z41__static_initialization_and_destruction_0ii+0x22>
100021f8:	4bdf      	ldr	r3, [pc, #892]	; (10002578 <_Z41__static_initialization_and_destruction_0ii+0x398>)
100021fa:	429d      	cmp	r5, r3
100021fc:	d101      	bne.n	10002202 <_Z41__static_initialization_and_destruction_0ii+0x22>
100021fe:	f000 fe87 	bl	10002f10 <_Z41__static_initialization_and_destruction_0ii+0xd30>
10002202:	4bde      	ldr	r3, [pc, #888]	; (1000257c <_Z41__static_initialization_and_destruction_0ii+0x39c>)
10002204:	449d      	add	sp, r3
10002206:	bcc0      	pop	{r6, r7}
10002208:	46b9      	mov	r9, r7
1000220a:	46b0      	mov	r8, r6
1000220c:	bdf0      	pop	{r4, r5, r6, r7, pc}
1000220e:	4bda      	ldr	r3, [pc, #872]	; (10002578 <_Z41__static_initialization_and_destruction_0ii+0x398>)
10002210:	4299      	cmp	r1, r3
10002212:	d1ef      	bne.n	100021f4 <_Z41__static_initialization_and_destruction_0ii+0x14>
10002214:	4bda      	ldr	r3, [pc, #872]	; (10002580 <_Z41__static_initialization_and_destruction_0ii+0x3a0>)
10002216:	2200      	movs	r2, #0
10002218:	711a      	strb	r2, [r3, #4]
1000221a:	609a      	str	r2, [r3, #8]
1000221c:	1d19      	adds	r1, r3, #4
1000221e:	60d9      	str	r1, [r3, #12]
10002220:	6119      	str	r1, [r3, #16]
10002222:	615a      	str	r2, [r3, #20]
10002224:	4bd7      	ldr	r3, [pc, #860]	; (10002584 <_Z41__static_initialization_and_destruction_0ii+0x3a4>)
10002226:	681a      	ldr	r2, [r3, #0]
10002228:	1c56      	adds	r6, r2, #1
1000222a:	601e      	str	r6, [r3, #0]
1000222c:	2e01      	cmp	r6, #1
1000222e:	d031      	beq.n	10002294 <_Z41__static_initialization_and_destruction_0ii+0xb4>
10002230:	4ad5      	ldr	r2, [pc, #852]	; (10002588 <_Z41__static_initialization_and_destruction_0ii+0x3a8>)
10002232:	6813      	ldr	r3, [r2, #0]
10002234:	3301      	adds	r3, #1
10002236:	6013      	str	r3, [r2, #0]
10002238:	2b01      	cmp	r3, #1
1000223a:	d064      	beq.n	10002306 <_Z41__static_initialization_and_destruction_0ii+0x126>
1000223c:	4bd3      	ldr	r3, [pc, #844]	; (1000258c <_Z41__static_initialization_and_destruction_0ii+0x3ac>)
1000223e:	681a      	ldr	r2, [r3, #0]
10002240:	1c57      	adds	r7, r2, #1
10002242:	601f      	str	r7, [r3, #0]
10002244:	2f01      	cmp	r7, #1
10002246:	d068      	beq.n	1000231a <_Z41__static_initialization_and_destruction_0ii+0x13a>
10002248:	4ad1      	ldr	r2, [pc, #836]	; (10002590 <_Z41__static_initialization_and_destruction_0ii+0x3b0>)
1000224a:	6813      	ldr	r3, [r2, #0]
1000224c:	3301      	adds	r3, #1
1000224e:	6013      	str	r3, [r2, #0]
10002250:	2b01      	cmp	r3, #1
10002252:	d101      	bne.n	10002258 <_Z41__static_initialization_and_destruction_0ii+0x78>
10002254:	f000 fd9d 	bl	10002d92 <_Z41__static_initialization_and_destruction_0ii+0xbb2>
10002258:	4ace      	ldr	r2, [pc, #824]	; (10002594 <_Z41__static_initialization_and_destruction_0ii+0x3b4>)
1000225a:	6813      	ldr	r3, [r2, #0]
1000225c:	3301      	adds	r3, #1
1000225e:	6013      	str	r3, [r2, #0]
10002260:	2b01      	cmp	r3, #1
10002262:	d101      	bne.n	10002268 <_Z41__static_initialization_and_destruction_0ii+0x88>
10002264:	f000 fe36 	bl	10002ed4 <_Z41__static_initialization_and_destruction_0ii+0xcf4>
10002268:	4acb      	ldr	r2, [pc, #812]	; (10002598 <_Z41__static_initialization_and_destruction_0ii+0x3b8>)
1000226a:	6813      	ldr	r3, [r2, #0]
1000226c:	3301      	adds	r3, #1
1000226e:	6013      	str	r3, [r2, #0]
10002270:	2b01      	cmp	r3, #1
10002272:	d101      	bne.n	10002278 <_Z41__static_initialization_and_destruction_0ii+0x98>
10002274:	f000 fe44 	bl	10002f00 <_Z41__static_initialization_and_destruction_0ii+0xd20>
10002278:	4ac8      	ldr	r2, [pc, #800]	; (1000259c <_Z41__static_initialization_and_destruction_0ii+0x3bc>)
1000227a:	6813      	ldr	r3, [r2, #0]
1000227c:	3301      	adds	r3, #1
1000227e:	6013      	str	r3, [r2, #0]
10002280:	2b01      	cmp	r3, #1
10002282:	d1b7      	bne.n	100021f4 <_Z41__static_initialization_and_destruction_0ii+0x14>
10002284:	22cd      	movs	r2, #205	; 0xcd
10002286:	00d2      	lsls	r2, r2, #3
10002288:	446a      	add	r2, sp
1000228a:	49c5      	ldr	r1, [pc, #788]	; (100025a0 <_Z41__static_initialization_and_destruction_0ii+0x3c0>)
1000228c:	48c5      	ldr	r0, [pc, #788]	; (100025a4 <_Z41__static_initialization_and_destruction_0ii+0x3c4>)
1000228e:	f7fe fa01 	bl	10000694 <_ZNSt7__cxx1112basic_stringIcSt11char_traitsIcESaIcEEC1IS3_EEPKcRKS3_>
10002292:	e7af      	b.n	100021f4 <_Z41__static_initialization_and_destruction_0ii+0x14>
10002294:	aa2e      	add	r2, sp, #184	; 0xb8
10002296:	49c4      	ldr	r1, [pc, #784]	; (100025a8 <_Z41__static_initialization_and_destruction_0ii+0x3c8>)
10002298:	48c4      	ldr	r0, [pc, #784]	; (100025ac <_Z41__static_initialization_and_destruction_0ii+0x3cc>)
1000229a:	f7fe f9fb 	bl	10000694 <_ZNSt7__cxx1112basic_stringIcSt11char_traitsIcESaIcEEC1IS3_EEPKcRKS3_>
1000229e:	e010      	b.n	100022c2 <_Z41__static_initialization_and_destruction_0ii+0xe2>
100022a0:	2605      	movs	r6, #5
100022a2:	2405      	movs	r4, #5
100022a4:	1ba6      	subs	r6, r4, r6
100022a6:	3413      	adds	r4, #19
100022a8:	4374      	muls	r4, r6
100022aa:	4bc0      	ldr	r3, [pc, #768]	; (100025ac <_Z41__static_initialization_and_destruction_0ii+0x3cc>)
100022ac:	18e4      	adds	r4, r4, r3
100022ae:	4bbf      	ldr	r3, [pc, #764]	; (100025ac <_Z41__static_initialization_and_destruction_0ii+0x3cc>)
100022b0:	429c      	cmp	r4, r3
100022b2:	d101      	bne.n	100022b8 <_Z41__static_initialization_and_destruction_0ii+0xd8>
100022b4:	f000 feaa 	bl	1000300c <_Z41__static_initialization_and_destruction_0ii+0xe2c>
100022b8:	3c18      	subs	r4, #24
100022ba:	0020      	movs	r0, r4
100022bc:	f01f fb9c 	bl	100219f8 <_ZNSt7__cxx1112basic_stringIcSt11char_traitsIcESaIcEE10_M_disposeEv>
100022c0:	e7f5      	b.n	100022ae <_Z41__static_initialization_and_destruction_0ii+0xce>
100022c2:	aa2f      	add	r2, sp, #188	; 0xbc
100022c4:	49ba      	ldr	r1, [pc, #744]	; (100025b0 <_Z41__static_initialization_and_destruction_0ii+0x3d0>)
100022c6:	48bb      	ldr	r0, [pc, #748]	; (100025b4 <_Z41__static_initialization_and_destruction_0ii+0x3d4>)
100022c8:	f7fe f9e4 	bl	10000694 <_ZNSt7__cxx1112basic_stringIcSt11char_traitsIcESaIcEEC1IS3_EEPKcRKS3_>
100022cc:	e001      	b.n	100022d2 <_Z41__static_initialization_and_destruction_0ii+0xf2>
100022ce:	2604      	movs	r6, #4
100022d0:	e7e7      	b.n	100022a2 <_Z41__static_initialization_and_destruction_0ii+0xc2>
100022d2:	aa30      	add	r2, sp, #192	; 0xc0
100022d4:	49b8      	ldr	r1, [pc, #736]	; (100025b8 <_Z41__static_initialization_and_destruction_0ii+0x3d8>)
100022d6:	48b9      	ldr	r0, [pc, #740]	; (100025bc <_Z41__static_initialization_and_destruction_0ii+0x3dc>)
100022d8:	f7fe f9dc 	bl	10000694 <_ZNSt7__cxx1112basic_stringIcSt11char_traitsIcESaIcEEC1IS3_EEPKcRKS3_>
100022dc:	e001      	b.n	100022e2 <_Z41__static_initialization_and_destruction_0ii+0x102>
100022de:	2603      	movs	r6, #3
100022e0:	e7df      	b.n	100022a2 <_Z41__static_initialization_and_destruction_0ii+0xc2>
100022e2:	aa31      	add	r2, sp, #196	; 0xc4
100022e4:	49b6      	ldr	r1, [pc, #728]	; (100025c0 <_Z41__static_initialization_and_destruction_0ii+0x3e0>)
100022e6:	48b7      	ldr	r0, [pc, #732]	; (100025c4 <_Z41__static_initialization_and_destruction_0ii+0x3e4>)
100022e8:	f7fe f9d4 	bl	10000694 <_ZNSt7__cxx1112basic_stringIcSt11char_traitsIcESaIcEEC1IS3_EEPKcRKS3_>
100022ec:	aa32      	add	r2, sp, #200	; 0xc8
100022ee:	49b6      	ldr	r1, [pc, #728]	; (100025c8 <_Z41__static_initialization_and_destruction_0ii+0x3e8>)
100022f0:	48b6      	ldr	r0, [pc, #728]	; (100025cc <_Z41__static_initialization_and_destruction_0ii+0x3ec>)
100022f2:	f7fe f9cf 	bl	10000694 <_ZNSt7__cxx1112basic_stringIcSt11char_traitsIcESaIcEEC1IS3_EEPKcRKS3_>
100022f6:	aa33      	add	r2, sp, #204	; 0xcc
100022f8:	49b5      	ldr	r1, [pc, #724]	; (100025d0 <_Z41__static_initialization_and_destruction_0ii+0x3f0>)
100022fa:	48b6      	ldr	r0, [pc, #728]	; (100025d4 <_Z41__static_initialization_and_destruction_0ii+0x3f4>)
100022fc:	f7fe f9ca 	bl	10000694 <_ZNSt7__cxx1112basic_stringIcSt11char_traitsIcESaIcEEC1IS3_EEPKcRKS3_>
10002300:	e796      	b.n	10002230 <_Z41__static_initialization_and_destruction_0ii+0x50>
10002302:	2600      	movs	r6, #0
10002304:	e7cd      	b.n	100022a2 <_Z41__static_initialization_and_destruction_0ii+0xc2>
10002306:	4bb4      	ldr	r3, [pc, #720]	; (100025d8 <_Z41__static_initialization_and_destruction_0ii+0x3f8>)
10002308:	2200      	movs	r2, #0
1000230a:	701a      	strb	r2, [r3, #0]
1000230c:	605a      	str	r2, [r3, #4]
1000230e:	2102      	movs	r1, #2
10002310:	6099      	str	r1, [r3, #8]
10002312:	311c      	adds	r1, #28
10002314:	7319      	strb	r1, [r3, #12]
10002316:	735a      	strb	r2, [r3, #13]
10002318:	e790      	b.n	1000223c <_Z41__static_initialization_and_destruction_0ii+0x5c>
1000231a:	aa3a      	add	r2, sp, #232	; 0xe8
1000231c:	49a0      	ldr	r1, [pc, #640]	; (100025a0 <_Z41__static_initialization_and_destruction_0ii+0x3c0>)
1000231e:	a834      	add	r0, sp, #208	; 0xd0
10002320:	f7fe f9b8 	bl	10000694 <_ZNSt7__cxx1112basic_stringIcSt11char_traitsIcESaIcEEC1IS3_EEPKcRKS3_>
10002324:	e010      	b.n	10002348 <_Z41__static_initialization_and_destruction_0ii+0x168>
10002326:	270f      	movs	r7, #15
10002328:	230f      	movs	r3, #15
1000232a:	1bdb      	subs	r3, r3, r7
1000232c:	244c      	movs	r4, #76	; 0x4c
1000232e:	435c      	muls	r4, r3
10002330:	4baa      	ldr	r3, [pc, #680]	; (100025dc <_Z41__static_initialization_and_destruction_0ii+0x3fc>)
10002332:	18e4      	adds	r4, r4, r3
10002334:	4ba9      	ldr	r3, [pc, #676]	; (100025dc <_Z41__static_initialization_and_destruction_0ii+0x3fc>)
10002336:	429c      	cmp	r4, r3
10002338:	d101      	bne.n	1000233e <_Z41__static_initialization_and_destruction_0ii+0x15e>
1000233a:	f000 ff59 	bl	100031f0 <_Z41__static_initialization_and_destruction_0ii+0x1010>
1000233e:	3c4c      	subs	r4, #76	; 0x4c
10002340:	0020      	movs	r0, r4
10002342:	f7fe f90d 	bl	10000560 <_ZNSt11_Tuple_implILj0EJKNSt7__cxx1112basic_stringIcSt11char_traitsIcESaIcEEES6_N14wifi_interface12CMD_DATATYPEEiibSt6vectorIS5_SaIS5_EEEED1Ev>
10002346:	e7f5      	b.n	10002334 <_Z41__static_initialization_and_destruction_0ii+0x154>
10002348:	aa41      	add	r2, sp, #260	; 0x104
1000234a:	4995      	ldr	r1, [pc, #596]	; (100025a0 <_Z41__static_initialization_and_destruction_0ii+0x3c0>)
1000234c:	a83b      	add	r0, sp, #236	; 0xec
1000234e:	f7fe f9a1 	bl	10000694 <_ZNSt7__cxx1112basic_stringIcSt11char_traitsIcESaIcEEC1IS3_EEPKcRKS3_>
10002352:	2600      	movs	r6, #0
10002354:	9642      	str	r6, [sp, #264]	; 0x108
10002356:	2301      	movs	r3, #1
10002358:	425b      	negs	r3, r3
1000235a:	9343      	str	r3, [sp, #268]	; 0x10c
1000235c:	9344      	str	r3, [sp, #272]	; 0x110
1000235e:	2318      	movs	r3, #24
10002360:	33ff      	adds	r3, #255	; 0xff
10002362:	446b      	add	r3, sp
10002364:	701e      	strb	r6, [r3, #0]
10002366:	220c      	movs	r2, #12
10002368:	0031      	movs	r1, r6
1000236a:	a846      	add	r0, sp, #280	; 0x118
1000236c:	f019 fe6a 	bl	1001c044 <__wrap_memset>
10002370:	9646      	str	r6, [sp, #280]	; 0x118
10002372:	9647      	str	r6, [sp, #284]	; 0x11c
10002374:	9648      	str	r6, [sp, #288]	; 0x120
10002376:	ab46      	add	r3, sp, #280	; 0x118
10002378:	9303      	str	r3, [sp, #12]
1000237a:	2318      	movs	r3, #24
1000237c:	33ff      	adds	r3, #255	; 0xff
1000237e:	446b      	add	r3, sp
10002380:	9302      	str	r3, [sp, #8]
10002382:	ab44      	add	r3, sp, #272	; 0x110
10002384:	9301      	str	r3, [sp, #4]
10002386:	ab43      	add	r3, sp, #268	; 0x10c
10002388:	9300      	str	r3, [sp, #0]
1000238a:	ab42      	add	r3, sp, #264	; 0x108
1000238c:	aa3b      	add	r2, sp, #236	; 0xec
1000238e:	a934      	add	r1, sp, #208	; 0xd0
10002390:	4892      	ldr	r0, [pc, #584]	; (100025dc <_Z41__static_initialization_and_destruction_0ii+0x3fc>)
10002392:	f7fe fb1b 	bl	100009cc <_ZNSt11_Tuple_implILj0EJKNSt7__cxx1112basic_stringIcSt11char_traitsIcESaIcEEES6_N14wifi_interface12CMD_DATATYPEEiibSt6vectorIS5_SaIS5_EEEEC1ERS6_SD_RKS8_RKiSH_RKbRKSB_>
10002396:	a846      	add	r0, sp, #280	; 0x118
10002398:	f7fe f925 	bl	100005e6 <_ZNSt6vectorINSt7__cxx1112basic_stringIcSt11char_traitsIcESaIcEEESaIS5_EED1Ev>
1000239c:	a83b      	add	r0, sp, #236	; 0xec
1000239e:	f01f fb2b 	bl	100219f8 <_ZNSt7__cxx1112basic_stringIcSt11char_traitsIcESaIcEE10_M_disposeEv>
100023a2:	a834      	add	r0, sp, #208	; 0xd0
100023a4:	f01f fb28 	bl	100219f8 <_ZNSt7__cxx1112basic_stringIcSt11char_traitsIcESaIcEE10_M_disposeEv>
100023a8:	aa4f      	add	r2, sp, #316	; 0x13c
100023aa:	498d      	ldr	r1, [pc, #564]	; (100025e0 <_Z41__static_initialization_and_destruction_0ii+0x400>)
100023ac:	a849      	add	r0, sp, #292	; 0x124
100023ae:	f7fe f971 	bl	10000694 <_ZNSt7__cxx1112basic_stringIcSt11char_traitsIcESaIcEEC1IS3_EEPKcRKS3_>
100023b2:	e001      	b.n	100023b8 <_Z41__static_initialization_and_destruction_0ii+0x1d8>
100023b4:	270e      	movs	r7, #14
100023b6:	e7b7      	b.n	10002328 <_Z41__static_initialization_and_destruction_0ii+0x148>
100023b8:	aa56      	add	r2, sp, #344	; 0x158
100023ba:	498a      	ldr	r1, [pc, #552]	; (100025e4 <_Z41__static_initialization_and_destruction_0ii+0x404>)
100023bc:	a850      	add	r0, sp, #320	; 0x140
100023be:	f7fe f969 	bl	10000694 <_ZNSt7__cxx1112basic_stringIcSt11char_traitsIcESaIcEEC1IS3_EEPKcRKS3_>
100023c2:	2303      	movs	r3, #3
100023c4:	9357      	str	r3, [sp, #348]	; 0x15c
100023c6:	3b04      	subs	r3, #4
100023c8:	9358      	str	r3, [sp, #352]	; 0x160
100023ca:	9359      	str	r3, [sp, #356]	; 0x164
100023cc:	2600      	movs	r6, #0
100023ce:	236c      	movs	r3, #108	; 0x6c
100023d0:	33ff      	adds	r3, #255	; 0xff
100023d2:	446b      	add	r3, sp
100023d4:	701e      	strb	r6, [r3, #0]
100023d6:	220c      	movs	r2, #12
100023d8:	0031      	movs	r1, r6
100023da:	a85b      	add	r0, sp, #364	; 0x16c
100023dc:	f019 fe32 	bl	1001c044 <__wrap_memset>
100023e0:	965b      	str	r6, [sp, #364]	; 0x16c
100023e2:	965c      	str	r6, [sp, #368]	; 0x170
100023e4:	965d      	str	r6, [sp, #372]	; 0x174
100023e6:	ab5b      	add	r3, sp, #364	; 0x16c
100023e8:	9303      	str	r3, [sp, #12]
100023ea:	236c      	movs	r3, #108	; 0x6c
100023ec:	33ff      	adds	r3, #255	; 0xff
100023ee:	446b      	add	r3, sp
100023f0:	9302      	str	r3, [sp, #8]
100023f2:	ab59      	add	r3, sp, #356	; 0x164
100023f4:	9301      	str	r3, [sp, #4]
100023f6:	ab58      	add	r3, sp, #352	; 0x160
100023f8:	9300      	str	r3, [sp, #0]
100023fa:	ab57      	add	r3, sp, #348	; 0x15c
100023fc:	aa50      	add	r2, sp, #320	; 0x140
100023fe:	a949      	add	r1, sp, #292	; 0x124
10002400:	4879      	ldr	r0, [pc, #484]	; (100025e8 <_Z41__static_initialization_and_destruction_0ii+0x408>)
10002402:	f7fe fae3 	bl	100009cc <_ZNSt11_Tuple_implILj0EJKNSt7__cxx1112basic_stringIcSt11char_traitsIcESaIcEEES6_N14wifi_interface12CMD_DATATYPEEiibSt6vectorIS5_SaIS5_EEEEC1ERS6_SD_RKS8_RKiSH_RKbRKSB_>
10002406:	a85b      	add	r0, sp, #364	; 0x16c
10002408:	f7fe f8ed 	bl	100005e6 <_ZNSt6vectorINSt7__cxx1112basic_stringIcSt11char_traitsIcESaIcEEESaIS5_EED1Ev>
1000240c:	a850      	add	r0, sp, #320	; 0x140
1000240e:	f01f faf3 	bl	100219f8 <_ZNSt7__cxx1112basic_stringIcSt11char_traitsIcESaIcEE10_M_disposeEv>
10002412:	a849      	add	r0, sp, #292	; 0x124
10002414:	f01f faf0 	bl	100219f8 <_ZNSt7__cxx1112basic_stringIcSt11char_traitsIcESaIcEE10_M_disposeEv>
10002418:	aa64      	add	r2, sp, #400	; 0x190
1000241a:	4974      	ldr	r1, [pc, #464]	; (100025ec <_Z41__static_initialization_and_destruction_0ii+0x40c>)
1000241c:	a85e      	add	r0, sp, #376	; 0x178
1000241e:	f7fe f939 	bl	10000694 <_ZNSt7__cxx1112basic_stringIcSt11char_traitsIcESaIcEEC1IS3_EEPKcRKS3_>
10002422:	e001      	b.n	10002428 <_Z41__static_initialization_and_destruction_0ii+0x248>
10002424:	270d      	movs	r7, #13
10002426:	e77f      	b.n	10002328 <_Z41__static_initialization_and_destruction_0ii+0x148>
10002428:	aa6b      	add	r2, sp, #428	; 0x1ac
1000242a:	4971      	ldr	r1, [pc, #452]	; (100025f0 <_Z41__static_initialization_and_destruction_0ii+0x410>)
1000242c:	a865      	add	r0, sp, #404	; 0x194
1000242e:	f7fe f931 	bl	10000694 <_ZNSt7__cxx1112basic_stringIcSt11char_traitsIcESaIcEEC1IS3_EEPKcRKS3_>
10002432:	2303      	movs	r3, #3
10002434:	936c      	str	r3, [sp, #432]	; 0x1b0
10002436:	3b04      	subs	r3, #4
10002438:	936d      	str	r3, [sp, #436]	; 0x1b4
1000243a:	936e      	str	r3, [sp, #440]	; 0x1b8
1000243c:	2600      	movs	r6, #0
1000243e:	23c0      	movs	r3, #192	; 0xc0
10002440:	33ff      	adds	r3, #255	; 0xff
10002442:	446b      	add	r3, sp
10002444:	701e      	strb	r6, [r3, #0]
10002446:	220c      	movs	r2, #12
10002448:	0031      	movs	r1, r6
1000244a:	a870      	add	r0, sp, #448	; 0x1c0
1000244c:	f019 fdfa 	bl	1001c044 <__wrap_memset>
10002450:	9670      	str	r6, [sp, #448]	; 0x1c0
10002452:	9671      	str	r6, [sp, #452]	; 0x1c4
10002454:	9672      	str	r6, [sp, #456]	; 0x1c8
10002456:	ab70      	add	r3, sp, #448	; 0x1c0
10002458:	9303      	str	r3, [sp, #12]
1000245a:	23c0      	movs	r3, #192	; 0xc0
1000245c:	33ff      	adds	r3, #255	; 0xff
1000245e:	446b      	add	r3, sp
10002460:	9302      	str	r3, [sp, #8]
10002462:	ab6e      	add	r3, sp, #440	; 0x1b8
10002464:	9301      	str	r3, [sp, #4]
10002466:	ab6d      	add	r3, sp, #436	; 0x1b4
10002468:	9300      	str	r3, [sp, #0]
1000246a:	ab6c      	add	r3, sp, #432	; 0x1b0
1000246c:	aa65      	add	r2, sp, #404	; 0x194
1000246e:	a95e      	add	r1, sp, #376	; 0x178
10002470:	4860      	ldr	r0, [pc, #384]	; (100025f4 <_Z41__static_initialization_and_destruction_0ii+0x414>)
10002472:	f7fe faab 	bl	100009cc <_ZNSt11_Tuple_implILj0EJKNSt7__cxx1112basic_stringIcSt11char_traitsIcESaIcEEES6_N14wifi_interface12CMD_DATATYPEEiibSt6vectorIS5_SaIS5_EEEEC1ERS6_SD_RKS8_RKiSH_RKbRKSB_>
10002476:	a870      	add	r0, sp, #448	; 0x1c0
10002478:	f7fe f8b5 	bl	100005e6 <_ZNSt6vectorINSt7__cxx1112basic_stringIcSt11char_traitsIcESaIcEEESaIS5_EED1Ev>
1000247c:	a865      	add	r0, sp, #404	; 0x194
1000247e:	f01f fabb 	bl	100219f8 <_ZNSt7__cxx1112basic_stringIcSt11char_traitsIcESaIcEE10_M_disposeEv>
10002482:	a85e      	add	r0, sp, #376	; 0x178
10002484:	f01f fab8 	bl	100219f8 <_ZNSt7__cxx1112basic_stringIcSt11char_traitsIcESaIcEE10_M_disposeEv>
10002488:	aa79      	add	r2, sp, #484	; 0x1e4
1000248a:	495b      	ldr	r1, [pc, #364]	; (100025f8 <_Z41__static_initialization_and_destruction_0ii+0x418>)
1000248c:	a873      	add	r0, sp, #460	; 0x1cc
1000248e:	f7fe f901 	bl	10000694 <_ZNSt7__cxx1112basic_stringIcSt11char_traitsIcESaIcEEC1IS3_EEPKcRKS3_>
10002492:	e001      	b.n	10002498 <_Z41__static_initialization_and_destruction_0ii+0x2b8>
10002494:	270c      	movs	r7, #12
10002496:	e747      	b.n	10002328 <_Z41__static_initialization_and_destruction_0ii+0x148>
10002498:	aa80      	add	r2, sp, #512	; 0x200
1000249a:	4958      	ldr	r1, [pc, #352]	; (100025fc <_Z41__static_initialization_and_destruction_0ii+0x41c>)
1000249c:	a87a      	add	r0, sp, #488	; 0x1e8
1000249e:	f7fe f8f9 	bl	10000694 <_ZNSt7__cxx1112basic_stringIcSt11char_traitsIcESaIcEEC1IS3_EEPKcRKS3_>
100024a2:	2301      	movs	r3, #1
100024a4:	9381      	str	r3, [sp, #516]	; 0x204
100024a6:	2600      	movs	r6, #0
100024a8:	9682      	str	r6, [sp, #520]	; 0x208
100024aa:	22ff      	movs	r2, #255	; 0xff
100024ac:	4252      	negs	r2, r2
100024ae:	9283      	str	r2, [sp, #524]	; 0x20c
100024b0:	4a53      	ldr	r2, [pc, #332]	; (10002600 <_Z41__static_initialization_and_destruction_0ii+0x420>)
100024b2:	446a      	add	r2, sp
100024b4:	7013      	strb	r3, [r2, #0]
100024b6:	220c      	movs	r2, #12
100024b8:	0031      	movs	r1, r6
100024ba:	a885      	add	r0, sp, #532	; 0x214
100024bc:	f019 fdc2 	bl	1001c044 <__wrap_memset>
100024c0:	9685      	str	r6, [sp, #532]	; 0x214
100024c2:	9686      	str	r6, [sp, #536]	; 0x218
100024c4:	9687      	str	r6, [sp, #540]	; 0x21c
100024c6:	ab85      	add	r3, sp, #532	; 0x214
100024c8:	9303      	str	r3, [sp, #12]
100024ca:	4b4d      	ldr	r3, [pc, #308]	; (10002600 <_Z41__static_initialization_and_destruction_0ii+0x420>)
100024cc:	446b      	add	r3, sp
100024ce:	9302      	str	r3, [sp, #8]
100024d0:	ab83      	add	r3, sp, #524	; 0x20c
100024d2:	9301      	str	r3, [sp, #4]
100024d4:	ab82      	add	r3, sp, #520	; 0x208
100024d6:	9300      	str	r3, [sp, #0]
100024d8:	ab81      	add	r3, sp, #516	; 0x204
100024da:	aa7a      	add	r2, sp, #488	; 0x1e8
100024dc:	a973      	add	r1, sp, #460	; 0x1cc
100024de:	4849      	ldr	r0, [pc, #292]	; (10002604 <_Z41__static_initialization_and_destruction_0ii+0x424>)
100024e0:	f7fe fa74 	bl	100009cc <_ZNSt11_Tuple_implILj0EJKNSt7__cxx1112basic_stringIcSt11char_traitsIcESaIcEEES6_N14wifi_interface12CMD_DATATYPEEiibSt6vectorIS5_SaIS5_EEEEC1ERS6_SD_RKS8_RKiSH_RKbRKSB_>
100024e4:	a885      	add	r0, sp, #532	; 0x214
100024e6:	f7fe f87e 	bl	100005e6 <_ZNSt6vectorINSt7__cxx1112basic_stringIcSt11char_traitsIcESaIcEEESaIS5_EED1Ev>
100024ea:	a87a      	add	r0, sp, #488	; 0x1e8
100024ec:	f01f fa84 	bl	100219f8 <_ZNSt7__cxx1112basic_stringIcSt11char_traitsIcESaIcEE10_M_disposeEv>
100024f0:	a873      	add	r0, sp, #460	; 0x1cc
100024f2:	f01f fa81 	bl	100219f8 <_ZNSt7__cxx1112basic_stringIcSt11char_traitsIcESaIcEE10_M_disposeEv>
100024f6:	aa8e      	add	r2, sp, #568	; 0x238
100024f8:	4943      	ldr	r1, [pc, #268]	; (10002608 <_Z41__static_initialization_and_destruction_0ii+0x428>)
100024fa:	a888      	add	r0, sp, #544	; 0x220
100024fc:	f7fe f8ca 	bl	10000694 <_ZNSt7__cxx1112basic_stringIcSt11char_traitsIcESaIcEEC1IS3_EEPKcRKS3_>
10002500:	e001      	b.n	10002506 <_Z41__static_initialization_and_destruction_0ii+0x326>
10002502:	270b      	movs	r7, #11
10002504:	e710      	b.n	10002328 <_Z41__static_initialization_and_destruction_0ii+0x148>
10002506:	aa95      	add	r2, sp, #596	; 0x254
10002508:	4925      	ldr	r1, [pc, #148]	; (100025a0 <_Z41__static_initialization_and_destruction_0ii+0x3c0>)
1000250a:	a88f      	add	r0, sp, #572	; 0x23c
1000250c:	f7fe f8c2 	bl	10000694 <_ZNSt7__cxx1112basic_stringIcSt11char_traitsIcESaIcEEC1IS3_EEPKcRKS3_>
10002510:	2303      	movs	r3, #3
10002512:	9396      	str	r3, [sp, #600]	; 0x258
10002514:	3b04      	subs	r3, #4
10002516:	9397      	str	r3, [sp, #604]	; 0x25c
10002518:	9398      	str	r3, [sp, #608]	; 0x260
1000251a:	2600      	movs	r6, #0
1000251c:	4b3b      	ldr	r3, [pc, #236]	; (1000260c <_Z41__static_initialization_and_destruction_0ii+0x42c>)
1000251e:	446b      	add	r3, sp
10002520:	701e      	strb	r6, [r3, #0]
10002522:	220c      	movs	r2, #12
10002524:	0031      	movs	r1, r6
10002526:	a89a      	add	r0, sp, #616	; 0x268
10002528:	f019 fd8c 	bl	1001c044 <__wrap_memset>
1000252c:	969a      	str	r6, [sp, #616]	; 0x268
1000252e:	969b      	str	r6, [sp, #620]	; 0x26c
10002530:	969c      	str	r6, [sp, #624]	; 0x270
10002532:	ab9a      	add	r3, sp, #616	; 0x268
10002534:	9303      	str	r3, [sp, #12]
10002536:	4b35      	ldr	r3, [pc, #212]	; (1000260c <_Z41__static_initialization_and_destruction_0ii+0x42c>)
10002538:	446b      	add	r3, sp
1000253a:	9302      	str	r3, [sp, #8]
1000253c:	ab98      	add	r3, sp, #608	; 0x260
1000253e:	9301      	str	r3, [sp, #4]
10002540:	ab97      	add	r3, sp, #604	; 0x25c
10002542:	9300      	str	r3, [sp, #0]
10002544:	ab96      	add	r3, sp, #600	; 0x258
10002546:	aa8f      	add	r2, sp, #572	; 0x23c
10002548:	a988      	add	r1, sp, #544	; 0x220
1000254a:	4831      	ldr	r0, [pc, #196]	; (10002610 <_Z41__static_initialization_and_destruction_0ii+0x430>)
1000254c:	f7fe fa3e 	bl	100009cc <_ZNSt11_Tuple_implILj0EJKNSt7__cxx1112basic_stringIcSt11char_traitsIcESaIcEEES6_N14wifi_interface12CMD_DATATYPEEiibSt6vectorIS5_SaIS5_EEEEC1ERS6_SD_RKS8_RKiSH_RKbRKSB_>
10002550:	a89a      	add	r0, sp, #616	; 0x268
10002552:	f7fe f848 	bl	100005e6 <_ZNSt6vectorINSt7__cxx1112basic_stringIcSt11char_traitsIcESaIcEEESaIS5_EED1Ev>
10002556:	a88f      	add	r0, sp, #572	; 0x23c
10002558:	f01f fa4e 	bl	100219f8 <_ZNSt7__cxx1112basic_stringIcSt11char_traitsIcESaIcEE10_M_disposeEv>
1000255c:	a888      	add	r0, sp, #544	; 0x220
1000255e:	f01f fa4b 	bl	100219f8 <_ZNSt7__cxx1112basic_stringIcSt11char_traitsIcESaIcEE10_M_disposeEv>
10002562:	aaa3      	add	r2, sp, #652	; 0x28c
10002564:	492b      	ldr	r1, [pc, #172]	; (10002614 <_Z41__static_initialization_and_destruction_0ii+0x434>)
10002566:	a89d      	add	r0, sp, #628	; 0x274
10002568:	f7fe f894 	bl	10000694 <_ZNSt7__cxx1112basic_stringIcSt11char_traitsIcESaIcEEC1IS3_EEPKcRKS3_>
1000256c:	e054      	b.n	10002618 <_Z41__static_initialization_and_destruction_0ii+0x438>
1000256e:	270a      	movs	r7, #10
10002570:	e6da      	b.n	10002328 <_Z41__static_initialization_and_destruction_0ii+0x148>
10002572:	46c0      	nop			; (mov r8, r8)
10002574:	fffff944 	.word	0xfffff944
10002578:	0000ffff 	.word	0x0000ffff
1000257c:	000006bc 	.word	0x000006bc
10002580:	20002c40 	.word	0x20002c40
10002584:	20001ff8 	.word	0x20001ff8
10002588:	20001ffc 	.word	0x20001ffc
1000258c:	20001ff4 	.word	0x20001ff4
10002590:	20001ff0 	.word	0x20001ff0
10002594:	20001fec 	.word	0x20001fec
10002598:	20001fe4 	.word	0x20001fe4
1000259c:	20001fe8 	.word	0x20001fe8
100025a0:	1002c1c4 	.word	0x1002c1c4
100025a4:	20002048 	.word	0x20002048
100025a8:	1002ae8c 	.word	0x1002ae8c
100025ac:	20002564 	.word	0x20002564
100025b0:	1002ae94 	.word	0x1002ae94
100025b4:	2000257c 	.word	0x2000257c
100025b8:	1002ae9c 	.word	0x1002ae9c
100025bc:	20002594 	.word	0x20002594
100025c0:	1002aea4 	.word	0x1002aea4
100025c4:	200025ac 	.word	0x200025ac
100025c8:	1002aeac 	.word	0x1002aeac
100025cc:	200025c4 	.word	0x200025c4
100025d0:	1002aeb4 	.word	0x1002aeb4
100025d4:	200025dc 	.word	0x200025dc
100025d8:	200025f4 	.word	0x200025f4
100025dc:	200020a4 	.word	0x200020a4
100025e0:	1002aebc 	.word	0x1002aebc
100025e4:	1002aec0 	.word	0x1002aec0
100025e8:	200020f0 	.word	0x200020f0
100025ec:	10030ae0 	.word	0x10030ae0
100025f0:	1002aec4 	.word	0x1002aec4
100025f4:	2000213c 	.word	0x2000213c
100025f8:	1002aed0 	.word	0x1002aed0
100025fc:	1002aed4 	.word	0x1002aed4
10002600:	00000213 	.word	0x00000213
10002604:	20002188 	.word	0x20002188
10002608:	1002aee4 	.word	0x1002aee4
1000260c:	00000267 	.word	0x00000267
10002610:	200021d4 	.word	0x200021d4
10002614:	1002aee8 	.word	0x1002aee8
10002618:	aaaa      	add	r2, sp, #680	; 0x2a8
1000261a:	49ec      	ldr	r1, [pc, #944]	; (100029cc <_Z41__static_initialization_and_destruction_0ii+0x7ec>)
1000261c:	a8a4      	add	r0, sp, #656	; 0x290
1000261e:	f7fe f839 	bl	10000694 <_ZNSt7__cxx1112basic_stringIcSt11char_traitsIcESaIcEEC1IS3_EEPKcRKS3_>
10002622:	2304      	movs	r3, #4
10002624:	93ab      	str	r3, [sp, #684]	; 0x2ac
10002626:	2300      	movs	r3, #0
10002628:	93ac      	str	r3, [sp, #688]	; 0x2b0
1000262a:	3305      	adds	r3, #5
1000262c:	93ad      	str	r3, [sp, #692]	; 0x2b4
1000262e:	4be8      	ldr	r3, [pc, #928]	; (100029d0 <_Z41__static_initialization_and_destruction_0ii+0x7f0>)
10002630:	446b      	add	r3, sp
10002632:	2201      	movs	r2, #1
10002634:	701a      	strb	r2, [r3, #0]
10002636:	aab4      	add	r2, sp, #720	; 0x2d0
10002638:	49e6      	ldr	r1, [pc, #920]	; (100029d4 <_Z41__static_initialization_and_destruction_0ii+0x7f4>)
1000263a:	a80a      	add	r0, sp, #40	; 0x28
1000263c:	f7fe f82a 	bl	10000694 <_ZNSt7__cxx1112basic_stringIcSt11char_traitsIcESaIcEEC1IS3_EEPKcRKS3_>
10002640:	aab5      	add	r2, sp, #724	; 0x2d4
10002642:	49e5      	ldr	r1, [pc, #916]	; (100029d8 <_Z41__static_initialization_and_destruction_0ii+0x7f8>)
10002644:	a810      	add	r0, sp, #64	; 0x40
10002646:	f7fe f825 	bl	10000694 <_ZNSt7__cxx1112basic_stringIcSt11char_traitsIcESaIcEEC1IS3_EEPKcRKS3_>
1000264a:	aab6      	add	r2, sp, #728	; 0x2d8
1000264c:	49e3      	ldr	r1, [pc, #908]	; (100029dc <_Z41__static_initialization_and_destruction_0ii+0x7fc>)
1000264e:	a816      	add	r0, sp, #88	; 0x58
10002650:	f7fe f820 	bl	10000694 <_ZNSt7__cxx1112basic_stringIcSt11char_traitsIcESaIcEEC1IS3_EEPKcRKS3_>
10002654:	aab7      	add	r2, sp, #732	; 0x2dc
10002656:	49e2      	ldr	r1, [pc, #904]	; (100029e0 <_Z41__static_initialization_and_destruction_0ii+0x800>)
10002658:	a81c      	add	r0, sp, #112	; 0x70
1000265a:	f7fe f81b 	bl	10000694 <_ZNSt7__cxx1112basic_stringIcSt11char_traitsIcESaIcEEC1IS3_EEPKcRKS3_>
1000265e:	aab8      	add	r2, sp, #736	; 0x2e0
10002660:	49e0      	ldr	r1, [pc, #896]	; (100029e4 <_Z41__static_initialization_and_destruction_0ii+0x804>)
10002662:	a822      	add	r0, sp, #136	; 0x88
10002664:	f7fe f816 	bl	10000694 <_ZNSt7__cxx1112basic_stringIcSt11char_traitsIcESaIcEEC1IS3_EEPKcRKS3_>
10002668:	aab9      	add	r2, sp, #740	; 0x2e4
1000266a:	49df      	ldr	r1, [pc, #892]	; (100029e8 <_Z41__static_initialization_and_destruction_0ii+0x808>)
1000266c:	a828      	add	r0, sp, #160	; 0xa0
1000266e:	f7fe f811 	bl	10000694 <_ZNSt7__cxx1112basic_stringIcSt11char_traitsIcESaIcEEC1IS3_EEPKcRKS3_>
10002672:	a90a      	add	r1, sp, #40	; 0x28
10002674:	91b2      	str	r1, [sp, #712]	; 0x2c8
10002676:	2206      	movs	r2, #6
10002678:	92b3      	str	r2, [sp, #716]	; 0x2cc
1000267a:	abba      	add	r3, sp, #744	; 0x2e8
1000267c:	a8af      	add	r0, sp, #700	; 0x2bc
1000267e:	f7fe f93b 	bl	100008f8 <_ZNSt6vectorINSt7__cxx1112basic_stringIcSt11char_traitsIcESaIcEEESaIS5_EEC1ESt16initializer_listIS5_ERKS6_>
10002682:	e00a      	b.n	1000269a <_Z41__static_initialization_and_destruction_0ii+0x4ba>
10002684:	ac2e      	add	r4, sp, #184	; 0xb8
10002686:	ab0a      	add	r3, sp, #40	; 0x28
10002688:	429c      	cmp	r4, r3
1000268a:	d101      	bne.n	10002690 <_Z41__static_initialization_and_destruction_0ii+0x4b0>
1000268c:	f000 fd07 	bl	1000309e <_Z41__static_initialization_and_destruction_0ii+0xebe>
10002690:	3c18      	subs	r4, #24
10002692:	0020      	movs	r0, r4
10002694:	f01f f9b0 	bl	100219f8 <_ZNSt7__cxx1112basic_stringIcSt11char_traitsIcESaIcEE10_M_disposeEv>
10002698:	e7f5      	b.n	10002686 <_Z41__static_initialization_and_destruction_0ii+0x4a6>
1000269a:	abaf      	add	r3, sp, #700	; 0x2bc
1000269c:	9303      	str	r3, [sp, #12]
1000269e:	4bcc      	ldr	r3, [pc, #816]	; (100029d0 <_Z41__static_initialization_and_destruction_0ii+0x7f0>)
100026a0:	446b      	add	r3, sp
100026a2:	9302      	str	r3, [sp, #8]
100026a4:	abad      	add	r3, sp, #692	; 0x2b4
100026a6:	9301      	str	r3, [sp, #4]
100026a8:	abac      	add	r3, sp, #688	; 0x2b0
100026aa:	9300      	str	r3, [sp, #0]
100026ac:	abab      	add	r3, sp, #684	; 0x2ac
100026ae:	aaa4      	add	r2, sp, #656	; 0x290
100026b0:	a99d      	add	r1, sp, #628	; 0x274
100026b2:	48ce      	ldr	r0, [pc, #824]	; (100029ec <_Z41__static_initialization_and_destruction_0ii+0x80c>)
100026b4:	f7fe f98a 	bl	100009cc <_ZNSt11_Tuple_implILj0EJKNSt7__cxx1112basic_stringIcSt11char_traitsIcESaIcEEES6_N14wifi_interface12CMD_DATATYPEEiibSt6vectorIS5_SaIS5_EEEEC1ERS6_SD_RKS8_RKiSH_RKbRKSB_>
100026b8:	a8af      	add	r0, sp, #700	; 0x2bc
100026ba:	f7fd ff94 	bl	100005e6 <_ZNSt6vectorINSt7__cxx1112basic_stringIcSt11char_traitsIcESaIcEEESaIS5_EED1Ev>
100026be:	ae2e      	add	r6, sp, #184	; 0xb8
100026c0:	ab0a      	add	r3, sp, #40	; 0x28
100026c2:	429e      	cmp	r6, r3
100026c4:	d004      	beq.n	100026d0 <_Z41__static_initialization_and_destruction_0ii+0x4f0>
100026c6:	3e18      	subs	r6, #24
100026c8:	0030      	movs	r0, r6
100026ca:	f01f f995 	bl	100219f8 <_ZNSt7__cxx1112basic_stringIcSt11char_traitsIcESaIcEE10_M_disposeEv>
100026ce:	e7f7      	b.n	100026c0 <_Z41__static_initialization_and_destruction_0ii+0x4e0>
100026d0:	a8a4      	add	r0, sp, #656	; 0x290
100026d2:	f01f f991 	bl	100219f8 <_ZNSt7__cxx1112basic_stringIcSt11char_traitsIcESaIcEE10_M_disposeEv>
100026d6:	a89d      	add	r0, sp, #628	; 0x274
100026d8:	f01f f98e 	bl	100219f8 <_ZNSt7__cxx1112basic_stringIcSt11char_traitsIcESaIcEE10_M_disposeEv>
100026dc:	aac1      	add	r2, sp, #772	; 0x304
100026de:	49c4      	ldr	r1, [pc, #784]	; (100029f0 <_Z41__static_initialization_and_destruction_0ii+0x810>)
100026e0:	a8bb      	add	r0, sp, #748	; 0x2ec
100026e2:	f7fd ffd7 	bl	10000694 <_ZNSt7__cxx1112basic_stringIcSt11char_traitsIcESaIcEEC1IS3_EEPKcRKS3_>
100026e6:	e001      	b.n	100026ec <_Z41__static_initialization_and_destruction_0ii+0x50c>
100026e8:	2709      	movs	r7, #9
100026ea:	e61d      	b.n	10002328 <_Z41__static_initialization_and_destruction_0ii+0x148>
100026ec:	aac8      	add	r2, sp, #800	; 0x320
100026ee:	49c1      	ldr	r1, [pc, #772]	; (100029f4 <_Z41__static_initialization_and_destruction_0ii+0x814>)
100026f0:	a8c2      	add	r0, sp, #776	; 0x308
100026f2:	f7fd ffcf 	bl	10000694 <_ZNSt7__cxx1112basic_stringIcSt11char_traitsIcESaIcEEC1IS3_EEPKcRKS3_>
100026f6:	2302      	movs	r3, #2
100026f8:	93c9      	str	r3, [sp, #804]	; 0x324
100026fa:	3b03      	subs	r3, #3
100026fc:	93ca      	str	r3, [sp, #808]	; 0x328
100026fe:	93cb      	str	r3, [sp, #812]	; 0x32c
10002700:	4bbd      	ldr	r3, [pc, #756]	; (100029f8 <_Z41__static_initialization_and_destruction_0ii+0x818>)
10002702:	446b      	add	r3, sp
10002704:	2201      	movs	r2, #1
10002706:	701a      	strb	r2, [r3, #0]
10002708:	320b      	adds	r2, #11
1000270a:	2100      	movs	r1, #0
1000270c:	a8cd      	add	r0, sp, #820	; 0x334
1000270e:	f019 fc99 	bl	1001c044 <__wrap_memset>
10002712:	2300      	movs	r3, #0
10002714:	93cd      	str	r3, [sp, #820]	; 0x334
10002716:	93ce      	str	r3, [sp, #824]	; 0x338
10002718:	93cf      	str	r3, [sp, #828]	; 0x33c
1000271a:	abcd      	add	r3, sp, #820	; 0x334
1000271c:	9303      	str	r3, [sp, #12]
1000271e:	4bb6      	ldr	r3, [pc, #728]	; (100029f8 <_Z41__static_initialization_and_destruction_0ii+0x818>)
10002720:	446b      	add	r3, sp
10002722:	9302      	str	r3, [sp, #8]
10002724:	abcb      	add	r3, sp, #812	; 0x32c
10002726:	9301      	str	r3, [sp, #4]
10002728:	abca      	add	r3, sp, #808	; 0x328
1000272a:	9300      	str	r3, [sp, #0]
1000272c:	abc9      	add	r3, sp, #804	; 0x324
1000272e:	aac2      	add	r2, sp, #776	; 0x308
10002730:	a9bb      	add	r1, sp, #748	; 0x2ec
10002732:	48b2      	ldr	r0, [pc, #712]	; (100029fc <_Z41__static_initialization_and_destruction_0ii+0x81c>)
10002734:	f7fe f94a 	bl	100009cc <_ZNSt11_Tuple_implILj0EJKNSt7__cxx1112basic_stringIcSt11char_traitsIcESaIcEEES6_N14wifi_interface12CMD_DATATYPEEiibSt6vectorIS5_SaIS5_EEEEC1ERS6_SD_RKS8_RKiSH_RKbRKSB_>
10002738:	a8cd      	add	r0, sp, #820	; 0x334
1000273a:	f7fd ff54 	bl	100005e6 <_ZNSt6vectorINSt7__cxx1112basic_stringIcSt11char_traitsIcESaIcEEESaIS5_EED1Ev>
1000273e:	a8c2      	add	r0, sp, #776	; 0x308
10002740:	f01f f95a 	bl	100219f8 <_ZNSt7__cxx1112basic_stringIcSt11char_traitsIcESaIcEE10_M_disposeEv>
10002744:	a8bb      	add	r0, sp, #748	; 0x2ec
10002746:	f01f f957 	bl	100219f8 <_ZNSt7__cxx1112basic_stringIcSt11char_traitsIcESaIcEE10_M_disposeEv>
1000274a:	aad6      	add	r2, sp, #856	; 0x358
1000274c:	49ac      	ldr	r1, [pc, #688]	; (10002a00 <_Z41__static_initialization_and_destruction_0ii+0x820>)
1000274e:	a8d0      	add	r0, sp, #832	; 0x340
10002750:	f7fd ffa0 	bl	10000694 <_ZNSt7__cxx1112basic_stringIcSt11char_traitsIcESaIcEEC1IS3_EEPKcRKS3_>
10002754:	e001      	b.n	1000275a <_Z41__static_initialization_and_destruction_0ii+0x57a>
10002756:	2708      	movs	r7, #8
10002758:	e5e6      	b.n	10002328 <_Z41__static_initialization_and_destruction_0ii+0x148>
1000275a:	aadd      	add	r2, sp, #884	; 0x374
1000275c:	49a9      	ldr	r1, [pc, #676]	; (10002a04 <_Z41__static_initialization_and_destruction_0ii+0x824>)
1000275e:	a8d7      	add	r0, sp, #860	; 0x35c
10002760:	f7fd ff98 	bl	10000694 <_ZNSt7__cxx1112basic_stringIcSt11char_traitsIcESaIcEEC1IS3_EEPKcRKS3_>
10002764:	2301      	movs	r3, #1
10002766:	93de      	str	r3, [sp, #888]	; 0x378
10002768:	220a      	movs	r2, #10
1000276a:	92df      	str	r2, [sp, #892]	; 0x37c
1000276c:	325a      	adds	r2, #90	; 0x5a
1000276e:	92e0      	str	r2, [sp, #896]	; 0x380
10002770:	4aa5      	ldr	r2, [pc, #660]	; (10002a08 <_Z41__static_initialization_and_destruction_0ii+0x828>)
10002772:	446a      	add	r2, sp
10002774:	7013      	strb	r3, [r2, #0]
10002776:	220c      	movs	r2, #12
10002778:	2100      	movs	r1, #0
1000277a:	a8e2      	add	r0, sp, #904	; 0x388
1000277c:	f019 fc62 	bl	1001c044 <__wrap_memset>
10002780:	2300      	movs	r3, #0
10002782:	93e2      	str	r3, [sp, #904]	; 0x388
10002784:	93e3      	str	r3, [sp, #908]	; 0x38c
10002786:	93e4      	str	r3, [sp, #912]	; 0x390
10002788:	abe2      	add	r3, sp, #904	; 0x388
1000278a:	9303      	str	r3, [sp, #12]
1000278c:	4b9e      	ldr	r3, [pc, #632]	; (10002a08 <_Z41__static_initialization_and_destruction_0ii+0x828>)
1000278e:	446b      	add	r3, sp
10002790:	9302      	str	r3, [sp, #8]
10002792:	abe0      	add	r3, sp, #896	; 0x380
10002794:	9301      	str	r3, [sp, #4]
10002796:	abdf      	add	r3, sp, #892	; 0x37c
10002798:	9300      	str	r3, [sp, #0]
1000279a:	abde      	add	r3, sp, #888	; 0x378
1000279c:	aad7      	add	r2, sp, #860	; 0x35c
1000279e:	a9d0      	add	r1, sp, #832	; 0x340
100027a0:	489a      	ldr	r0, [pc, #616]	; (10002a0c <_Z41__static_initialization_and_destruction_0ii+0x82c>)
100027a2:	f7fe f913 	bl	100009cc <_ZNSt11_Tuple_implILj0EJKNSt7__cxx1112basic_stringIcSt11char_traitsIcESaIcEEES6_N14wifi_interface12CMD_DATATYPEEiibSt6vectorIS5_SaIS5_EEEEC1ERS6_SD_RKS8_RKiSH_RKbRKSB_>
100027a6:	a8e2      	add	r0, sp, #904	; 0x388
100027a8:	f7fd ff1d 	bl	100005e6 <_ZNSt6vectorINSt7__cxx1112basic_stringIcSt11char_traitsIcESaIcEEESaIS5_EED1Ev>
100027ac:	a8d7      	add	r0, sp, #860	; 0x35c
100027ae:	f01f f923 	bl	100219f8 <_ZNSt7__cxx1112basic_stringIcSt11char_traitsIcESaIcEE10_M_disposeEv>
100027b2:	a8d0      	add	r0, sp, #832	; 0x340
100027b4:	f01f f920 	bl	100219f8 <_ZNSt7__cxx1112basic_stringIcSt11char_traitsIcESaIcEE10_M_disposeEv>
100027b8:	aaeb      	add	r2, sp, #940	; 0x3ac
100027ba:	4995      	ldr	r1, [pc, #596]	; (10002a10 <_Z41__static_initialization_and_destruction_0ii+0x830>)
100027bc:	a8e5      	add	r0, sp, #916	; 0x394
100027be:	f7fd ff69 	bl	10000694 <_ZNSt7__cxx1112basic_stringIcSt11char_traitsIcESaIcEEC1IS3_EEPKcRKS3_>
100027c2:	e001      	b.n	100027c8 <_Z41__static_initialization_and_destruction_0ii+0x5e8>
100027c4:	2707      	movs	r7, #7
100027c6:	e5af      	b.n	10002328 <_Z41__static_initialization_and_destruction_0ii+0x148>
100027c8:	aaf2      	add	r2, sp, #968	; 0x3c8
100027ca:	4992      	ldr	r1, [pc, #584]	; (10002a14 <_Z41__static_initialization_and_destruction_0ii+0x834>)
100027cc:	a8ec      	add	r0, sp, #944	; 0x3b0
100027ce:	f7fd ff61 	bl	10000694 <_ZNSt7__cxx1112basic_stringIcSt11char_traitsIcESaIcEEC1IS3_EEPKcRKS3_>
100027d2:	2303      	movs	r3, #3
100027d4:	93f3      	str	r3, [sp, #972]	; 0x3cc
100027d6:	3b04      	subs	r3, #4
100027d8:	93f4      	str	r3, [sp, #976]	; 0x3d0
100027da:	93f5      	str	r3, [sp, #980]	; 0x3d4
100027dc:	2600      	movs	r6, #0
100027de:	4b8e      	ldr	r3, [pc, #568]	; (10002a18 <_Z41__static_initialization_and_destruction_0ii+0x838>)
100027e0:	446b      	add	r3, sp
100027e2:	701e      	strb	r6, [r3, #0]
100027e4:	220c      	movs	r2, #12
100027e6:	0031      	movs	r1, r6
100027e8:	a8f7      	add	r0, sp, #988	; 0x3dc
100027ea:	f019 fc2b 	bl	1001c044 <__wrap_memset>
100027ee:	96f7      	str	r6, [sp, #988]	; 0x3dc
100027f0:	96f8      	str	r6, [sp, #992]	; 0x3e0
100027f2:	96f9      	str	r6, [sp, #996]	; 0x3e4
100027f4:	abf7      	add	r3, sp, #988	; 0x3dc
100027f6:	9303      	str	r3, [sp, #12]
100027f8:	4b87      	ldr	r3, [pc, #540]	; (10002a18 <_Z41__static_initialization_and_destruction_0ii+0x838>)
100027fa:	446b      	add	r3, sp
100027fc:	9302      	str	r3, [sp, #8]
100027fe:	abf5      	add	r3, sp, #980	; 0x3d4
10002800:	9301      	str	r3, [sp, #4]
10002802:	abf4      	add	r3, sp, #976	; 0x3d0
10002804:	9300      	str	r3, [sp, #0]
10002806:	abf3      	add	r3, sp, #972	; 0x3cc
10002808:	aaec      	add	r2, sp, #944	; 0x3b0
1000280a:	a9e5      	add	r1, sp, #916	; 0x394
1000280c:	4883      	ldr	r0, [pc, #524]	; (10002a1c <_Z41__static_initialization_and_destruction_0ii+0x83c>)
1000280e:	f7fe f8dd 	bl	100009cc <_ZNSt11_Tuple_implILj0EJKNSt7__cxx1112basic_stringIcSt11char_traitsIcESaIcEEES6_N14wifi_interface12CMD_DATATYPEEiibSt6vectorIS5_SaIS5_EEEEC1ERS6_SD_RKS8_RKiSH_RKbRKSB_>
10002812:	a8f7      	add	r0, sp, #988	; 0x3dc
10002814:	f7fd fee7 	bl	100005e6 <_ZNSt6vectorINSt7__cxx1112basic_stringIcSt11char_traitsIcESaIcEEESaIS5_EED1Ev>
10002818:	a8ec      	add	r0, sp, #944	; 0x3b0
1000281a:	f01f f8ed 	bl	100219f8 <_ZNSt7__cxx1112basic_stringIcSt11char_traitsIcESaIcEE10_M_disposeEv>
1000281e:	a8e5      	add	r0, sp, #916	; 0x394
10002820:	f01f f8ea 	bl	100219f8 <_ZNSt7__cxx1112basic_stringIcSt11char_traitsIcESaIcEE10_M_disposeEv>
10002824:	aaff      	add	r2, sp, #1020	; 0x3fc
10002826:	3204      	adds	r2, #4
10002828:	497d      	ldr	r1, [pc, #500]	; (10002a20 <_Z41__static_initialization_and_destruction_0ii+0x840>)
1000282a:	a8fa      	add	r0, sp, #1000	; 0x3e8
1000282c:	f7fd ff32 	bl	10000694 <_ZNSt7__cxx1112basic_stringIcSt11char_traitsIcESaIcEEC1IS3_EEPKcRKS3_>
10002830:	e001      	b.n	10002836 <_Z41__static_initialization_and_destruction_0ii+0x656>
10002832:	2706      	movs	r7, #6
10002834:	e578      	b.n	10002328 <_Z41__static_initialization_and_destruction_0ii+0x148>
10002836:	aaff      	add	r2, sp, #1020	; 0x3fc
10002838:	3220      	adds	r2, #32
1000283a:	497a      	ldr	r1, [pc, #488]	; (10002a24 <_Z41__static_initialization_and_destruction_0ii+0x844>)
1000283c:	a8ff      	add	r0, sp, #1020	; 0x3fc
1000283e:	3008      	adds	r0, #8
10002840:	f7fd ff28 	bl	10000694 <_ZNSt7__cxx1112basic_stringIcSt11char_traitsIcESaIcEEC1IS3_EEPKcRKS3_>
10002844:	2302      	movs	r3, #2
10002846:	aaff      	add	r2, sp, #1020	; 0x3fc
10002848:	3224      	adds	r2, #36	; 0x24
1000284a:	6013      	str	r3, [r2, #0]
1000284c:	3b03      	subs	r3, #3
1000284e:	aaff      	add	r2, sp, #1020	; 0x3fc
10002850:	3228      	adds	r2, #40	; 0x28
10002852:	6013      	str	r3, [r2, #0]
10002854:	aaff      	add	r2, sp, #1020	; 0x3fc
10002856:	322c      	adds	r2, #44	; 0x2c
10002858:	6013      	str	r3, [r2, #0]
1000285a:	abff      	add	r3, sp, #1020	; 0x3fc
1000285c:	3333      	adds	r3, #51	; 0x33
1000285e:	2201      	movs	r2, #1
10002860:	701a      	strb	r2, [r3, #0]
10002862:	320b      	adds	r2, #11
10002864:	2100      	movs	r1, #0
10002866:	a8ff      	add	r0, sp, #1020	; 0x3fc
10002868:	3034      	adds	r0, #52	; 0x34
1000286a:	f019 fbeb 	bl	1001c044 <__wrap_memset>
1000286e:	2300      	movs	r3, #0
10002870:	aaff      	add	r2, sp, #1020	; 0x3fc
10002872:	3234      	adds	r2, #52	; 0x34
10002874:	6013      	str	r3, [r2, #0]
10002876:	aaff      	add	r2, sp, #1020	; 0x3fc
10002878:	3238      	adds	r2, #56	; 0x38
1000287a:	6013      	str	r3, [r2, #0]
1000287c:	aaff      	add	r2, sp, #1020	; 0x3fc
1000287e:	323c      	adds	r2, #60	; 0x3c
10002880:	6013      	str	r3, [r2, #0]
10002882:	abff      	add	r3, sp, #1020	; 0x3fc
10002884:	3334      	adds	r3, #52	; 0x34
10002886:	9303      	str	r3, [sp, #12]
10002888:	abff      	add	r3, sp, #1020	; 0x3fc
1000288a:	3333      	adds	r3, #51	; 0x33
1000288c:	9302      	str	r3, [sp, #8]
1000288e:	abff      	add	r3, sp, #1020	; 0x3fc
10002890:	332c      	adds	r3, #44	; 0x2c
10002892:	9301      	str	r3, [sp, #4]
10002894:	abff      	add	r3, sp, #1020	; 0x3fc
10002896:	3328      	adds	r3, #40	; 0x28
10002898:	9300      	str	r3, [sp, #0]
1000289a:	abff      	add	r3, sp, #1020	; 0x3fc
1000289c:	3324      	adds	r3, #36	; 0x24
1000289e:	aaff      	add	r2, sp, #1020	; 0x3fc
100028a0:	3208      	adds	r2, #8
100028a2:	a9fa      	add	r1, sp, #1000	; 0x3e8
100028a4:	4860      	ldr	r0, [pc, #384]	; (10002a28 <_Z41__static_initialization_and_destruction_0ii+0x848>)
100028a6:	f7fe f891 	bl	100009cc <_ZNSt11_Tuple_implILj0EJKNSt7__cxx1112basic_stringIcSt11char_traitsIcESaIcEEES6_N14wifi_interface12CMD_DATATYPEEiibSt6vectorIS5_SaIS5_EEEEC1ERS6_SD_RKS8_RKiSH_RKbRKSB_>
100028aa:	a8ff      	add	r0, sp, #1020	; 0x3fc
100028ac:	3034      	adds	r0, #52	; 0x34
100028ae:	f7fd fe9a 	bl	100005e6 <_ZNSt6vectorINSt7__cxx1112basic_stringIcSt11char_traitsIcESaIcEEESaIS5_EED1Ev>
100028b2:	a8ff      	add	r0, sp, #1020	; 0x3fc
100028b4:	3008      	adds	r0, #8
100028b6:	f01f f89f 	bl	100219f8 <_ZNSt7__cxx1112basic_stringIcSt11char_traitsIcESaIcEE10_M_disposeEv>
100028ba:	a8fa      	add	r0, sp, #1000	; 0x3e8
100028bc:	f01f f89c 	bl	100219f8 <_ZNSt7__cxx1112basic_stringIcSt11char_traitsIcESaIcEE10_M_disposeEv>
100028c0:	aaff      	add	r2, sp, #1020	; 0x3fc
100028c2:	3258      	adds	r2, #88	; 0x58
100028c4:	4959      	ldr	r1, [pc, #356]	; (10002a2c <_Z41__static_initialization_and_destruction_0ii+0x84c>)
100028c6:	a8ff      	add	r0, sp, #1020	; 0x3fc
100028c8:	3040      	adds	r0, #64	; 0x40
100028ca:	f7fd fee3 	bl	10000694 <_ZNSt7__cxx1112basic_stringIcSt11char_traitsIcESaIcEEC1IS3_EEPKcRKS3_>
100028ce:	e001      	b.n	100028d4 <_Z41__static_initialization_and_destruction_0ii+0x6f4>
100028d0:	2705      	movs	r7, #5
100028d2:	e529      	b.n	10002328 <_Z41__static_initialization_and_destruction_0ii+0x148>
100028d4:	aaff      	add	r2, sp, #1020	; 0x3fc
100028d6:	3274      	adds	r2, #116	; 0x74
100028d8:	4955      	ldr	r1, [pc, #340]	; (10002a30 <_Z41__static_initialization_and_destruction_0ii+0x850>)
100028da:	a8ff      	add	r0, sp, #1020	; 0x3fc
100028dc:	305c      	adds	r0, #92	; 0x5c
100028de:	f7fd fed9 	bl	10000694 <_ZNSt7__cxx1112basic_stringIcSt11char_traitsIcESaIcEEC1IS3_EEPKcRKS3_>
100028e2:	2304      	movs	r3, #4
100028e4:	aaff      	add	r2, sp, #1020	; 0x3fc
100028e6:	3278      	adds	r2, #120	; 0x78
100028e8:	6013      	str	r3, [r2, #0]
100028ea:	2300      	movs	r3, #0
100028ec:	aaff      	add	r2, sp, #1020	; 0x3fc
100028ee:	327c      	adds	r2, #124	; 0x7c
100028f0:	6013      	str	r3, [r2, #0]
100028f2:	3303      	adds	r3, #3
100028f4:	aaff      	add	r2, sp, #1020	; 0x3fc
100028f6:	3280      	adds	r2, #128	; 0x80
100028f8:	6013      	str	r3, [r2, #0]
100028fa:	abff      	add	r3, sp, #1020	; 0x3fc
100028fc:	3387      	adds	r3, #135	; 0x87
100028fe:	2201      	movs	r2, #1
10002900:	701a      	strb	r2, [r3, #0]
10002902:	aaff      	add	r2, sp, #1020	; 0x3fc
10002904:	329c      	adds	r2, #156	; 0x9c
10002906:	494b      	ldr	r1, [pc, #300]	; (10002a34 <_Z41__static_initialization_and_destruction_0ii+0x854>)
10002908:	a80a      	add	r0, sp, #40	; 0x28
1000290a:	f7fd fec3 	bl	10000694 <_ZNSt7__cxx1112basic_stringIcSt11char_traitsIcESaIcEEC1IS3_EEPKcRKS3_>
1000290e:	aaff      	add	r2, sp, #1020	; 0x3fc
10002910:	32a0      	adds	r2, #160	; 0xa0
10002912:	4949      	ldr	r1, [pc, #292]	; (10002a38 <_Z41__static_initialization_and_destruction_0ii+0x858>)
10002914:	a810      	add	r0, sp, #64	; 0x40
10002916:	f7fd febd 	bl	10000694 <_ZNSt7__cxx1112basic_stringIcSt11char_traitsIcESaIcEEC1IS3_EEPKcRKS3_>
1000291a:	aaff      	add	r2, sp, #1020	; 0x3fc
1000291c:	32a4      	adds	r2, #164	; 0xa4
1000291e:	4947      	ldr	r1, [pc, #284]	; (10002a3c <_Z41__static_initialization_and_destruction_0ii+0x85c>)
10002920:	a816      	add	r0, sp, #88	; 0x58
10002922:	f7fd feb7 	bl	10000694 <_ZNSt7__cxx1112basic_stringIcSt11char_traitsIcESaIcEEC1IS3_EEPKcRKS3_>
10002926:	aaff      	add	r2, sp, #1020	; 0x3fc
10002928:	32a8      	adds	r2, #168	; 0xa8
1000292a:	4945      	ldr	r1, [pc, #276]	; (10002a40 <_Z41__static_initialization_and_destruction_0ii+0x860>)
1000292c:	a81c      	add	r0, sp, #112	; 0x70
1000292e:	f7fd feb1 	bl	10000694 <_ZNSt7__cxx1112basic_stringIcSt11char_traitsIcESaIcEEC1IS3_EEPKcRKS3_>
10002932:	a90a      	add	r1, sp, #40	; 0x28
10002934:	abff      	add	r3, sp, #1020	; 0x3fc
10002936:	3394      	adds	r3, #148	; 0x94
10002938:	6019      	str	r1, [r3, #0]
1000293a:	2204      	movs	r2, #4
1000293c:	abff      	add	r3, sp, #1020	; 0x3fc
1000293e:	3398      	adds	r3, #152	; 0x98
10002940:	601a      	str	r2, [r3, #0]
10002942:	abff      	add	r3, sp, #1020	; 0x3fc
10002944:	33ac      	adds	r3, #172	; 0xac
10002946:	a8ff      	add	r0, sp, #1020	; 0x3fc
10002948:	3088      	adds	r0, #136	; 0x88
1000294a:	f7fd ffd5 	bl	100008f8 <_ZNSt6vectorINSt7__cxx1112basic_stringIcSt11char_traitsIcESaIcEEESaIS5_EEC1ESt16initializer_listIS5_ERKS6_>
1000294e:	e009      	b.n	10002964 <_Z41__static_initialization_and_destruction_0ii+0x784>
10002950:	ac22      	add	r4, sp, #136	; 0x88
10002952:	ab0a      	add	r3, sp, #40	; 0x28
10002954:	429c      	cmp	r4, r3
10002956:	d100      	bne.n	1000295a <_Z41__static_initialization_and_destruction_0ii+0x77a>
10002958:	e3e7      	b.n	1000312a <_Z41__static_initialization_and_destruction_0ii+0xf4a>
1000295a:	3c18      	subs	r4, #24
1000295c:	0020      	movs	r0, r4
1000295e:	f01f f84b 	bl	100219f8 <_ZNSt7__cxx1112basic_stringIcSt11char_traitsIcESaIcEE10_M_disposeEv>
10002962:	e7f6      	b.n	10002952 <_Z41__static_initialization_and_destruction_0ii+0x772>
10002964:	abff      	add	r3, sp, #1020	; 0x3fc
10002966:	3388      	adds	r3, #136	; 0x88
10002968:	9303      	str	r3, [sp, #12]
1000296a:	abff      	add	r3, sp, #1020	; 0x3fc
1000296c:	3387      	adds	r3, #135	; 0x87
1000296e:	9302      	str	r3, [sp, #8]
10002970:	abff      	add	r3, sp, #1020	; 0x3fc
10002972:	3380      	adds	r3, #128	; 0x80
10002974:	9301      	str	r3, [sp, #4]
10002976:	abff      	add	r3, sp, #1020	; 0x3fc
10002978:	337c      	adds	r3, #124	; 0x7c
1000297a:	9300      	str	r3, [sp, #0]
1000297c:	abff      	add	r3, sp, #1020	; 0x3fc
1000297e:	3378      	adds	r3, #120	; 0x78
10002980:	aaff      	add	r2, sp, #1020	; 0x3fc
10002982:	325c      	adds	r2, #92	; 0x5c
10002984:	a9ff      	add	r1, sp, #1020	; 0x3fc
10002986:	3140      	adds	r1, #64	; 0x40
10002988:	482e      	ldr	r0, [pc, #184]	; (10002a44 <_Z41__static_initialization_and_destruction_0ii+0x864>)
1000298a:	f7fe f81f 	bl	100009cc <_ZNSt11_Tuple_implILj0EJKNSt7__cxx1112basic_stringIcSt11char_traitsIcESaIcEEES6_N14wifi_interface12CMD_DATATYPEEiibSt6vectorIS5_SaIS5_EEEEC1ERS6_SD_RKS8_RKiSH_RKbRKSB_>
1000298e:	a8ff      	add	r0, sp, #1020	; 0x3fc
10002990:	3088      	adds	r0, #136	; 0x88
10002992:	f7fd fe28 	bl	100005e6 <_ZNSt6vectorINSt7__cxx1112basic_stringIcSt11char_traitsIcESaIcEEESaIS5_EED1Ev>
10002996:	ae22      	add	r6, sp, #136	; 0x88
10002998:	ab0a      	add	r3, sp, #40	; 0x28
1000299a:	429e      	cmp	r6, r3
1000299c:	d004      	beq.n	100029a8 <_Z41__static_initialization_and_destruction_0ii+0x7c8>
1000299e:	3e18      	subs	r6, #24
100029a0:	0030      	movs	r0, r6
100029a2:	f01f f829 	bl	100219f8 <_ZNSt7__cxx1112basic_stringIcSt11char_traitsIcESaIcEE10_M_disposeEv>
100029a6:	e7f7      	b.n	10002998 <_Z41__static_initialization_and_destruction_0ii+0x7b8>
100029a8:	a8ff      	add	r0, sp, #1020	; 0x3fc
100029aa:	305c      	adds	r0, #92	; 0x5c
100029ac:	f01f f824 	bl	100219f8 <_ZNSt7__cxx1112basic_stringIcSt11char_traitsIcESaIcEE10_M_disposeEv>
100029b0:	a8ff      	add	r0, sp, #1020	; 0x3fc
100029b2:	3040      	adds	r0, #64	; 0x40
100029b4:	f01f f820 	bl	100219f8 <_ZNSt7__cxx1112basic_stringIcSt11char_traitsIcESaIcEE10_M_disposeEv>
100029b8:	aaff      	add	r2, sp, #1020	; 0x3fc
100029ba:	32c8      	adds	r2, #200	; 0xc8
100029bc:	4922      	ldr	r1, [pc, #136]	; (10002a48 <_Z41__static_initialization_and_destruction_0ii+0x868>)
100029be:	a8ff      	add	r0, sp, #1020	; 0x3fc
100029c0:	30b0      	adds	r0, #176	; 0xb0
100029c2:	f7fd fe67 	bl	10000694 <_ZNSt7__cxx1112basic_stringIcSt11char_traitsIcESaIcEEC1IS3_EEPKcRKS3_>
100029c6:	e041      	b.n	10002a4c <_Z41__static_initialization_and_destruction_0ii+0x86c>
100029c8:	2704      	movs	r7, #4
100029ca:	e4ad      	b.n	10002328 <_Z41__static_initialization_and_destruction_0ii+0x148>
100029cc:	1002aeec 	.word	0x1002aeec
100029d0:	000002bb 	.word	0x000002bb
100029d4:	1002ae8c 	.word	0x1002ae8c
100029d8:	1002ae94 	.word	0x1002ae94
100029dc:	1002ae9c 	.word	0x1002ae9c
100029e0:	1002aea4 	.word	0x1002aea4
100029e4:	1002aeac 	.word	0x1002aeac
100029e8:	1002aeb4 	.word	0x1002aeb4
100029ec:	20002220 	.word	0x20002220
100029f0:	1002aefc 	.word	0x1002aefc
100029f4:	1002af00 	.word	0x1002af00
100029f8:	00000333 	.word	0x00000333
100029fc:	2000226c 	.word	0x2000226c
10002a00:	1002af10 	.word	0x1002af10
10002a04:	1002af14 	.word	0x1002af14
10002a08:	00000387 	.word	0x00000387
10002a0c:	200022b8 	.word	0x200022b8
10002a10:	1002af28 	.word	0x1002af28
10002a14:	1002c1c4 	.word	0x1002c1c4
10002a18:	000003db 	.word	0x000003db
10002a1c:	20002304 	.word	0x20002304
10002a20:	1002af2c 	.word	0x1002af2c
10002a24:	1002af30 	.word	0x1002af30
10002a28:	20002350 	.word	0x20002350
10002a2c:	1002af40 	.word	0x1002af40
10002a30:	1002af44 	.word	0x1002af44
10002a34:	1002af50 	.word	0x1002af50
10002a38:	1002af64 	.word	0x1002af64
10002a3c:	1002af74 	.word	0x1002af74
10002a40:	1002af80 	.word	0x1002af80
10002a44:	2000239c 	.word	0x2000239c
10002a48:	1002af8c 	.word	0x1002af8c
10002a4c:	aaff      	add	r2, sp, #1020	; 0x3fc
10002a4e:	32e4      	adds	r2, #228	; 0xe4
10002a50:	49f6      	ldr	r1, [pc, #984]	; (10002e2c <_Z41__static_initialization_and_destruction_0ii+0xc4c>)
10002a52:	a8ff      	add	r0, sp, #1020	; 0x3fc
10002a54:	30cc      	adds	r0, #204	; 0xcc
10002a56:	f7fd fe1d 	bl	10000694 <_ZNSt7__cxx1112basic_stringIcSt11char_traitsIcESaIcEEC1IS3_EEPKcRKS3_>
10002a5a:	2302      	movs	r3, #2
10002a5c:	aaff      	add	r2, sp, #1020	; 0x3fc
10002a5e:	32e8      	adds	r2, #232	; 0xe8
10002a60:	6013      	str	r3, [r2, #0]
10002a62:	3b03      	subs	r3, #3
10002a64:	aaff      	add	r2, sp, #1020	; 0x3fc
10002a66:	32ec      	adds	r2, #236	; 0xec
10002a68:	6013      	str	r3, [r2, #0]
10002a6a:	aaff      	add	r2, sp, #1020	; 0x3fc
10002a6c:	32f0      	adds	r2, #240	; 0xf0
10002a6e:	6013      	str	r3, [r2, #0]
10002a70:	abff      	add	r3, sp, #1020	; 0x3fc
10002a72:	33f7      	adds	r3, #247	; 0xf7
10002a74:	2201      	movs	r2, #1
10002a76:	701a      	strb	r2, [r3, #0]
10002a78:	320b      	adds	r2, #11
10002a7a:	2100      	movs	r1, #0
10002a7c:	a8ff      	add	r0, sp, #1020	; 0x3fc
10002a7e:	30f8      	adds	r0, #248	; 0xf8
10002a80:	f019 fae0 	bl	1001c044 <__wrap_memset>
10002a84:	2300      	movs	r3, #0
10002a86:	aaff      	add	r2, sp, #1020	; 0x3fc
10002a88:	32f8      	adds	r2, #248	; 0xf8
10002a8a:	6013      	str	r3, [r2, #0]
10002a8c:	aaff      	add	r2, sp, #1020	; 0x3fc
10002a8e:	32fc      	adds	r2, #252	; 0xfc
10002a90:	6013      	str	r3, [r2, #0]
10002a92:	4ae7      	ldr	r2, [pc, #924]	; (10002e30 <_Z41__static_initialization_and_destruction_0ii+0xc50>)
10002a94:	446a      	add	r2, sp
10002a96:	6013      	str	r3, [r2, #0]
10002a98:	abff      	add	r3, sp, #1020	; 0x3fc
10002a9a:	33f8      	adds	r3, #248	; 0xf8
10002a9c:	9303      	str	r3, [sp, #12]
10002a9e:	abff      	add	r3, sp, #1020	; 0x3fc
10002aa0:	33f7      	adds	r3, #247	; 0xf7
10002aa2:	9302      	str	r3, [sp, #8]
10002aa4:	abff      	add	r3, sp, #1020	; 0x3fc
10002aa6:	33f0      	adds	r3, #240	; 0xf0
10002aa8:	9301      	str	r3, [sp, #4]
10002aaa:	abff      	add	r3, sp, #1020	; 0x3fc
10002aac:	33ec      	adds	r3, #236	; 0xec
10002aae:	9300      	str	r3, [sp, #0]
10002ab0:	abff      	add	r3, sp, #1020	; 0x3fc
10002ab2:	33e8      	adds	r3, #232	; 0xe8
10002ab4:	aaff      	add	r2, sp, #1020	; 0x3fc
10002ab6:	32cc      	adds	r2, #204	; 0xcc
10002ab8:	a9ff      	add	r1, sp, #1020	; 0x3fc
10002aba:	31b0      	adds	r1, #176	; 0xb0
10002abc:	48dd      	ldr	r0, [pc, #884]	; (10002e34 <_Z41__static_initialization_and_destruction_0ii+0xc54>)
10002abe:	f7fd ff85 	bl	100009cc <_ZNSt11_Tuple_implILj0EJKNSt7__cxx1112basic_stringIcSt11char_traitsIcESaIcEEES6_N14wifi_interface12CMD_DATATYPEEiibSt6vectorIS5_SaIS5_EEEEC1ERS6_SD_RKS8_RKiSH_RKbRKSB_>
10002ac2:	a8ff      	add	r0, sp, #1020	; 0x3fc
10002ac4:	30f8      	adds	r0, #248	; 0xf8
10002ac6:	f7fd fd8e 	bl	100005e6 <_ZNSt6vectorINSt7__cxx1112basic_stringIcSt11char_traitsIcESaIcEEESaIS5_EED1Ev>
10002aca:	a8ff      	add	r0, sp, #1020	; 0x3fc
10002acc:	30cc      	adds	r0, #204	; 0xcc
10002ace:	f01e ff93 	bl	100219f8 <_ZNSt7__cxx1112basic_stringIcSt11char_traitsIcESaIcEE10_M_disposeEv>
10002ad2:	a8ff      	add	r0, sp, #1020	; 0x3fc
10002ad4:	30b0      	adds	r0, #176	; 0xb0
10002ad6:	f01e ff8f 	bl	100219f8 <_ZNSt7__cxx1112basic_stringIcSt11char_traitsIcESaIcEE10_M_disposeEv>
10002ada:	22a3      	movs	r2, #163	; 0xa3
10002adc:	00d2      	lsls	r2, r2, #3
10002ade:	446a      	add	r2, sp
10002ae0:	49d5      	ldr	r1, [pc, #852]	; (10002e38 <_Z41__static_initialization_and_destruction_0ii+0xc58>)
10002ae2:	20a0      	movs	r0, #160	; 0xa0
10002ae4:	00c0      	lsls	r0, r0, #3
10002ae6:	4468      	add	r0, sp
10002ae8:	f7fd fdd4 	bl	10000694 <_ZNSt7__cxx1112basic_stringIcSt11char_traitsIcESaIcEEC1IS3_EEPKcRKS3_>
10002aec:	e001      	b.n	10002af2 <_Z41__static_initialization_and_destruction_0ii+0x912>
10002aee:	2703      	movs	r7, #3
10002af0:	e41a      	b.n	10002328 <_Z41__static_initialization_and_destruction_0ii+0x148>
10002af2:	4ad2      	ldr	r2, [pc, #840]	; (10002e3c <_Z41__static_initialization_and_destruction_0ii+0xc5c>)
10002af4:	446a      	add	r2, sp
10002af6:	49d2      	ldr	r1, [pc, #840]	; (10002e40 <_Z41__static_initialization_and_destruction_0ii+0xc60>)
10002af8:	48d2      	ldr	r0, [pc, #840]	; (10002e44 <_Z41__static_initialization_and_destruction_0ii+0xc64>)
10002afa:	4468      	add	r0, sp
10002afc:	f7fd fdca 	bl	10000694 <_ZNSt7__cxx1112basic_stringIcSt11char_traitsIcESaIcEEC1IS3_EEPKcRKS3_>
10002b00:	2301      	movs	r3, #1
10002b02:	22a7      	movs	r2, #167	; 0xa7
10002b04:	00d2      	lsls	r2, r2, #3
10002b06:	446a      	add	r2, sp
10002b08:	6013      	str	r3, [r2, #0]
10002b0a:	2600      	movs	r6, #0
10002b0c:	4ace      	ldr	r2, [pc, #824]	; (10002e48 <_Z41__static_initialization_and_destruction_0ii+0xc68>)
10002b0e:	446a      	add	r2, sp
10002b10:	6016      	str	r6, [r2, #0]
10002b12:	2264      	movs	r2, #100	; 0x64
10002b14:	21a8      	movs	r1, #168	; 0xa8
10002b16:	00c9      	lsls	r1, r1, #3
10002b18:	4469      	add	r1, sp
10002b1a:	600a      	str	r2, [r1, #0]
10002b1c:	4acb      	ldr	r2, [pc, #812]	; (10002e4c <_Z41__static_initialization_and_destruction_0ii+0xc6c>)
10002b1e:	446a      	add	r2, sp
10002b20:	7013      	strb	r3, [r2, #0]
10002b22:	220c      	movs	r2, #12
10002b24:	0031      	movs	r1, r6
10002b26:	23a9      	movs	r3, #169	; 0xa9
10002b28:	00db      	lsls	r3, r3, #3
10002b2a:	446b      	add	r3, sp
10002b2c:	0018      	movs	r0, r3
10002b2e:	f019 fa89 	bl	1001c044 <__wrap_memset>
10002b32:	23a9      	movs	r3, #169	; 0xa9
10002b34:	00db      	lsls	r3, r3, #3
10002b36:	446b      	add	r3, sp
10002b38:	601e      	str	r6, [r3, #0]
10002b3a:	4bc5      	ldr	r3, [pc, #788]	; (10002e50 <_Z41__static_initialization_and_destruction_0ii+0xc70>)
10002b3c:	446b      	add	r3, sp
10002b3e:	601e      	str	r6, [r3, #0]
10002b40:	23aa      	movs	r3, #170	; 0xaa
10002b42:	00db      	lsls	r3, r3, #3
10002b44:	446b      	add	r3, sp
10002b46:	601e      	str	r6, [r3, #0]
10002b48:	23a9      	movs	r3, #169	; 0xa9
10002b4a:	00db      	lsls	r3, r3, #3
10002b4c:	446b      	add	r3, sp
10002b4e:	9303      	str	r3, [sp, #12]
10002b50:	4bbe      	ldr	r3, [pc, #760]	; (10002e4c <_Z41__static_initialization_and_destruction_0ii+0xc6c>)
10002b52:	446b      	add	r3, sp
10002b54:	9302      	str	r3, [sp, #8]
10002b56:	23a8      	movs	r3, #168	; 0xa8
10002b58:	00db      	lsls	r3, r3, #3
10002b5a:	446b      	add	r3, sp
10002b5c:	9301      	str	r3, [sp, #4]
10002b5e:	4bba      	ldr	r3, [pc, #744]	; (10002e48 <_Z41__static_initialization_and_destruction_0ii+0xc68>)
10002b60:	446b      	add	r3, sp
10002b62:	9300      	str	r3, [sp, #0]
10002b64:	23a7      	movs	r3, #167	; 0xa7
10002b66:	00db      	lsls	r3, r3, #3
10002b68:	446b      	add	r3, sp
10002b6a:	4ab6      	ldr	r2, [pc, #728]	; (10002e44 <_Z41__static_initialization_and_destruction_0ii+0xc64>)
10002b6c:	446a      	add	r2, sp
10002b6e:	21a0      	movs	r1, #160	; 0xa0
10002b70:	00c9      	lsls	r1, r1, #3
10002b72:	4469      	add	r1, sp
10002b74:	48b7      	ldr	r0, [pc, #732]	; (10002e54 <_Z41__static_initialization_and_destruction_0ii+0xc74>)
10002b76:	f7fd ff29 	bl	100009cc <_ZNSt11_Tuple_implILj0EJKNSt7__cxx1112basic_stringIcSt11char_traitsIcESaIcEEES6_N14wifi_interface12CMD_DATATYPEEiibSt6vectorIS5_SaIS5_EEEEC1ERS6_SD_RKS8_RKiSH_RKbRKSB_>
10002b7a:	20a9      	movs	r0, #169	; 0xa9
10002b7c:	00c0      	lsls	r0, r0, #3
10002b7e:	4468      	add	r0, sp
10002b80:	f7fd fd31 	bl	100005e6 <_ZNSt6vectorINSt7__cxx1112basic_stringIcSt11char_traitsIcESaIcEEESaIS5_EED1Ev>
10002b84:	48af      	ldr	r0, [pc, #700]	; (10002e44 <_Z41__static_initialization_and_destruction_0ii+0xc64>)
10002b86:	4468      	add	r0, sp
10002b88:	f01e ff36 	bl	100219f8 <_ZNSt7__cxx1112basic_stringIcSt11char_traitsIcESaIcEE10_M_disposeEv>
10002b8c:	20a0      	movs	r0, #160	; 0xa0
10002b8e:	00c0      	lsls	r0, r0, #3
10002b90:	4468      	add	r0, sp
10002b92:	f01e ff31 	bl	100219f8 <_ZNSt7__cxx1112basic_stringIcSt11char_traitsIcESaIcEE10_M_disposeEv>
10002b96:	4ab0      	ldr	r2, [pc, #704]	; (10002e58 <_Z41__static_initialization_and_destruction_0ii+0xc78>)
10002b98:	446a      	add	r2, sp
10002b9a:	49b0      	ldr	r1, [pc, #704]	; (10002e5c <_Z41__static_initialization_and_destruction_0ii+0xc7c>)
10002b9c:	48b0      	ldr	r0, [pc, #704]	; (10002e60 <_Z41__static_initialization_and_destruction_0ii+0xc80>)
10002b9e:	4468      	add	r0, sp
10002ba0:	f7fd fd78 	bl	10000694 <_ZNSt7__cxx1112basic_stringIcSt11char_traitsIcESaIcEEC1IS3_EEPKcRKS3_>
10002ba4:	e002      	b.n	10002bac <_Z41__static_initialization_and_destruction_0ii+0x9cc>
10002ba6:	2702      	movs	r7, #2
10002ba8:	f7ff fbbe 	bl	10002328 <_Z41__static_initialization_and_destruction_0ii+0x148>
10002bac:	22b1      	movs	r2, #177	; 0xb1
10002bae:	00d2      	lsls	r2, r2, #3
10002bb0:	446a      	add	r2, sp
10002bb2:	49ac      	ldr	r1, [pc, #688]	; (10002e64 <_Z41__static_initialization_and_destruction_0ii+0xc84>)
10002bb4:	20ae      	movs	r0, #174	; 0xae
10002bb6:	00c0      	lsls	r0, r0, #3
10002bb8:	4468      	add	r0, sp
10002bba:	f7fd fd6b 	bl	10000694 <_ZNSt7__cxx1112basic_stringIcSt11char_traitsIcESaIcEEC1IS3_EEPKcRKS3_>
10002bbe:	2302      	movs	r3, #2
10002bc0:	4aa9      	ldr	r2, [pc, #676]	; (10002e68 <_Z41__static_initialization_and_destruction_0ii+0xc88>)
10002bc2:	446a      	add	r2, sp
10002bc4:	6013      	str	r3, [r2, #0]
10002bc6:	3b03      	subs	r3, #3
10002bc8:	22b2      	movs	r2, #178	; 0xb2
10002bca:	00d2      	lsls	r2, r2, #3
10002bcc:	446a      	add	r2, sp
10002bce:	6013      	str	r3, [r2, #0]
10002bd0:	4aa6      	ldr	r2, [pc, #664]	; (10002e6c <_Z41__static_initialization_and_destruction_0ii+0xc8c>)
10002bd2:	446a      	add	r2, sp
10002bd4:	6013      	str	r3, [r2, #0]
10002bd6:	4ba6      	ldr	r3, [pc, #664]	; (10002e70 <_Z41__static_initialization_and_destruction_0ii+0xc90>)
10002bd8:	446b      	add	r3, sp
10002bda:	2201      	movs	r2, #1
10002bdc:	701a      	strb	r2, [r3, #0]
10002bde:	320b      	adds	r2, #11
10002be0:	2100      	movs	r1, #0
10002be2:	4ba4      	ldr	r3, [pc, #656]	; (10002e74 <_Z41__static_initialization_and_destruction_0ii+0xc94>)
10002be4:	446b      	add	r3, sp
10002be6:	0018      	movs	r0, r3
10002be8:	f019 fa2c 	bl	1001c044 <__wrap_memset>
10002bec:	2300      	movs	r3, #0
10002bee:	4aa1      	ldr	r2, [pc, #644]	; (10002e74 <_Z41__static_initialization_and_destruction_0ii+0xc94>)
10002bf0:	446a      	add	r2, sp
10002bf2:	6013      	str	r3, [r2, #0]
10002bf4:	22b4      	movs	r2, #180	; 0xb4
10002bf6:	00d2      	lsls	r2, r2, #3
10002bf8:	446a      	add	r2, sp
10002bfa:	6013      	str	r3, [r2, #0]
10002bfc:	4a9e      	ldr	r2, [pc, #632]	; (10002e78 <_Z41__static_initialization_and_destruction_0ii+0xc98>)
10002bfe:	446a      	add	r2, sp
10002c00:	6013      	str	r3, [r2, #0]
10002c02:	4b9c      	ldr	r3, [pc, #624]	; (10002e74 <_Z41__static_initialization_and_destruction_0ii+0xc94>)
10002c04:	446b      	add	r3, sp
10002c06:	9303      	str	r3, [sp, #12]
10002c08:	4b99      	ldr	r3, [pc, #612]	; (10002e70 <_Z41__static_initialization_and_destruction_0ii+0xc90>)
10002c0a:	446b      	add	r3, sp
10002c0c:	9302      	str	r3, [sp, #8]
10002c0e:	4b97      	ldr	r3, [pc, #604]	; (10002e6c <_Z41__static_initialization_and_destruction_0ii+0xc8c>)
10002c10:	446b      	add	r3, sp
10002c12:	9301      	str	r3, [sp, #4]
10002c14:	23b2      	movs	r3, #178	; 0xb2
10002c16:	00db      	lsls	r3, r3, #3
10002c18:	446b      	add	r3, sp
10002c1a:	9300      	str	r3, [sp, #0]
10002c1c:	4b92      	ldr	r3, [pc, #584]	; (10002e68 <_Z41__static_initialization_and_destruction_0ii+0xc88>)
10002c1e:	446b      	add	r3, sp
10002c20:	22ae      	movs	r2, #174	; 0xae
10002c22:	00d2      	lsls	r2, r2, #3
10002c24:	446a      	add	r2, sp
10002c26:	498e      	ldr	r1, [pc, #568]	; (10002e60 <_Z41__static_initialization_and_destruction_0ii+0xc80>)
10002c28:	4469      	add	r1, sp
10002c2a:	4894      	ldr	r0, [pc, #592]	; (10002e7c <_Z41__static_initialization_and_destruction_0ii+0xc9c>)
10002c2c:	f7fd fece 	bl	100009cc <_ZNSt11_Tuple_implILj0EJKNSt7__cxx1112basic_stringIcSt11char_traitsIcESaIcEEES6_N14wifi_interface12CMD_DATATYPEEiibSt6vectorIS5_SaIS5_EEEEC1ERS6_SD_RKS8_RKiSH_RKbRKSB_>
10002c30:	4890      	ldr	r0, [pc, #576]	; (10002e74 <_Z41__static_initialization_and_destruction_0ii+0xc94>)
10002c32:	4468      	add	r0, sp
10002c34:	f7fd fcd7 	bl	100005e6 <_ZNSt6vectorINSt7__cxx1112basic_stringIcSt11char_traitsIcESaIcEEESaIS5_EED1Ev>
10002c38:	20ae      	movs	r0, #174	; 0xae
10002c3a:	00c0      	lsls	r0, r0, #3
10002c3c:	4468      	add	r0, sp
10002c3e:	f01e fedb 	bl	100219f8 <_ZNSt7__cxx1112basic_stringIcSt11char_traitsIcESaIcEE10_M_disposeEv>
10002c42:	4887      	ldr	r0, [pc, #540]	; (10002e60 <_Z41__static_initialization_and_destruction_0ii+0xc80>)
10002c44:	4468      	add	r0, sp
10002c46:	f01e fed7 	bl	100219f8 <_ZNSt7__cxx1112basic_stringIcSt11char_traitsIcESaIcEE10_M_disposeEv>
10002c4a:	22b8      	movs	r2, #184	; 0xb8
10002c4c:	00d2      	lsls	r2, r2, #3
10002c4e:	446a      	add	r2, sp
10002c50:	498b      	ldr	r1, [pc, #556]	; (10002e80 <_Z41__static_initialization_and_destruction_0ii+0xca0>)
10002c52:	20b5      	movs	r0, #181	; 0xb5
10002c54:	00c0      	lsls	r0, r0, #3
10002c56:	4468      	add	r0, sp
10002c58:	f7fd fd1c 	bl	10000694 <_ZNSt7__cxx1112basic_stringIcSt11char_traitsIcESaIcEEC1IS3_EEPKcRKS3_>
10002c5c:	4a89      	ldr	r2, [pc, #548]	; (10002e84 <_Z41__static_initialization_and_destruction_0ii+0xca4>)
10002c5e:	446a      	add	r2, sp
10002c60:	4989      	ldr	r1, [pc, #548]	; (10002e88 <_Z41__static_initialization_and_destruction_0ii+0xca8>)
10002c62:	488a      	ldr	r0, [pc, #552]	; (10002e8c <_Z41__static_initialization_and_destruction_0ii+0xcac>)
10002c64:	4468      	add	r0, sp
10002c66:	f7fd fd15 	bl	10000694 <_ZNSt7__cxx1112basic_stringIcSt11char_traitsIcESaIcEEC1IS3_EEPKcRKS3_>
10002c6a:	2300      	movs	r3, #0
10002c6c:	4699      	mov	r9, r3
10002c6e:	23bc      	movs	r3, #188	; 0xbc
10002c70:	00db      	lsls	r3, r3, #3
10002c72:	446b      	add	r3, sp
10002c74:	464a      	mov	r2, r9
10002c76:	601a      	str	r2, [r3, #0]
10002c78:	2301      	movs	r3, #1
10002c7a:	425b      	negs	r3, r3
10002c7c:	4a84      	ldr	r2, [pc, #528]	; (10002e90 <_Z41__static_initialization_and_destruction_0ii+0xcb0>)
10002c7e:	446a      	add	r2, sp
10002c80:	6013      	str	r3, [r2, #0]
10002c82:	22bd      	movs	r2, #189	; 0xbd
10002c84:	00d2      	lsls	r2, r2, #3
10002c86:	446a      	add	r2, sp
10002c88:	6013      	str	r3, [r2, #0]
10002c8a:	466b      	mov	r3, sp
10002c8c:	4a81      	ldr	r2, [pc, #516]	; (10002e94 <_Z41__static_initialization_and_destruction_0ii+0xcb4>)
10002c8e:	189b      	adds	r3, r3, r2
10002c90:	464a      	mov	r2, r9
10002c92:	701a      	strb	r2, [r3, #0]
10002c94:	26be      	movs	r6, #190	; 0xbe
10002c96:	00f6      	lsls	r6, r6, #3
10002c98:	446e      	add	r6, sp
10002c9a:	320c      	adds	r2, #12
10002c9c:	4649      	mov	r1, r9
10002c9e:	0030      	movs	r0, r6
10002ca0:	f019 f9d0 	bl	1001c044 <__wrap_memset>
10002ca4:	464a      	mov	r2, r9
10002ca6:	6032      	str	r2, [r6, #0]
10002ca8:	6072      	str	r2, [r6, #4]
10002caa:	60b2      	str	r2, [r6, #8]
10002cac:	9603      	str	r6, [sp, #12]
10002cae:	4b79      	ldr	r3, [pc, #484]	; (10002e94 <_Z41__static_initialization_and_destruction_0ii+0xcb4>)
10002cb0:	446b      	add	r3, sp
10002cb2:	9302      	str	r3, [sp, #8]
10002cb4:	23bd      	movs	r3, #189	; 0xbd
10002cb6:	00db      	lsls	r3, r3, #3
10002cb8:	446b      	add	r3, sp
10002cba:	9301      	str	r3, [sp, #4]
10002cbc:	4b74      	ldr	r3, [pc, #464]	; (10002e90 <_Z41__static_initialization_and_destruction_0ii+0xcb0>)
10002cbe:	446b      	add	r3, sp
10002cc0:	9300      	str	r3, [sp, #0]
10002cc2:	23bc      	movs	r3, #188	; 0xbc
10002cc4:	00db      	lsls	r3, r3, #3
10002cc6:	446b      	add	r3, sp
10002cc8:	4a70      	ldr	r2, [pc, #448]	; (10002e8c <_Z41__static_initialization_and_destruction_0ii+0xcac>)
10002cca:	446a      	add	r2, sp
10002ccc:	21b5      	movs	r1, #181	; 0xb5
10002cce:	00c9      	lsls	r1, r1, #3
10002cd0:	4469      	add	r1, sp
10002cd2:	4871      	ldr	r0, [pc, #452]	; (10002e98 <_Z41__static_initialization_and_destruction_0ii+0xcb8>)
10002cd4:	f7fd fe7a 	bl	100009cc <_ZNSt11_Tuple_implILj0EJKNSt7__cxx1112basic_stringIcSt11char_traitsIcESaIcEEES6_N14wifi_interface12CMD_DATATYPEEiibSt6vectorIS5_SaIS5_EEEEC1ERS6_SD_RKS8_RKiSH_RKbRKSB_>
10002cd8:	0030      	movs	r0, r6
10002cda:	f7fd fc84 	bl	100005e6 <_ZNSt6vectorINSt7__cxx1112basic_stringIcSt11char_traitsIcESaIcEEESaIS5_EED1Ev>
10002cde:	486b      	ldr	r0, [pc, #428]	; (10002e8c <_Z41__static_initialization_and_destruction_0ii+0xcac>)
10002ce0:	4468      	add	r0, sp
10002ce2:	f01e fe89 	bl	100219f8 <_ZNSt7__cxx1112basic_stringIcSt11char_traitsIcESaIcEE10_M_disposeEv>
10002ce6:	20b5      	movs	r0, #181	; 0xb5
10002ce8:	00c0      	lsls	r0, r0, #3
10002cea:	4468      	add	r0, sp
10002cec:	f01e fe84 	bl	100219f8 <_ZNSt7__cxx1112basic_stringIcSt11char_traitsIcESaIcEE10_M_disposeEv>
10002cf0:	4a6a      	ldr	r2, [pc, #424]	; (10002e9c <_Z41__static_initialization_and_destruction_0ii+0xcbc>)
10002cf2:	446a      	add	r2, sp
10002cf4:	496a      	ldr	r1, [pc, #424]	; (10002ea0 <_Z41__static_initialization_and_destruction_0ii+0xcc0>)
10002cf6:	486b      	ldr	r0, [pc, #428]	; (10002ea4 <_Z41__static_initialization_and_destruction_0ii+0xcc4>)
10002cf8:	4468      	add	r0, sp
10002cfa:	f7fd fccb 	bl	10000694 <_ZNSt7__cxx1112basic_stringIcSt11char_traitsIcESaIcEEC1IS3_EEPKcRKS3_>
10002cfe:	e002      	b.n	10002d06 <_Z41__static_initialization_and_destruction_0ii+0xb26>
10002d00:	2700      	movs	r7, #0
10002d02:	f7ff fb11 	bl	10002328 <_Z41__static_initialization_and_destruction_0ii+0x148>
10002d06:	22c6      	movs	r2, #198	; 0xc6
10002d08:	00d2      	lsls	r2, r2, #3
10002d0a:	446a      	add	r2, sp
10002d0c:	495e      	ldr	r1, [pc, #376]	; (10002e88 <_Z41__static_initialization_and_destruction_0ii+0xca8>)
10002d0e:	20c3      	movs	r0, #195	; 0xc3
10002d10:	00c0      	lsls	r0, r0, #3
10002d12:	4468      	add	r0, sp
10002d14:	f7fd fcbe 	bl	10000694 <_ZNSt7__cxx1112basic_stringIcSt11char_traitsIcESaIcEEC1IS3_EEPKcRKS3_>
10002d18:	2305      	movs	r3, #5
10002d1a:	4a63      	ldr	r2, [pc, #396]	; (10002ea8 <_Z41__static_initialization_and_destruction_0ii+0xcc8>)
10002d1c:	446a      	add	r2, sp
10002d1e:	6013      	str	r3, [r2, #0]
10002d20:	3b06      	subs	r3, #6
10002d22:	22c7      	movs	r2, #199	; 0xc7
10002d24:	00d2      	lsls	r2, r2, #3
10002d26:	446a      	add	r2, sp
10002d28:	6013      	str	r3, [r2, #0]
10002d2a:	4a60      	ldr	r2, [pc, #384]	; (10002eac <_Z41__static_initialization_and_destruction_0ii+0xccc>)
10002d2c:	446a      	add	r2, sp
10002d2e:	6013      	str	r3, [r2, #0]
10002d30:	4f5f      	ldr	r7, [pc, #380]	; (10002eb0 <_Z41__static_initialization_and_destruction_0ii+0xcd0>)
10002d32:	446f      	add	r7, sp
10002d34:	2300      	movs	r3, #0
10002d36:	4698      	mov	r8, r3
10002d38:	703b      	strb	r3, [r7, #0]
10002d3a:	4e5e      	ldr	r6, [pc, #376]	; (10002eb4 <_Z41__static_initialization_and_destruction_0ii+0xcd4>)
10002d3c:	446e      	add	r6, sp
10002d3e:	220c      	movs	r2, #12
10002d40:	0019      	movs	r1, r3
10002d42:	0030      	movs	r0, r6
10002d44:	f019 f97e 	bl	1001c044 <__wrap_memset>
10002d48:	4642      	mov	r2, r8
10002d4a:	6032      	str	r2, [r6, #0]
10002d4c:	6072      	str	r2, [r6, #4]
10002d4e:	60b2      	str	r2, [r6, #8]
10002d50:	9603      	str	r6, [sp, #12]
10002d52:	9702      	str	r7, [sp, #8]
10002d54:	4b55      	ldr	r3, [pc, #340]	; (10002eac <_Z41__static_initialization_and_destruction_0ii+0xccc>)
10002d56:	446b      	add	r3, sp
10002d58:	9301      	str	r3, [sp, #4]
10002d5a:	23c7      	movs	r3, #199	; 0xc7
10002d5c:	00db      	lsls	r3, r3, #3
10002d5e:	446b      	add	r3, sp
10002d60:	9300      	str	r3, [sp, #0]
10002d62:	4b51      	ldr	r3, [pc, #324]	; (10002ea8 <_Z41__static_initialization_and_destruction_0ii+0xcc8>)
10002d64:	446b      	add	r3, sp
10002d66:	22c3      	movs	r2, #195	; 0xc3
10002d68:	00d2      	lsls	r2, r2, #3
10002d6a:	446a      	add	r2, sp
10002d6c:	494d      	ldr	r1, [pc, #308]	; (10002ea4 <_Z41__static_initialization_and_destruction_0ii+0xcc4>)
10002d6e:	4469      	add	r1, sp
10002d70:	4851      	ldr	r0, [pc, #324]	; (10002eb8 <_Z41__static_initialization_and_destruction_0ii+0xcd8>)
10002d72:	f7fd fe2b 	bl	100009cc <_ZNSt11_Tuple_implILj0EJKNSt7__cxx1112basic_stringIcSt11char_traitsIcESaIcEEES6_N14wifi_interface12CMD_DATATYPEEiibSt6vectorIS5_SaIS5_EEEEC1ERS6_SD_RKS8_RKiSH_RKbRKSB_>
10002d76:	0030      	movs	r0, r6
10002d78:	f7fd fc35 	bl	100005e6 <_ZNSt6vectorINSt7__cxx1112basic_stringIcSt11char_traitsIcESaIcEEESaIS5_EED1Ev>
10002d7c:	20c3      	movs	r0, #195	; 0xc3
10002d7e:	00c0      	lsls	r0, r0, #3
10002d80:	4468      	add	r0, sp
10002d82:	f01e fe39 	bl	100219f8 <_ZNSt7__cxx1112basic_stringIcSt11char_traitsIcESaIcEE10_M_disposeEv>
10002d86:	4847      	ldr	r0, [pc, #284]	; (10002ea4 <_Z41__static_initialization_and_destruction_0ii+0xcc4>)
10002d88:	4468      	add	r0, sp
10002d8a:	f01e fe35 	bl	100219f8 <_ZNSt7__cxx1112basic_stringIcSt11char_traitsIcESaIcEE10_M_disposeEv>
10002d8e:	f7ff fa5b 	bl	10002248 <_Z41__static_initialization_and_destruction_0ii+0x68>
10002d92:	ae0a      	add	r6, sp, #40	; 0x28
10002d94:	ab0c      	add	r3, sp, #48	; 0x30
10002d96:	930a      	str	r3, [sp, #40]	; 0x28
10002d98:	2300      	movs	r3, #0
10002d9a:	4a48      	ldr	r2, [pc, #288]	; (10002ebc <_Z41__static_initialization_and_destruction_0ii+0xcdc>)
10002d9c:	4938      	ldr	r1, [pc, #224]	; (10002e80 <_Z41__static_initialization_and_destruction_0ii+0xca0>)
10002d9e:	0030      	movs	r0, r6
10002da0:	f7fd fc4a 	bl	10000638 <_ZNSt7__cxx1112basic_stringIcSt11char_traitsIcESaIcEE12_M_constructIPKcEEvT_S8_St20forward_iterator_tag>
10002da4:	4946      	ldr	r1, [pc, #280]	; (10002ec0 <_Z41__static_initialization_and_destruction_0ii+0xce0>)
10002da6:	a810      	add	r0, sp, #64	; 0x40
10002da8:	f7fd fc38 	bl	1000061c <_ZNSt8functionIFvNSt7__cxx1112basic_stringIcSt11char_traitsIcESaIcEEEEEC1IPS6_vvEET_>
10002dac:	21ca      	movs	r1, #202	; 0xca
10002dae:	00c9      	lsls	r1, r1, #3
10002db0:	4469      	add	r1, sp
10002db2:	600e      	str	r6, [r1, #0]
10002db4:	2301      	movs	r3, #1
10002db6:	604b      	str	r3, [r1, #4]
10002db8:	2608      	movs	r6, #8
10002dba:	0032      	movs	r2, r6
10002dbc:	a806      	add	r0, sp, #24
10002dbe:	f019 f947 	bl	1001c050 <__wrap___aeabi_memcpy>
10002dc2:	0032      	movs	r2, r6
10002dc4:	a906      	add	r1, sp, #24
10002dc6:	a808      	add	r0, sp, #32
10002dc8:	f019 f942 	bl	1001c050 <__wrap___aeabi_memcpy>
10002dcc:	9b09      	ldr	r3, [sp, #36]	; 0x24
10002dce:	2228      	movs	r2, #40	; 0x28
10002dd0:	435a      	muls	r2, r3
10002dd2:	9b08      	ldr	r3, [sp, #32]
10002dd4:	469c      	mov	ip, r3
10002dd6:	4462      	add	r2, ip
10002dd8:	23cc      	movs	r3, #204	; 0xcc
10002dda:	00db      	lsls	r3, r3, #3
10002ddc:	446b      	add	r3, sp
10002dde:	9305      	str	r3, [sp, #20]
10002de0:	4b38      	ldr	r3, [pc, #224]	; (10002ec4 <_Z41__static_initialization_and_destruction_0ii+0xce4>)
10002de2:	446b      	add	r3, sp
10002de4:	9304      	str	r3, [sp, #16]
10002de6:	4b38      	ldr	r3, [pc, #224]	; (10002ec8 <_Z41__static_initialization_and_destruction_0ii+0xce8>)
10002de8:	446b      	add	r3, sp
10002dea:	9303      	str	r3, [sp, #12]
10002dec:	23ce      	movs	r3, #206	; 0xce
10002dee:	00db      	lsls	r3, r3, #3
10002df0:	446b      	add	r3, sp
10002df2:	9302      	str	r3, [sp, #8]
10002df4:	4b35      	ldr	r3, [pc, #212]	; (10002ecc <_Z41__static_initialization_and_destruction_0ii+0xcec>)
10002df6:	446b      	add	r3, sp
10002df8:	9301      	str	r3, [sp, #4]
10002dfa:	23cb      	movs	r3, #203	; 0xcb
10002dfc:	00db      	lsls	r3, r3, #3
10002dfe:	446b      	add	r3, sp
10002e00:	9300      	str	r3, [sp, #0]
10002e02:	2300      	movs	r3, #0
10002e04:	4661      	mov	r1, ip
10002e06:	4832      	ldr	r0, [pc, #200]	; (10002ed0 <_Z41__static_initialization_and_destruction_0ii+0xcf0>)
10002e08:	f7fe f886 	bl	10000f18 <_ZNSt10_HashtableINSt7__cxx1112basic_stringIcSt11char_traitsIcESaIcEEESt4pairIKS5_St8functionIFvS5_EEESaISB_ENSt8__detail10_Select1stESt8equal_toIS5_ESt4hashIS5_ENSD_18_Mod_range_hashingENSD_20_Default_ranged_hashENSD_20_Prime_rehash_policyENSD_17_Hashtable_traitsILb1ELb0ELb1EEEEC1IPKSB_EET_SS_jRKSI_RKSJ_RKSK_RKSG_RKSE_RKSC_>
10002e0c:	ae14      	add	r6, sp, #80	; 0x50
10002e0e:	ab0a      	add	r3, sp, #40	; 0x28
10002e10:	429e      	cmp	r6, r3
10002e12:	d101      	bne.n	10002e18 <_Z41__static_initialization_and_destruction_0ii+0xc38>
10002e14:	f7ff fa20 	bl	10002258 <_Z41__static_initialization_and_destruction_0ii+0x78>
10002e18:	3e28      	subs	r6, #40	; 0x28
10002e1a:	0030      	movs	r0, r6
10002e1c:	3018      	adds	r0, #24
10002e1e:	f7fd fb95 	bl	1000054c <_ZNSt14_Function_baseD1Ev>
10002e22:	0030      	movs	r0, r6
10002e24:	f01e fde8 	bl	100219f8 <_ZNSt7__cxx1112basic_stringIcSt11char_traitsIcESaIcEE10_M_disposeEv>
10002e28:	e7f1      	b.n	10002e0e <_Z41__static_initialization_and_destruction_0ii+0xc2e>
10002e2a:	46c0      	nop			; (mov r8, r8)
10002e2c:	1002af90 	.word	0x1002af90
10002e30:	000004fc 	.word	0x000004fc
10002e34:	200023e8 	.word	0x200023e8
10002e38:	1002afa8 	.word	0x1002afa8
10002e3c:	00000534 	.word	0x00000534
10002e40:	1002afac 	.word	0x1002afac
10002e44:	0000051c 	.word	0x0000051c
10002e48:	0000053c 	.word	0x0000053c
10002e4c:	00000547 	.word	0x00000547
10002e50:	0000054c 	.word	0x0000054c
10002e54:	20002434 	.word	0x20002434
10002e58:	0000056c 	.word	0x0000056c
10002e5c:	1002afbc 	.word	0x1002afbc
10002e60:	00000554 	.word	0x00000554
10002e64:	1002afc0 	.word	0x1002afc0
10002e68:	0000058c 	.word	0x0000058c
10002e6c:	00000594 	.word	0x00000594
10002e70:	0000059b 	.word	0x0000059b
10002e74:	0000059c 	.word	0x0000059c
10002e78:	000005a4 	.word	0x000005a4
10002e7c:	20002480 	.word	0x20002480
10002e80:	1002afcc 	.word	0x1002afcc
10002e84:	000005dc 	.word	0x000005dc
10002e88:	1002c1c4 	.word	0x1002c1c4
10002e8c:	000005c4 	.word	0x000005c4
10002e90:	000005e4 	.word	0x000005e4
10002e94:	000005ef 	.word	0x000005ef
10002e98:	200024cc 	.word	0x200024cc
10002e9c:	00000614 	.word	0x00000614
10002ea0:	1002afd4 	.word	0x1002afd4
10002ea4:	000005fc 	.word	0x000005fc
10002ea8:	00000634 	.word	0x00000634
10002eac:	0000063c 	.word	0x0000063c
10002eb0:	00000643 	.word	0x00000643
10002eb4:	00000644 	.word	0x00000644
10002eb8:	20002518 	.word	0x20002518
10002ebc:	1002afd1 	.word	0x1002afd1
10002ec0:	10010e41 	.word	0x10010e41
10002ec4:	0000066c 	.word	0x0000066c
10002ec8:	0000065c 	.word	0x0000065c
10002ecc:	00000674 	.word	0x00000674
10002ed0:	20002088 	.word	0x20002088
10002ed4:	4ecf      	ldr	r6, [pc, #828]	; (10003214 <_Z41__static_initialization_and_destruction_0ii+0x1034>)
10002ed6:	2228      	movs	r2, #40	; 0x28
10002ed8:	2100      	movs	r1, #0
10002eda:	0030      	movs	r0, r6
10002edc:	f019 f8b2 	bl	1001c044 <__wrap_memset>
10002ee0:	2100      	movs	r1, #0
10002ee2:	6031      	str	r1, [r6, #0]
10002ee4:	6071      	str	r1, [r6, #4]
10002ee6:	60b1      	str	r1, [r6, #8]
10002ee8:	60f1      	str	r1, [r6, #12]
10002eea:	6131      	str	r1, [r6, #16]
10002eec:	6171      	str	r1, [r6, #20]
10002eee:	61b1      	str	r1, [r6, #24]
10002ef0:	61f1      	str	r1, [r6, #28]
10002ef2:	6231      	str	r1, [r6, #32]
10002ef4:	6271      	str	r1, [r6, #36]	; 0x24
10002ef6:	0030      	movs	r0, r6
10002ef8:	f7fd fc20 	bl	1000073c <_ZNSt11_Deque_baseINSt7__cxx1112basic_stringIcSt11char_traitsIcESaIcEEESaIS5_EE17_M_initialize_mapEj>
10002efc:	f7ff f9b4 	bl	10002268 <_Z41__static_initialization_and_destruction_0ii+0x88>
10002f00:	4ac5      	ldr	r2, [pc, #788]	; (10003218 <_Z41__static_initialization_and_destruction_0ii+0x1038>)
10002f02:	446a      	add	r2, sp
10002f04:	49c5      	ldr	r1, [pc, #788]	; (1000321c <_Z41__static_initialization_and_destruction_0ii+0x103c>)
10002f06:	48c6      	ldr	r0, [pc, #792]	; (10003220 <_Z41__static_initialization_and_destruction_0ii+0x1040>)
10002f08:	f7fd fbc4 	bl	10000694 <_ZNSt7__cxx1112basic_stringIcSt11char_traitsIcESaIcEEC1IS3_EEPKcRKS3_>
10002f0c:	f7ff f9b4 	bl	10002278 <_Z41__static_initialization_and_destruction_0ii+0x98>
10002f10:	4ac4      	ldr	r2, [pc, #784]	; (10003224 <_Z41__static_initialization_and_destruction_0ii+0x1044>)
10002f12:	6813      	ldr	r3, [r2, #0]
10002f14:	3b01      	subs	r3, #1
10002f16:	6013      	str	r3, [r2, #0]
10002f18:	2b00      	cmp	r3, #0
10002f1a:	d019      	beq.n	10002f50 <_Z41__static_initialization_and_destruction_0ii+0xd70>
10002f1c:	4ac2      	ldr	r2, [pc, #776]	; (10003228 <_Z41__static_initialization_and_destruction_0ii+0x1048>)
10002f1e:	6813      	ldr	r3, [r2, #0]
10002f20:	3b01      	subs	r3, #1
10002f22:	6013      	str	r3, [r2, #0]
10002f24:	2b00      	cmp	r3, #0
10002f26:	d017      	beq.n	10002f58 <_Z41__static_initialization_and_destruction_0ii+0xd78>
10002f28:	4ac0      	ldr	r2, [pc, #768]	; (1000322c <_Z41__static_initialization_and_destruction_0ii+0x104c>)
10002f2a:	6813      	ldr	r3, [r2, #0]
10002f2c:	3b01      	subs	r3, #1
10002f2e:	6013      	str	r3, [r2, #0]
10002f30:	2b00      	cmp	r3, #0
10002f32:	d015      	beq.n	10002f60 <_Z41__static_initialization_and_destruction_0ii+0xd80>
10002f34:	4abe      	ldr	r2, [pc, #760]	; (10003230 <_Z41__static_initialization_and_destruction_0ii+0x1050>)
10002f36:	6813      	ldr	r3, [r2, #0]
10002f38:	3b01      	subs	r3, #1
10002f3a:	6013      	str	r3, [r2, #0]
10002f3c:	2b00      	cmp	r3, #0
10002f3e:	d040      	beq.n	10002fc2 <_Z41__static_initialization_and_destruction_0ii+0xde2>
10002f40:	4abc      	ldr	r2, [pc, #752]	; (10003234 <_Z41__static_initialization_and_destruction_0ii+0x1054>)
10002f42:	6813      	ldr	r3, [r2, #0]
10002f44:	3b01      	subs	r3, #1
10002f46:	6013      	str	r3, [r2, #0]
10002f48:	2b00      	cmp	r3, #0
10002f4a:	d145      	bne.n	10002fd8 <_Z41__static_initialization_and_destruction_0ii+0xdf8>
10002f4c:	4cba      	ldr	r4, [pc, #744]	; (10003238 <_Z41__static_initialization_and_destruction_0ii+0x1058>)
10002f4e:	e040      	b.n	10002fd2 <_Z41__static_initialization_and_destruction_0ii+0xdf2>
10002f50:	48ba      	ldr	r0, [pc, #744]	; (1000323c <_Z41__static_initialization_and_destruction_0ii+0x105c>)
10002f52:	f01e fd51 	bl	100219f8 <_ZNSt7__cxx1112basic_stringIcSt11char_traitsIcESaIcEE10_M_disposeEv>
10002f56:	e7e1      	b.n	10002f1c <_Z41__static_initialization_and_destruction_0ii+0xd3c>
10002f58:	48b1      	ldr	r0, [pc, #708]	; (10003220 <_Z41__static_initialization_and_destruction_0ii+0x1040>)
10002f5a:	f01e fd4d 	bl	100219f8 <_ZNSt7__cxx1112basic_stringIcSt11char_traitsIcESaIcEE10_M_disposeEv>
10002f5e:	e7e3      	b.n	10002f28 <_Z41__static_initialization_and_destruction_0ii+0xd48>
10002f60:	4cac      	ldr	r4, [pc, #688]	; (10003214 <_Z41__static_initialization_and_destruction_0ii+0x1034>)
10002f62:	23d1      	movs	r3, #209	; 0xd1
10002f64:	00db      	lsls	r3, r3, #3
10002f66:	446b      	add	r3, sp
10002f68:	68a1      	ldr	r1, [r4, #8]
10002f6a:	6019      	str	r1, [r3, #0]
10002f6c:	68e2      	ldr	r2, [r4, #12]
10002f6e:	605a      	str	r2, [r3, #4]
10002f70:	6922      	ldr	r2, [r4, #16]
10002f72:	609a      	str	r2, [r3, #8]
10002f74:	6962      	ldr	r2, [r4, #20]
10002f76:	60da      	str	r2, [r3, #12]
10002f78:	69a0      	ldr	r0, [r4, #24]
10002f7a:	21cf      	movs	r1, #207	; 0xcf
10002f7c:	00c9      	lsls	r1, r1, #3
10002f7e:	4469      	add	r1, sp
10002f80:	6008      	str	r0, [r1, #0]
10002f82:	69e3      	ldr	r3, [r4, #28]
10002f84:	604b      	str	r3, [r1, #4]
10002f86:	6a25      	ldr	r5, [r4, #32]
10002f88:	608d      	str	r5, [r1, #8]
10002f8a:	6a65      	ldr	r5, [r4, #36]	; 0x24
10002f8c:	60cd      	str	r5, [r1, #12]
10002f8e:	21d5      	movs	r1, #213	; 0xd5
10002f90:	00c9      	lsls	r1, r1, #3
10002f92:	4469      	add	r1, sp
10002f94:	68a6      	ldr	r6, [r4, #8]
10002f96:	600e      	str	r6, [r1, #0]
10002f98:	68e5      	ldr	r5, [r4, #12]
10002f9a:	604d      	str	r5, [r1, #4]
10002f9c:	6925      	ldr	r5, [r4, #16]
10002f9e:	608d      	str	r5, [r1, #8]
10002fa0:	60ca      	str	r2, [r1, #12]
10002fa2:	22d3      	movs	r2, #211	; 0xd3
10002fa4:	00d2      	lsls	r2, r2, #3
10002fa6:	446a      	add	r2, sp
10002fa8:	6010      	str	r0, [r2, #0]
10002faa:	6053      	str	r3, [r2, #4]
10002fac:	6a23      	ldr	r3, [r4, #32]
10002fae:	6093      	str	r3, [r2, #8]
10002fb0:	6a63      	ldr	r3, [r4, #36]	; 0x24
10002fb2:	60d3      	str	r3, [r2, #12]
10002fb4:	0020      	movs	r0, r4
10002fb6:	f7fd fc19 	bl	100007ec <_ZNSt5dequeINSt7__cxx1112basic_stringIcSt11char_traitsIcESaIcEEESaIS5_EE19_M_destroy_data_auxESt15_Deque_iteratorIS5_RS5_PS5_ESB_>
10002fba:	0020      	movs	r0, r4
10002fbc:	f7fd fb8b 	bl	100006d6 <_ZNSt11_Deque_baseINSt7__cxx1112basic_stringIcSt11char_traitsIcESaIcEEESaIS5_EED1Ev>
10002fc0:	e7b8      	b.n	10002f34 <_Z41__static_initialization_and_destruction_0ii+0xd54>
10002fc2:	489f      	ldr	r0, [pc, #636]	; (10003240 <_Z41__static_initialization_and_destruction_0ii+0x1060>)
10002fc4:	f7fd fde9 	bl	10000b9a <_ZNSt10_HashtableINSt7__cxx1112basic_stringIcSt11char_traitsIcESaIcEEESt4pairIKS5_St8functionIFvS5_EEESaISB_ENSt8__detail10_Select1stESt8equal_toIS5_ESt4hashIS5_ENSD_18_Mod_range_hashingENSD_20_Default_ranged_hashENSD_20_Prime_rehash_policyENSD_17_Hashtable_traitsILb1ELb0ELb1EEEED1Ev>
10002fc8:	e7ba      	b.n	10002f40 <_Z41__static_initialization_and_destruction_0ii+0xd60>
10002fca:	3c4c      	subs	r4, #76	; 0x4c
10002fcc:	0020      	movs	r0, r4
10002fce:	f7fd fac7 	bl	10000560 <_ZNSt11_Tuple_implILj0EJKNSt7__cxx1112basic_stringIcSt11char_traitsIcESaIcEEES6_N14wifi_interface12CMD_DATATYPEEiibSt6vectorIS5_SaIS5_EEEED1Ev>
10002fd2:	4b9c      	ldr	r3, [pc, #624]	; (10003244 <_Z41__static_initialization_and_destruction_0ii+0x1064>)
10002fd4:	429c      	cmp	r4, r3
10002fd6:	d1f8      	bne.n	10002fca <_Z41__static_initialization_and_destruction_0ii+0xdea>
10002fd8:	4a9b      	ldr	r2, [pc, #620]	; (10003248 <_Z41__static_initialization_and_destruction_0ii+0x1068>)
10002fda:	6813      	ldr	r3, [r2, #0]
10002fdc:	3b01      	subs	r3, #1
10002fde:	6013      	str	r3, [r2, #0]
10002fe0:	2b00      	cmp	r3, #0
10002fe2:	d108      	bne.n	10002ff6 <_Z41__static_initialization_and_destruction_0ii+0xe16>
10002fe4:	4c99      	ldr	r4, [pc, #612]	; (1000324c <_Z41__static_initialization_and_destruction_0ii+0x106c>)
10002fe6:	4b9a      	ldr	r3, [pc, #616]	; (10003250 <_Z41__static_initialization_and_destruction_0ii+0x1070>)
10002fe8:	429c      	cmp	r4, r3
10002fea:	d004      	beq.n	10002ff6 <_Z41__static_initialization_and_destruction_0ii+0xe16>
10002fec:	3c18      	subs	r4, #24
10002fee:	0020      	movs	r0, r4
10002ff0:	f01e fd02 	bl	100219f8 <_ZNSt7__cxx1112basic_stringIcSt11char_traitsIcESaIcEE10_M_disposeEv>
10002ff4:	e7f7      	b.n	10002fe6 <_Z41__static_initialization_and_destruction_0ii+0xe06>
10002ff6:	4897      	ldr	r0, [pc, #604]	; (10003254 <_Z41__static_initialization_and_destruction_0ii+0x1074>)
10002ff8:	6881      	ldr	r1, [r0, #8]
10002ffa:	f7fd fe62 	bl	10000cc2 <_ZNSt8_Rb_treeIjSt4pairIKjSt3mapIjSt10shared_ptrIN7PicoLed13PicoLedTargetEESt4lessIjESaIS0_IS1_S6_EEEESt10_Select1stISC_ES8_SaISC_EE8_M_eraseEPSt13_Rb_tree_nodeISC_E>
10002ffe:	f7ff f900 	bl	10002202 <_Z41__static_initialization_and_destruction_0ii+0x22>
10003002:	2602      	movs	r6, #2
10003004:	f7ff f94d 	bl	100022a2 <_Z41__static_initialization_and_destruction_0ii+0xc2>
10003008:	f7ff f94b 	bl	100022a2 <_Z41__static_initialization_and_destruction_0ii+0xc2>
1000300c:	f01d f9dc 	bl	100203c8 <__cxa_end_cleanup>
10003010:	a846      	add	r0, sp, #280	; 0x118
10003012:	f7fd fae8 	bl	100005e6 <_ZNSt6vectorINSt7__cxx1112basic_stringIcSt11char_traitsIcESaIcEEESaIS5_EED1Ev>
10003016:	a83b      	add	r0, sp, #236	; 0xec
10003018:	f01e fcee 	bl	100219f8 <_ZNSt7__cxx1112basic_stringIcSt11char_traitsIcESaIcEE10_M_disposeEv>
1000301c:	a834      	add	r0, sp, #208	; 0xd0
1000301e:	f01e fceb 	bl	100219f8 <_ZNSt7__cxx1112basic_stringIcSt11char_traitsIcESaIcEE10_M_disposeEv>
10003022:	270f      	movs	r7, #15
10003024:	f7ff f980 	bl	10002328 <_Z41__static_initialization_and_destruction_0ii+0x148>
10003028:	e7f8      	b.n	1000301c <_Z41__static_initialization_and_destruction_0ii+0xe3c>
1000302a:	a85b      	add	r0, sp, #364	; 0x16c
1000302c:	f7fd fadb 	bl	100005e6 <_ZNSt6vectorINSt7__cxx1112basic_stringIcSt11char_traitsIcESaIcEEESaIS5_EED1Ev>
10003030:	a850      	add	r0, sp, #320	; 0x140
10003032:	f01e fce1 	bl	100219f8 <_ZNSt7__cxx1112basic_stringIcSt11char_traitsIcESaIcEE10_M_disposeEv>
10003036:	a849      	add	r0, sp, #292	; 0x124
10003038:	f01e fcde 	bl	100219f8 <_ZNSt7__cxx1112basic_stringIcSt11char_traitsIcESaIcEE10_M_disposeEv>
1000303c:	270e      	movs	r7, #14
1000303e:	f7ff f973 	bl	10002328 <_Z41__static_initialization_and_destruction_0ii+0x148>
10003042:	e7f8      	b.n	10003036 <_Z41__static_initialization_and_destruction_0ii+0xe56>
10003044:	a870      	add	r0, sp, #448	; 0x1c0
10003046:	f7fd face 	bl	100005e6 <_ZNSt6vectorINSt7__cxx1112basic_stringIcSt11char_traitsIcESaIcEEESaIS5_EED1Ev>
1000304a:	a865      	add	r0, sp, #404	; 0x194
1000304c:	f01e fcd4 	bl	100219f8 <_ZNSt7__cxx1112basic_stringIcSt11char_traitsIcESaIcEE10_M_disposeEv>
10003050:	a85e      	add	r0, sp, #376	; 0x178
10003052:	f01e fcd1 	bl	100219f8 <_ZNSt7__cxx1112basic_stringIcSt11char_traitsIcESaIcEE10_M_disposeEv>
10003056:	270d      	movs	r7, #13
10003058:	f7ff f966 	bl	10002328 <_Z41__static_initialization_and_destruction_0ii+0x148>
1000305c:	e7f8      	b.n	10003050 <_Z41__static_initialization_and_destruction_0ii+0xe70>
1000305e:	a885      	add	r0, sp, #532	; 0x214
10003060:	f7fd fac1 	bl	100005e6 <_ZNSt6vectorINSt7__cxx1112basic_stringIcSt11char_traitsIcESaIcEEESaIS5_EED1Ev>
10003064:	a87a      	add	r0, sp, #488	; 0x1e8
10003066:	f01e fcc7 	bl	100219f8 <_ZNSt7__cxx1112basic_stringIcSt11char_traitsIcESaIcEE10_M_disposeEv>
1000306a:	a873      	add	r0, sp, #460	; 0x1cc
1000306c:	f01e fcc4 	bl	100219f8 <_ZNSt7__cxx1112basic_stringIcSt11char_traitsIcESaIcEE10_M_disposeEv>
10003070:	270c      	movs	r7, #12
10003072:	f7ff f959 	bl	10002328 <_Z41__static_initialization_and_destruction_0ii+0x148>
10003076:	e7f8      	b.n	1000306a <_Z41__static_initialization_and_destruction_0ii+0xe8a>
10003078:	a89a      	add	r0, sp, #616	; 0x268
1000307a:	f7fd fab4 	bl	100005e6 <_ZNSt6vectorINSt7__cxx1112basic_stringIcSt11char_traitsIcESaIcEEESaIS5_EED1Ev>
1000307e:	a88f      	add	r0, sp, #572	; 0x23c
10003080:	f01e fcba 	bl	100219f8 <_ZNSt7__cxx1112basic_stringIcSt11char_traitsIcESaIcEE10_M_disposeEv>
10003084:	a888      	add	r0, sp, #544	; 0x220
10003086:	f01e fcb7 	bl	100219f8 <_ZNSt7__cxx1112basic_stringIcSt11char_traitsIcESaIcEE10_M_disposeEv>
1000308a:	270b      	movs	r7, #11
1000308c:	f7ff f94c 	bl	10002328 <_Z41__static_initialization_and_destruction_0ii+0x148>
10003090:	e7f8      	b.n	10003084 <_Z41__static_initialization_and_destruction_0ii+0xea4>
10003092:	a8af      	add	r0, sp, #700	; 0x2bc
10003094:	f7fd faa7 	bl	100005e6 <_ZNSt6vectorINSt7__cxx1112basic_stringIcSt11char_traitsIcESaIcEEESaIS5_EED1Ev>
10003098:	ac2e      	add	r4, sp, #184	; 0xb8
1000309a:	f7ff faf4 	bl	10002686 <_Z41__static_initialization_and_destruction_0ii+0x4a6>
1000309e:	a8a4      	add	r0, sp, #656	; 0x290
100030a0:	f01e fcaa 	bl	100219f8 <_ZNSt7__cxx1112basic_stringIcSt11char_traitsIcESaIcEE10_M_disposeEv>
100030a4:	a89d      	add	r0, sp, #628	; 0x274
100030a6:	f01e fca7 	bl	100219f8 <_ZNSt7__cxx1112basic_stringIcSt11char_traitsIcESaIcEE10_M_disposeEv>
100030aa:	270a      	movs	r7, #10
100030ac:	f7ff f93c 	bl	10002328 <_Z41__static_initialization_and_destruction_0ii+0x148>
100030b0:	e7f8      	b.n	100030a4 <_Z41__static_initialization_and_destruction_0ii+0xec4>
100030b2:	a8cd      	add	r0, sp, #820	; 0x334
100030b4:	f7fd fa97 	bl	100005e6 <_ZNSt6vectorINSt7__cxx1112basic_stringIcSt11char_traitsIcESaIcEEESaIS5_EED1Ev>
100030b8:	a8c2      	add	r0, sp, #776	; 0x308
100030ba:	f01e fc9d 	bl	100219f8 <_ZNSt7__cxx1112basic_stringIcSt11char_traitsIcESaIcEE10_M_disposeEv>
100030be:	a8bb      	add	r0, sp, #748	; 0x2ec
100030c0:	f01e fc9a 	bl	100219f8 <_ZNSt7__cxx1112basic_stringIcSt11char_traitsIcESaIcEE10_M_disposeEv>
100030c4:	2709      	movs	r7, #9
100030c6:	f7ff f92f 	bl	10002328 <_Z41__static_initialization_and_destruction_0ii+0x148>
100030ca:	e7f8      	b.n	100030be <_Z41__static_initialization_and_destruction_0ii+0xede>
100030cc:	a8e2      	add	r0, sp, #904	; 0x388
100030ce:	f7fd fa8a 	bl	100005e6 <_ZNSt6vectorINSt7__cxx1112basic_stringIcSt11char_traitsIcESaIcEEESaIS5_EED1Ev>
100030d2:	a8d7      	add	r0, sp, #860	; 0x35c
100030d4:	f01e fc90 	bl	100219f8 <_ZNSt7__cxx1112basic_stringIcSt11char_traitsIcESaIcEE10_M_disposeEv>
100030d8:	a8d0      	add	r0, sp, #832	; 0x340
100030da:	f01e fc8d 	bl	100219f8 <_ZNSt7__cxx1112basic_stringIcSt11char_traitsIcESaIcEE10_M_disposeEv>
100030de:	2708      	movs	r7, #8
100030e0:	f7ff f922 	bl	10002328 <_Z41__static_initialization_and_destruction_0ii+0x148>
100030e4:	e7f8      	b.n	100030d8 <_Z41__static_initialization_and_destruction_0ii+0xef8>
100030e6:	a8f7      	add	r0, sp, #988	; 0x3dc
100030e8:	f7fd fa7d 	bl	100005e6 <_ZNSt6vectorINSt7__cxx1112basic_stringIcSt11char_traitsIcESaIcEEESaIS5_EED1Ev>
100030ec:	a8ec      	add	r0, sp, #944	; 0x3b0
100030ee:	f01e fc83 	bl	100219f8 <_ZNSt7__cxx1112basic_stringIcSt11char_traitsIcESaIcEE10_M_disposeEv>
100030f2:	a8e5      	add	r0, sp, #916	; 0x394
100030f4:	f01e fc80 	bl	100219f8 <_ZNSt7__cxx1112basic_stringIcSt11char_traitsIcESaIcEE10_M_disposeEv>
100030f8:	2707      	movs	r7, #7
100030fa:	f7ff f915 	bl	10002328 <_Z41__static_initialization_and_destruction_0ii+0x148>
100030fe:	e7f8      	b.n	100030f2 <_Z41__static_initialization_and_destruction_0ii+0xf12>
10003100:	a8ff      	add	r0, sp, #1020	; 0x3fc
10003102:	3034      	adds	r0, #52	; 0x34
10003104:	f7fd fa6f 	bl	100005e6 <_ZNSt6vectorINSt7__cxx1112basic_stringIcSt11char_traitsIcESaIcEEESaIS5_EED1Ev>
10003108:	a8ff      	add	r0, sp, #1020	; 0x3fc
1000310a:	3008      	adds	r0, #8
1000310c:	f01e fc74 	bl	100219f8 <_ZNSt7__cxx1112basic_stringIcSt11char_traitsIcESaIcEE10_M_disposeEv>
10003110:	a8fa      	add	r0, sp, #1000	; 0x3e8
10003112:	f01e fc71 	bl	100219f8 <_ZNSt7__cxx1112basic_stringIcSt11char_traitsIcESaIcEE10_M_disposeEv>
10003116:	2706      	movs	r7, #6
10003118:	f7ff f906 	bl	10002328 <_Z41__static_initialization_and_destruction_0ii+0x148>
1000311c:	e7f8      	b.n	10003110 <_Z41__static_initialization_and_destruction_0ii+0xf30>
1000311e:	a8ff      	add	r0, sp, #1020	; 0x3fc
10003120:	3088      	adds	r0, #136	; 0x88
10003122:	f7fd fa60 	bl	100005e6 <_ZNSt6vectorINSt7__cxx1112basic_stringIcSt11char_traitsIcESaIcEEESaIS5_EED1Ev>
10003126:	ac22      	add	r4, sp, #136	; 0x88
10003128:	e413      	b.n	10002952 <_Z41__static_initialization_and_destruction_0ii+0x772>
1000312a:	a8ff      	add	r0, sp, #1020	; 0x3fc
1000312c:	305c      	adds	r0, #92	; 0x5c
1000312e:	f01e fc63 	bl	100219f8 <_ZNSt7__cxx1112basic_stringIcSt11char_traitsIcESaIcEE10_M_disposeEv>
10003132:	a8ff      	add	r0, sp, #1020	; 0x3fc
10003134:	3040      	adds	r0, #64	; 0x40
10003136:	f01e fc5f 	bl	100219f8 <_ZNSt7__cxx1112basic_stringIcSt11char_traitsIcESaIcEE10_M_disposeEv>
1000313a:	2705      	movs	r7, #5
1000313c:	f7ff f8f4 	bl	10002328 <_Z41__static_initialization_and_destruction_0ii+0x148>
10003140:	e7f7      	b.n	10003132 <_Z41__static_initialization_and_destruction_0ii+0xf52>
10003142:	a8ff      	add	r0, sp, #1020	; 0x3fc
10003144:	30f8      	adds	r0, #248	; 0xf8
10003146:	f7fd fa4e 	bl	100005e6 <_ZNSt6vectorINSt7__cxx1112basic_stringIcSt11char_traitsIcESaIcEEESaIS5_EED1Ev>
1000314a:	a8ff      	add	r0, sp, #1020	; 0x3fc
1000314c:	30cc      	adds	r0, #204	; 0xcc
1000314e:	f01e fc53 	bl	100219f8 <_ZNSt7__cxx1112basic_stringIcSt11char_traitsIcESaIcEE10_M_disposeEv>
10003152:	a8ff      	add	r0, sp, #1020	; 0x3fc
10003154:	30b0      	adds	r0, #176	; 0xb0
10003156:	f01e fc4f 	bl	100219f8 <_ZNSt7__cxx1112basic_stringIcSt11char_traitsIcESaIcEE10_M_disposeEv>
1000315a:	2704      	movs	r7, #4
1000315c:	f7ff f8e4 	bl	10002328 <_Z41__static_initialization_and_destruction_0ii+0x148>
10003160:	e7f7      	b.n	10003152 <_Z41__static_initialization_and_destruction_0ii+0xf72>
10003162:	20a9      	movs	r0, #169	; 0xa9
10003164:	00c0      	lsls	r0, r0, #3
10003166:	4468      	add	r0, sp
10003168:	f7fd fa3d 	bl	100005e6 <_ZNSt6vectorINSt7__cxx1112basic_stringIcSt11char_traitsIcESaIcEEESaIS5_EED1Ev>
1000316c:	483a      	ldr	r0, [pc, #232]	; (10003258 <_Z41__static_initialization_and_destruction_0ii+0x1078>)
1000316e:	4468      	add	r0, sp
10003170:	f01e fc42 	bl	100219f8 <_ZNSt7__cxx1112basic_stringIcSt11char_traitsIcESaIcEE10_M_disposeEv>
10003174:	20a0      	movs	r0, #160	; 0xa0
10003176:	00c0      	lsls	r0, r0, #3
10003178:	4468      	add	r0, sp
1000317a:	f01e fc3d 	bl	100219f8 <_ZNSt7__cxx1112basic_stringIcSt11char_traitsIcESaIcEE10_M_disposeEv>
1000317e:	2703      	movs	r7, #3
10003180:	f7ff f8d2 	bl	10002328 <_Z41__static_initialization_and_destruction_0ii+0x148>
10003184:	e7f6      	b.n	10003174 <_Z41__static_initialization_and_destruction_0ii+0xf94>
10003186:	4835      	ldr	r0, [pc, #212]	; (1000325c <_Z41__static_initialization_and_destruction_0ii+0x107c>)
10003188:	4468      	add	r0, sp
1000318a:	f7fd fa2c 	bl	100005e6 <_ZNSt6vectorINSt7__cxx1112basic_stringIcSt11char_traitsIcESaIcEEESaIS5_EED1Ev>
1000318e:	20ae      	movs	r0, #174	; 0xae
10003190:	00c0      	lsls	r0, r0, #3
10003192:	4468      	add	r0, sp
10003194:	f01e fc30 	bl	100219f8 <_ZNSt7__cxx1112basic_stringIcSt11char_traitsIcESaIcEE10_M_disposeEv>
10003198:	4831      	ldr	r0, [pc, #196]	; (10003260 <_Z41__static_initialization_and_destruction_0ii+0x1080>)
1000319a:	4468      	add	r0, sp
1000319c:	f01e fc2c 	bl	100219f8 <_ZNSt7__cxx1112basic_stringIcSt11char_traitsIcESaIcEE10_M_disposeEv>
100031a0:	2702      	movs	r7, #2
100031a2:	f7ff f8c1 	bl	10002328 <_Z41__static_initialization_and_destruction_0ii+0x148>
100031a6:	e7f7      	b.n	10003198 <_Z41__static_initialization_and_destruction_0ii+0xfb8>
100031a8:	20be      	movs	r0, #190	; 0xbe
100031aa:	00c0      	lsls	r0, r0, #3
100031ac:	4468      	add	r0, sp
100031ae:	f7fd fa1a 	bl	100005e6 <_ZNSt6vectorINSt7__cxx1112basic_stringIcSt11char_traitsIcESaIcEEESaIS5_EED1Ev>
100031b2:	482c      	ldr	r0, [pc, #176]	; (10003264 <_Z41__static_initialization_and_destruction_0ii+0x1084>)
100031b4:	4468      	add	r0, sp
100031b6:	f01e fc1f 	bl	100219f8 <_ZNSt7__cxx1112basic_stringIcSt11char_traitsIcESaIcEE10_M_disposeEv>
100031ba:	20b5      	movs	r0, #181	; 0xb5
100031bc:	00c0      	lsls	r0, r0, #3
100031be:	4468      	add	r0, sp
100031c0:	f01e fc1a 	bl	100219f8 <_ZNSt7__cxx1112basic_stringIcSt11char_traitsIcESaIcEE10_M_disposeEv>
100031c4:	f7ff f8b0 	bl	10002328 <_Z41__static_initialization_and_destruction_0ii+0x148>
100031c8:	e7f7      	b.n	100031ba <_Z41__static_initialization_and_destruction_0ii+0xfda>
100031ca:	4827      	ldr	r0, [pc, #156]	; (10003268 <_Z41__static_initialization_and_destruction_0ii+0x1088>)
100031cc:	4468      	add	r0, sp
100031ce:	f7fd fa0a 	bl	100005e6 <_ZNSt6vectorINSt7__cxx1112basic_stringIcSt11char_traitsIcESaIcEEESaIS5_EED1Ev>
100031d2:	20c3      	movs	r0, #195	; 0xc3
100031d4:	00c0      	lsls	r0, r0, #3
100031d6:	4468      	add	r0, sp
100031d8:	f01e fc0e 	bl	100219f8 <_ZNSt7__cxx1112basic_stringIcSt11char_traitsIcESaIcEE10_M_disposeEv>
100031dc:	4823      	ldr	r0, [pc, #140]	; (1000326c <_Z41__static_initialization_and_destruction_0ii+0x108c>)
100031de:	4468      	add	r0, sp
100031e0:	f01e fc0a 	bl	100219f8 <_ZNSt7__cxx1112basic_stringIcSt11char_traitsIcESaIcEE10_M_disposeEv>
100031e4:	2700      	movs	r7, #0
100031e6:	f7ff f89f 	bl	10002328 <_Z41__static_initialization_and_destruction_0ii+0x148>
100031ea:	e7f7      	b.n	100031dc <_Z41__static_initialization_and_destruction_0ii+0xffc>
100031ec:	f7ff f89c 	bl	10002328 <_Z41__static_initialization_and_destruction_0ii+0x148>
100031f0:	f01d f8ea 	bl	100203c8 <__cxa_end_cleanup>
100031f4:	ac14      	add	r4, sp, #80	; 0x50
100031f6:	ab0a      	add	r3, sp, #40	; 0x28
100031f8:	429c      	cmp	r4, r3
100031fa:	d008      	beq.n	1000320e <_Z41__static_initialization_and_destruction_0ii+0x102e>
100031fc:	3c28      	subs	r4, #40	; 0x28
100031fe:	0020      	movs	r0, r4
10003200:	3018      	adds	r0, #24
10003202:	f7fd f9a3 	bl	1000054c <_ZNSt14_Function_baseD1Ev>
10003206:	0020      	movs	r0, r4
10003208:	f01e fbf6 	bl	100219f8 <_ZNSt7__cxx1112basic_stringIcSt11char_traitsIcESaIcEE10_M_disposeEv>
1000320c:	e7f3      	b.n	100031f6 <_Z41__static_initialization_and_destruction_0ii+0x1016>
1000320e:	f01d f8db 	bl	100203c8 <__cxa_end_cleanup>
10003212:	46c0      	nop			; (mov r8, r8)
10003214:	20002060 	.word	0x20002060
10003218:	00000664 	.word	0x00000664
1000321c:	1002c1c4 	.word	0x1002c1c4
10003220:	20002030 	.word	0x20002030
10003224:	20001fe8 	.word	0x20001fe8
10003228:	20001fe4 	.word	0x20001fe4
1000322c:	20001fec 	.word	0x20001fec
10003230:	20001ff0 	.word	0x20001ff0
10003234:	20001ff4 	.word	0x20001ff4
10003238:	20002564 	.word	0x20002564
1000323c:	20002048 	.word	0x20002048
10003240:	20002088 	.word	0x20002088
10003244:	200020a4 	.word	0x200020a4
10003248:	20001ff8 	.word	0x20001ff8
1000324c:	200025f4 	.word	0x200025f4
10003250:	20002564 	.word	0x20002564
10003254:	20002c40 	.word	0x20002c40
10003258:	0000051c 	.word	0x0000051c
1000325c:	0000059c 	.word	0x0000059c
10003260:	00000554 	.word	0x00000554
10003264:	000005c4 	.word	0x000005c4
10003268:	00000644 	.word	0x00000644
1000326c:	000005fc 	.word	0x000005fc

10003270 <_GLOBAL__sub_I__ZN22settings_storage_flashC2Ev>:
10003270:	b510      	push	{r4, lr}
10003272:	4902      	ldr	r1, [pc, #8]	; (1000327c <_GLOBAL__sub_I__ZN22settings_storage_flashC2Ev+0xc>)
10003274:	2001      	movs	r0, #1
10003276:	f7fe ffb3 	bl	100021e0 <_Z41__static_initialization_and_destruction_0ii>
1000327a:	bd10      	pop	{r4, pc}
1000327c:	0000ffff 	.word	0x0000ffff

10003280 <_ZN23settings_storage_eeprom4initEv>:
10003280:	4770      	bx	lr
	...

10003284 <_ZN23settings_storage_eepromD1Ev>:
10003284:	b510      	push	{r4, lr}
10003286:	0004      	movs	r4, r0
10003288:	4b03      	ldr	r3, [pc, #12]	; (10003298 <_ZN23settings_storage_eepromD1Ev+0x14>)
1000328a:	3308      	adds	r3, #8
1000328c:	6003      	str	r3, [r0, #0]
1000328e:	f7fd f8e7 	bl	10000460 <_ZN16settings_storageD1Ev>
10003292:	0020      	movs	r0, r4
10003294:	bd10      	pop	{r4, pc}
10003296:	46c0      	nop			; (mov r8, r8)
10003298:	1002b118 	.word	0x1002b118

1000329c <_ZN23settings_storage_eepromD0Ev>:
1000329c:	b510      	push	{r4, lr}
1000329e:	0004      	movs	r4, r0
100032a0:	f7ff fff0 	bl	10003284 <_ZN23settings_storage_eepromD1Ev>
100032a4:	2118      	movs	r1, #24
100032a6:	0020      	movs	r0, r4
100032a8:	f01c ffe6 	bl	10020278 <_ZdlPvj>
100032ac:	0020      	movs	r0, r4
100032ae:	bd10      	pop	{r4, pc}

100032b0 <_ZN23settings_storage_eeprom4readEN14wifi_interface9CMD_INDEXE>:
100032b0:	b500      	push	{lr}
100032b2:	b085      	sub	sp, #20
100032b4:	4b08      	ldr	r3, [pc, #32]	; (100032d8 <_ZN23settings_storage_eeprom4readEN14wifi_interface9CMD_INDEXE+0x28>)
100032b6:	781b      	ldrb	r3, [r3, #0]
100032b8:	466a      	mov	r2, sp
100032ba:	7313      	strb	r3, [r2, #12]
100032bc:	7d42      	ldrb	r2, [r0, #21]
100032be:	1852      	adds	r2, r2, r1
100032c0:	b2d2      	uxtb	r2, r2
100032c2:	2301      	movs	r3, #1
100032c4:	9300      	str	r3, [sp, #0]
100032c6:	ab03      	add	r3, sp, #12
100032c8:	2150      	movs	r1, #80	; 0x50
100032ca:	4804      	ldr	r0, [pc, #16]	; (100032dc <_ZN23settings_storage_eeprom4readEN14wifi_interface9CMD_INDEXE+0x2c>)
100032cc:	f00c fd9a 	bl	1000fe04 <_ZN6helper8reg_readEP8i2c_instjhPhh>
100032d0:	466b      	mov	r3, sp
100032d2:	7b18      	ldrb	r0, [r3, #12]
100032d4:	b005      	add	sp, #20
100032d6:	bd00      	pop	{pc}
100032d8:	1002c1c4 	.word	0x1002c1c4
100032dc:	200015d8 	.word	0x200015d8

100032e0 <_ZN23settings_storage_eeprom5writeEN14wifi_interface9CMD_INDEXEh>:
100032e0:	b500      	push	{lr}
100032e2:	b085      	sub	sp, #20
100032e4:	2910      	cmp	r1, #16
100032e6:	d902      	bls.n	100032ee <_ZN23settings_storage_eeprom5writeEN14wifi_interface9CMD_INDEXEh+0xe>
100032e8:	2000      	movs	r0, #0
100032ea:	b005      	add	sp, #20
100032ec:	bd00      	pop	{pc}
100032ee:	ab03      	add	r3, sp, #12
100032f0:	701a      	strb	r2, [r3, #0]
100032f2:	7d42      	ldrb	r2, [r0, #21]
100032f4:	1852      	adds	r2, r2, r1
100032f6:	b2d2      	uxtb	r2, r2
100032f8:	2101      	movs	r1, #1
100032fa:	9100      	str	r1, [sp, #0]
100032fc:	314f      	adds	r1, #79	; 0x4f
100032fe:	4803      	ldr	r0, [pc, #12]	; (1000330c <_ZN23settings_storage_eeprom5writeEN14wifi_interface9CMD_INDEXEh+0x2c>)
10003300:	f00c fd5b 	bl	1000fdba <_ZN6helper9reg_writeEP8i2c_instjhPhh>
10003304:	1e43      	subs	r3, r0, #1
10003306:	4198      	sbcs	r0, r3
10003308:	b2c0      	uxtb	r0, r0
1000330a:	e7ee      	b.n	100032ea <_ZN23settings_storage_eeprom5writeEN14wifi_interface9CMD_INDEXEh+0xa>
1000330c:	200015d8 	.word	0x200015d8

10003310 <_ZN23settings_storage_eeprom6formatEv>:
10003310:	b570      	push	{r4, r5, r6, lr}
10003312:	0005      	movs	r5, r0
10003314:	2400      	movs	r4, #0
10003316:	e005      	b.n	10003324 <_ZN23settings_storage_eeprom6formatEv+0x14>
10003318:	2200      	movs	r2, #0
1000331a:	0021      	movs	r1, r4
1000331c:	0028      	movs	r0, r5
1000331e:	f7ff ffdf 	bl	100032e0 <_ZN23settings_storage_eeprom5writeEN14wifi_interface9CMD_INDEXEh>
10003322:	3401      	adds	r4, #1
10003324:	2c10      	cmp	r4, #16
10003326:	d9f7      	bls.n	10003318 <_ZN23settings_storage_eeprom6formatEv+0x8>
10003328:	bd70      	pop	{r4, r5, r6, pc}
	...

1000332c <_ZN23settings_storage_eepromC1Ev>:
1000332c:	b510      	push	{r4, lr}
1000332e:	0004      	movs	r4, r0
10003330:	f7fd f948 	bl	100005c4 <_ZN16settings_storageC1Ev>
10003334:	4b03      	ldr	r3, [pc, #12]	; (10003344 <_ZN23settings_storage_eepromC1Ev+0x18>)
10003336:	3308      	adds	r3, #8
10003338:	6023      	str	r3, [r4, #0]
1000333a:	2301      	movs	r3, #1
1000333c:	7563      	strb	r3, [r4, #21]
1000333e:	0020      	movs	r0, r4
10003340:	bd10      	pop	{r4, pc}
10003342:	46c0      	nop			; (mov r8, r8)
10003344:	1002b118 	.word	0x1002b118

10003348 <_Z41__static_initialization_and_destruction_0ii>:
10003348:	b5f0      	push	{r4, r5, r6, r7, lr}
1000334a:	46ce      	mov	lr, r9
1000334c:	4647      	mov	r7, r8
1000334e:	b580      	push	{r7, lr}
10003350:	4ce2      	ldr	r4, [pc, #904]	; (100036dc <_Z41__static_initialization_and_destruction_0ii+0x394>)
10003352:	44a5      	add	sp, r4
10003354:	0004      	movs	r4, r0
10003356:	000d      	movs	r5, r1
10003358:	2801      	cmp	r0, #1
1000335a:	d00c      	beq.n	10003376 <_Z41__static_initialization_and_destruction_0ii+0x2e>
1000335c:	2c00      	cmp	r4, #0
1000335e:	d104      	bne.n	1000336a <_Z41__static_initialization_and_destruction_0ii+0x22>
10003360:	4bdf      	ldr	r3, [pc, #892]	; (100036e0 <_Z41__static_initialization_and_destruction_0ii+0x398>)
10003362:	429d      	cmp	r5, r3
10003364:	d101      	bne.n	1000336a <_Z41__static_initialization_and_destruction_0ii+0x22>
10003366:	f000 fe87 	bl	10004078 <_Z41__static_initialization_and_destruction_0ii+0xd30>
1000336a:	4bde      	ldr	r3, [pc, #888]	; (100036e4 <_Z41__static_initialization_and_destruction_0ii+0x39c>)
1000336c:	449d      	add	sp, r3
1000336e:	bcc0      	pop	{r6, r7}
10003370:	46b9      	mov	r9, r7
10003372:	46b0      	mov	r8, r6
10003374:	bdf0      	pop	{r4, r5, r6, r7, pc}
10003376:	4bda      	ldr	r3, [pc, #872]	; (100036e0 <_Z41__static_initialization_and_destruction_0ii+0x398>)
10003378:	4299      	cmp	r1, r3
1000337a:	d1ef      	bne.n	1000335c <_Z41__static_initialization_and_destruction_0ii+0x14>
1000337c:	4bda      	ldr	r3, [pc, #872]	; (100036e8 <_Z41__static_initialization_and_destruction_0ii+0x3a0>)
1000337e:	2200      	movs	r2, #0
10003380:	711a      	strb	r2, [r3, #4]
10003382:	609a      	str	r2, [r3, #8]
10003384:	1d19      	adds	r1, r3, #4
10003386:	60d9      	str	r1, [r3, #12]
10003388:	6119      	str	r1, [r3, #16]
1000338a:	615a      	str	r2, [r3, #20]
1000338c:	4bd7      	ldr	r3, [pc, #860]	; (100036ec <_Z41__static_initialization_and_destruction_0ii+0x3a4>)
1000338e:	681a      	ldr	r2, [r3, #0]
10003390:	1c56      	adds	r6, r2, #1
10003392:	601e      	str	r6, [r3, #0]
10003394:	2e01      	cmp	r6, #1
10003396:	d031      	beq.n	100033fc <_Z41__static_initialization_and_destruction_0ii+0xb4>
10003398:	4ad5      	ldr	r2, [pc, #852]	; (100036f0 <_Z41__static_initialization_and_destruction_0ii+0x3a8>)
1000339a:	6813      	ldr	r3, [r2, #0]
1000339c:	3301      	adds	r3, #1
1000339e:	6013      	str	r3, [r2, #0]
100033a0:	2b01      	cmp	r3, #1
100033a2:	d064      	beq.n	1000346e <_Z41__static_initialization_and_destruction_0ii+0x126>
100033a4:	4bd3      	ldr	r3, [pc, #844]	; (100036f4 <_Z41__static_initialization_and_destruction_0ii+0x3ac>)
100033a6:	681a      	ldr	r2, [r3, #0]
100033a8:	1c57      	adds	r7, r2, #1
100033aa:	601f      	str	r7, [r3, #0]
100033ac:	2f01      	cmp	r7, #1
100033ae:	d068      	beq.n	10003482 <_Z41__static_initialization_and_destruction_0ii+0x13a>
100033b0:	4ad1      	ldr	r2, [pc, #836]	; (100036f8 <_Z41__static_initialization_and_destruction_0ii+0x3b0>)
100033b2:	6813      	ldr	r3, [r2, #0]
100033b4:	3301      	adds	r3, #1
100033b6:	6013      	str	r3, [r2, #0]
100033b8:	2b01      	cmp	r3, #1
100033ba:	d101      	bne.n	100033c0 <_Z41__static_initialization_and_destruction_0ii+0x78>
100033bc:	f000 fd9d 	bl	10003efa <_Z41__static_initialization_and_destruction_0ii+0xbb2>
100033c0:	4ace      	ldr	r2, [pc, #824]	; (100036fc <_Z41__static_initialization_and_destruction_0ii+0x3b4>)
100033c2:	6813      	ldr	r3, [r2, #0]
100033c4:	3301      	adds	r3, #1
100033c6:	6013      	str	r3, [r2, #0]
100033c8:	2b01      	cmp	r3, #1
100033ca:	d101      	bne.n	100033d0 <_Z41__static_initialization_and_destruction_0ii+0x88>
100033cc:	f000 fe36 	bl	1000403c <_Z41__static_initialization_and_destruction_0ii+0xcf4>
100033d0:	4acb      	ldr	r2, [pc, #812]	; (10003700 <_Z41__static_initialization_and_destruction_0ii+0x3b8>)
100033d2:	6813      	ldr	r3, [r2, #0]
100033d4:	3301      	adds	r3, #1
100033d6:	6013      	str	r3, [r2, #0]
100033d8:	2b01      	cmp	r3, #1
100033da:	d101      	bne.n	100033e0 <_Z41__static_initialization_and_destruction_0ii+0x98>
100033dc:	f000 fe44 	bl	10004068 <_Z41__static_initialization_and_destruction_0ii+0xd20>
100033e0:	4ac8      	ldr	r2, [pc, #800]	; (10003704 <_Z41__static_initialization_and_destruction_0ii+0x3bc>)
100033e2:	6813      	ldr	r3, [r2, #0]
100033e4:	3301      	adds	r3, #1
100033e6:	6013      	str	r3, [r2, #0]
100033e8:	2b01      	cmp	r3, #1
100033ea:	d1b7      	bne.n	1000335c <_Z41__static_initialization_and_destruction_0ii+0x14>
100033ec:	22cd      	movs	r2, #205	; 0xcd
100033ee:	00d2      	lsls	r2, r2, #3
100033f0:	446a      	add	r2, sp
100033f2:	49c5      	ldr	r1, [pc, #788]	; (10003708 <_Z41__static_initialization_and_destruction_0ii+0x3c0>)
100033f4:	48c5      	ldr	r0, [pc, #788]	; (1000370c <_Z41__static_initialization_and_destruction_0ii+0x3c4>)
100033f6:	f7fd f94d 	bl	10000694 <_ZNSt7__cxx1112basic_stringIcSt11char_traitsIcESaIcEEC1IS3_EEPKcRKS3_>
100033fa:	e7af      	b.n	1000335c <_Z41__static_initialization_and_destruction_0ii+0x14>
100033fc:	aa2e      	add	r2, sp, #184	; 0xb8
100033fe:	49c4      	ldr	r1, [pc, #784]	; (10003710 <_Z41__static_initialization_and_destruction_0ii+0x3c8>)
10003400:	48c4      	ldr	r0, [pc, #784]	; (10003714 <_Z41__static_initialization_and_destruction_0ii+0x3cc>)
10003402:	f7fd f947 	bl	10000694 <_ZNSt7__cxx1112basic_stringIcSt11char_traitsIcESaIcEEC1IS3_EEPKcRKS3_>
10003406:	e010      	b.n	1000342a <_Z41__static_initialization_and_destruction_0ii+0xe2>
10003408:	2605      	movs	r6, #5
1000340a:	2405      	movs	r4, #5
1000340c:	1ba6      	subs	r6, r4, r6
1000340e:	3413      	adds	r4, #19
10003410:	4374      	muls	r4, r6
10003412:	4bc0      	ldr	r3, [pc, #768]	; (10003714 <_Z41__static_initialization_and_destruction_0ii+0x3cc>)
10003414:	18e4      	adds	r4, r4, r3
10003416:	4bbf      	ldr	r3, [pc, #764]	; (10003714 <_Z41__static_initialization_and_destruction_0ii+0x3cc>)
10003418:	429c      	cmp	r4, r3
1000341a:	d101      	bne.n	10003420 <_Z41__static_initialization_and_destruction_0ii+0xd8>
1000341c:	f000 feaa 	bl	10004174 <_Z41__static_initialization_and_destruction_0ii+0xe2c>
10003420:	3c18      	subs	r4, #24
10003422:	0020      	movs	r0, r4
10003424:	f01e fae8 	bl	100219f8 <_ZNSt7__cxx1112basic_stringIcSt11char_traitsIcESaIcEE10_M_disposeEv>
10003428:	e7f5      	b.n	10003416 <_Z41__static_initialization_and_destruction_0ii+0xce>
1000342a:	aa2f      	add	r2, sp, #188	; 0xbc
1000342c:	49ba      	ldr	r1, [pc, #744]	; (10003718 <_Z41__static_initialization_and_destruction_0ii+0x3d0>)
1000342e:	48bb      	ldr	r0, [pc, #748]	; (1000371c <_Z41__static_initialization_and_destruction_0ii+0x3d4>)
10003430:	f7fd f930 	bl	10000694 <_ZNSt7__cxx1112basic_stringIcSt11char_traitsIcESaIcEEC1IS3_EEPKcRKS3_>
10003434:	e001      	b.n	1000343a <_Z41__static_initialization_and_destruction_0ii+0xf2>
10003436:	2604      	movs	r6, #4
10003438:	e7e7      	b.n	1000340a <_Z41__static_initialization_and_destruction_0ii+0xc2>
1000343a:	aa30      	add	r2, sp, #192	; 0xc0
1000343c:	49b8      	ldr	r1, [pc, #736]	; (10003720 <_Z41__static_initialization_and_destruction_0ii+0x3d8>)
1000343e:	48b9      	ldr	r0, [pc, #740]	; (10003724 <_Z41__static_initialization_and_destruction_0ii+0x3dc>)
10003440:	f7fd f928 	bl	10000694 <_ZNSt7__cxx1112basic_stringIcSt11char_traitsIcESaIcEEC1IS3_EEPKcRKS3_>
10003444:	e001      	b.n	1000344a <_Z41__static_initialization_and_destruction_0ii+0x102>
10003446:	2603      	movs	r6, #3
10003448:	e7df      	b.n	1000340a <_Z41__static_initialization_and_destruction_0ii+0xc2>
1000344a:	aa31      	add	r2, sp, #196	; 0xc4
1000344c:	49b6      	ldr	r1, [pc, #728]	; (10003728 <_Z41__static_initialization_and_destruction_0ii+0x3e0>)
1000344e:	48b7      	ldr	r0, [pc, #732]	; (1000372c <_Z41__static_initialization_and_destruction_0ii+0x3e4>)
10003450:	f7fd f920 	bl	10000694 <_ZNSt7__cxx1112basic_stringIcSt11char_traitsIcESaIcEEC1IS3_EEPKcRKS3_>
10003454:	aa32      	add	r2, sp, #200	; 0xc8
10003456:	49b6      	ldr	r1, [pc, #728]	; (10003730 <_Z41__static_initialization_and_destruction_0ii+0x3e8>)
10003458:	48b6      	ldr	r0, [pc, #728]	; (10003734 <_Z41__static_initialization_and_destruction_0ii+0x3ec>)
1000345a:	f7fd f91b 	bl	10000694 <_ZNSt7__cxx1112basic_stringIcSt11char_traitsIcESaIcEEC1IS3_EEPKcRKS3_>
1000345e:	aa33      	add	r2, sp, #204	; 0xcc
10003460:	49b5      	ldr	r1, [pc, #724]	; (10003738 <_Z41__static_initialization_and_destruction_0ii+0x3f0>)
10003462:	48b6      	ldr	r0, [pc, #728]	; (1000373c <_Z41__static_initialization_and_destruction_0ii+0x3f4>)
10003464:	f7fd f916 	bl	10000694 <_ZNSt7__cxx1112basic_stringIcSt11char_traitsIcESaIcEEC1IS3_EEPKcRKS3_>
10003468:	e796      	b.n	10003398 <_Z41__static_initialization_and_destruction_0ii+0x50>
1000346a:	2600      	movs	r6, #0
1000346c:	e7cd      	b.n	1000340a <_Z41__static_initialization_and_destruction_0ii+0xc2>
1000346e:	4bb4      	ldr	r3, [pc, #720]	; (10003740 <_Z41__static_initialization_and_destruction_0ii+0x3f8>)
10003470:	2200      	movs	r2, #0
10003472:	701a      	strb	r2, [r3, #0]
10003474:	605a      	str	r2, [r3, #4]
10003476:	2102      	movs	r1, #2
10003478:	6099      	str	r1, [r3, #8]
1000347a:	311c      	adds	r1, #28
1000347c:	7319      	strb	r1, [r3, #12]
1000347e:	735a      	strb	r2, [r3, #13]
10003480:	e790      	b.n	100033a4 <_Z41__static_initialization_and_destruction_0ii+0x5c>
10003482:	aa3a      	add	r2, sp, #232	; 0xe8
10003484:	49a0      	ldr	r1, [pc, #640]	; (10003708 <_Z41__static_initialization_and_destruction_0ii+0x3c0>)
10003486:	a834      	add	r0, sp, #208	; 0xd0
10003488:	f7fd f904 	bl	10000694 <_ZNSt7__cxx1112basic_stringIcSt11char_traitsIcESaIcEEC1IS3_EEPKcRKS3_>
1000348c:	e010      	b.n	100034b0 <_Z41__static_initialization_and_destruction_0ii+0x168>
1000348e:	270f      	movs	r7, #15
10003490:	230f      	movs	r3, #15
10003492:	1bdb      	subs	r3, r3, r7
10003494:	244c      	movs	r4, #76	; 0x4c
10003496:	435c      	muls	r4, r3
10003498:	4baa      	ldr	r3, [pc, #680]	; (10003744 <_Z41__static_initialization_and_destruction_0ii+0x3fc>)
1000349a:	18e4      	adds	r4, r4, r3
1000349c:	4ba9      	ldr	r3, [pc, #676]	; (10003744 <_Z41__static_initialization_and_destruction_0ii+0x3fc>)
1000349e:	429c      	cmp	r4, r3
100034a0:	d101      	bne.n	100034a6 <_Z41__static_initialization_and_destruction_0ii+0x15e>
100034a2:	f000 ff59 	bl	10004358 <_Z41__static_initialization_and_destruction_0ii+0x1010>
100034a6:	3c4c      	subs	r4, #76	; 0x4c
100034a8:	0020      	movs	r0, r4
100034aa:	f7fd f859 	bl	10000560 <_ZNSt11_Tuple_implILj0EJKNSt7__cxx1112basic_stringIcSt11char_traitsIcESaIcEEES6_N14wifi_interface12CMD_DATATYPEEiibSt6vectorIS5_SaIS5_EEEED1Ev>
100034ae:	e7f5      	b.n	1000349c <_Z41__static_initialization_and_destruction_0ii+0x154>
100034b0:	aa41      	add	r2, sp, #260	; 0x104
100034b2:	4995      	ldr	r1, [pc, #596]	; (10003708 <_Z41__static_initialization_and_destruction_0ii+0x3c0>)
100034b4:	a83b      	add	r0, sp, #236	; 0xec
100034b6:	f7fd f8ed 	bl	10000694 <_ZNSt7__cxx1112basic_stringIcSt11char_traitsIcESaIcEEC1IS3_EEPKcRKS3_>
100034ba:	2600      	movs	r6, #0
100034bc:	9642      	str	r6, [sp, #264]	; 0x108
100034be:	2301      	movs	r3, #1
100034c0:	425b      	negs	r3, r3
100034c2:	9343      	str	r3, [sp, #268]	; 0x10c
100034c4:	9344      	str	r3, [sp, #272]	; 0x110
100034c6:	2318      	movs	r3, #24
100034c8:	33ff      	adds	r3, #255	; 0xff
100034ca:	446b      	add	r3, sp
100034cc:	701e      	strb	r6, [r3, #0]
100034ce:	220c      	movs	r2, #12
100034d0:	0031      	movs	r1, r6
100034d2:	a846      	add	r0, sp, #280	; 0x118
100034d4:	f018 fdb6 	bl	1001c044 <__wrap_memset>
100034d8:	9646      	str	r6, [sp, #280]	; 0x118
100034da:	9647      	str	r6, [sp, #284]	; 0x11c
100034dc:	9648      	str	r6, [sp, #288]	; 0x120
100034de:	ab46      	add	r3, sp, #280	; 0x118
100034e0:	9303      	str	r3, [sp, #12]
100034e2:	2318      	movs	r3, #24
100034e4:	33ff      	adds	r3, #255	; 0xff
100034e6:	446b      	add	r3, sp
100034e8:	9302      	str	r3, [sp, #8]
100034ea:	ab44      	add	r3, sp, #272	; 0x110
100034ec:	9301      	str	r3, [sp, #4]
100034ee:	ab43      	add	r3, sp, #268	; 0x10c
100034f0:	9300      	str	r3, [sp, #0]
100034f2:	ab42      	add	r3, sp, #264	; 0x108
100034f4:	aa3b      	add	r2, sp, #236	; 0xec
100034f6:	a934      	add	r1, sp, #208	; 0xd0
100034f8:	4892      	ldr	r0, [pc, #584]	; (10003744 <_Z41__static_initialization_and_destruction_0ii+0x3fc>)
100034fa:	f7fd fa67 	bl	100009cc <_ZNSt11_Tuple_implILj0EJKNSt7__cxx1112basic_stringIcSt11char_traitsIcESaIcEEES6_N14wifi_interface12CMD_DATATYPEEiibSt6vectorIS5_SaIS5_EEEEC1ERS6_SD_RKS8_RKiSH_RKbRKSB_>
100034fe:	a846      	add	r0, sp, #280	; 0x118
10003500:	f7fd f871 	bl	100005e6 <_ZNSt6vectorINSt7__cxx1112basic_stringIcSt11char_traitsIcESaIcEEESaIS5_EED1Ev>
10003504:	a83b      	add	r0, sp, #236	; 0xec
10003506:	f01e fa77 	bl	100219f8 <_ZNSt7__cxx1112basic_stringIcSt11char_traitsIcESaIcEE10_M_disposeEv>
1000350a:	a834      	add	r0, sp, #208	; 0xd0
1000350c:	f01e fa74 	bl	100219f8 <_ZNSt7__cxx1112basic_stringIcSt11char_traitsIcESaIcEE10_M_disposeEv>
10003510:	aa4f      	add	r2, sp, #316	; 0x13c
10003512:	498d      	ldr	r1, [pc, #564]	; (10003748 <_Z41__static_initialization_and_destruction_0ii+0x400>)
10003514:	a849      	add	r0, sp, #292	; 0x124
10003516:	f7fd f8bd 	bl	10000694 <_ZNSt7__cxx1112basic_stringIcSt11char_traitsIcESaIcEEC1IS3_EEPKcRKS3_>
1000351a:	e001      	b.n	10003520 <_Z41__static_initialization_and_destruction_0ii+0x1d8>
1000351c:	270e      	movs	r7, #14
1000351e:	e7b7      	b.n	10003490 <_Z41__static_initialization_and_destruction_0ii+0x148>
10003520:	aa56      	add	r2, sp, #344	; 0x158
10003522:	498a      	ldr	r1, [pc, #552]	; (1000374c <_Z41__static_initialization_and_destruction_0ii+0x404>)
10003524:	a850      	add	r0, sp, #320	; 0x140
10003526:	f7fd f8b5 	bl	10000694 <_ZNSt7__cxx1112basic_stringIcSt11char_traitsIcESaIcEEC1IS3_EEPKcRKS3_>
1000352a:	2303      	movs	r3, #3
1000352c:	9357      	str	r3, [sp, #348]	; 0x15c
1000352e:	3b04      	subs	r3, #4
10003530:	9358      	str	r3, [sp, #352]	; 0x160
10003532:	9359      	str	r3, [sp, #356]	; 0x164
10003534:	2600      	movs	r6, #0
10003536:	236c      	movs	r3, #108	; 0x6c
10003538:	33ff      	adds	r3, #255	; 0xff
1000353a:	446b      	add	r3, sp
1000353c:	701e      	strb	r6, [r3, #0]
1000353e:	220c      	movs	r2, #12
10003540:	0031      	movs	r1, r6
10003542:	a85b      	add	r0, sp, #364	; 0x16c
10003544:	f018 fd7e 	bl	1001c044 <__wrap_memset>
10003548:	965b      	str	r6, [sp, #364]	; 0x16c
1000354a:	965c      	str	r6, [sp, #368]	; 0x170
1000354c:	965d      	str	r6, [sp, #372]	; 0x174
1000354e:	ab5b      	add	r3, sp, #364	; 0x16c
10003550:	9303      	str	r3, [sp, #12]
10003552:	236c      	movs	r3, #108	; 0x6c
10003554:	33ff      	adds	r3, #255	; 0xff
10003556:	446b      	add	r3, sp
10003558:	9302      	str	r3, [sp, #8]
1000355a:	ab59      	add	r3, sp, #356	; 0x164
1000355c:	9301      	str	r3, [sp, #4]
1000355e:	ab58      	add	r3, sp, #352	; 0x160
10003560:	9300      	str	r3, [sp, #0]
10003562:	ab57      	add	r3, sp, #348	; 0x15c
10003564:	aa50      	add	r2, sp, #320	; 0x140
10003566:	a949      	add	r1, sp, #292	; 0x124
10003568:	4879      	ldr	r0, [pc, #484]	; (10003750 <_Z41__static_initialization_and_destruction_0ii+0x408>)
1000356a:	f7fd fa2f 	bl	100009cc <_ZNSt11_Tuple_implILj0EJKNSt7__cxx1112basic_stringIcSt11char_traitsIcESaIcEEES6_N14wifi_interface12CMD_DATATYPEEiibSt6vectorIS5_SaIS5_EEEEC1ERS6_SD_RKS8_RKiSH_RKbRKSB_>
1000356e:	a85b      	add	r0, sp, #364	; 0x16c
10003570:	f7fd f839 	bl	100005e6 <_ZNSt6vectorINSt7__cxx1112basic_stringIcSt11char_traitsIcESaIcEEESaIS5_EED1Ev>
10003574:	a850      	add	r0, sp, #320	; 0x140
10003576:	f01e fa3f 	bl	100219f8 <_ZNSt7__cxx1112basic_stringIcSt11char_traitsIcESaIcEE10_M_disposeEv>
1000357a:	a849      	add	r0, sp, #292	; 0x124
1000357c:	f01e fa3c 	bl	100219f8 <_ZNSt7__cxx1112basic_stringIcSt11char_traitsIcESaIcEE10_M_disposeEv>
10003580:	aa64      	add	r2, sp, #400	; 0x190
10003582:	4974      	ldr	r1, [pc, #464]	; (10003754 <_Z41__static_initialization_and_destruction_0ii+0x40c>)
10003584:	a85e      	add	r0, sp, #376	; 0x178
10003586:	f7fd f885 	bl	10000694 <_ZNSt7__cxx1112basic_stringIcSt11char_traitsIcESaIcEEC1IS3_EEPKcRKS3_>
1000358a:	e001      	b.n	10003590 <_Z41__static_initialization_and_destruction_0ii+0x248>
1000358c:	270d      	movs	r7, #13
1000358e:	e77f      	b.n	10003490 <_Z41__static_initialization_and_destruction_0ii+0x148>
10003590:	aa6b      	add	r2, sp, #428	; 0x1ac
10003592:	4971      	ldr	r1, [pc, #452]	; (10003758 <_Z41__static_initialization_and_destruction_0ii+0x410>)
10003594:	a865      	add	r0, sp, #404	; 0x194
10003596:	f7fd f87d 	bl	10000694 <_ZNSt7__cxx1112basic_stringIcSt11char_traitsIcESaIcEEC1IS3_EEPKcRKS3_>
1000359a:	2303      	movs	r3, #3
1000359c:	936c      	str	r3, [sp, #432]	; 0x1b0
1000359e:	3b04      	subs	r3, #4
100035a0:	936d      	str	r3, [sp, #436]	; 0x1b4
100035a2:	936e      	str	r3, [sp, #440]	; 0x1b8
100035a4:	2600      	movs	r6, #0
100035a6:	23c0      	movs	r3, #192	; 0xc0
100035a8:	33ff      	adds	r3, #255	; 0xff
100035aa:	446b      	add	r3, sp
100035ac:	701e      	strb	r6, [r3, #0]
100035ae:	220c      	movs	r2, #12
100035b0:	0031      	movs	r1, r6
100035b2:	a870      	add	r0, sp, #448	; 0x1c0
100035b4:	f018 fd46 	bl	1001c044 <__wrap_memset>
100035b8:	9670      	str	r6, [sp, #448]	; 0x1c0
100035ba:	9671      	str	r6, [sp, #452]	; 0x1c4
100035bc:	9672      	str	r6, [sp, #456]	; 0x1c8
100035be:	ab70      	add	r3, sp, #448	; 0x1c0
100035c0:	9303      	str	r3, [sp, #12]
100035c2:	23c0      	movs	r3, #192	; 0xc0
100035c4:	33ff      	adds	r3, #255	; 0xff
100035c6:	446b      	add	r3, sp
100035c8:	9302      	str	r3, [sp, #8]
100035ca:	ab6e      	add	r3, sp, #440	; 0x1b8
100035cc:	9301      	str	r3, [sp, #4]
100035ce:	ab6d      	add	r3, sp, #436	; 0x1b4
100035d0:	9300      	str	r3, [sp, #0]
100035d2:	ab6c      	add	r3, sp, #432	; 0x1b0
100035d4:	aa65      	add	r2, sp, #404	; 0x194
100035d6:	a95e      	add	r1, sp, #376	; 0x178
100035d8:	4860      	ldr	r0, [pc, #384]	; (1000375c <_Z41__static_initialization_and_destruction_0ii+0x414>)
100035da:	f7fd f9f7 	bl	100009cc <_ZNSt11_Tuple_implILj0EJKNSt7__cxx1112basic_stringIcSt11char_traitsIcESaIcEEES6_N14wifi_interface12CMD_DATATYPEEiibSt6vectorIS5_SaIS5_EEEEC1ERS6_SD_RKS8_RKiSH_RKbRKSB_>
100035de:	a870      	add	r0, sp, #448	; 0x1c0
100035e0:	f7fd f801 	bl	100005e6 <_ZNSt6vectorINSt7__cxx1112basic_stringIcSt11char_traitsIcESaIcEEESaIS5_EED1Ev>
100035e4:	a865      	add	r0, sp, #404	; 0x194
100035e6:	f01e fa07 	bl	100219f8 <_ZNSt7__cxx1112basic_stringIcSt11char_traitsIcESaIcEE10_M_disposeEv>
100035ea:	a85e      	add	r0, sp, #376	; 0x178
100035ec:	f01e fa04 	bl	100219f8 <_ZNSt7__cxx1112basic_stringIcSt11char_traitsIcESaIcEE10_M_disposeEv>
100035f0:	aa79      	add	r2, sp, #484	; 0x1e4
100035f2:	495b      	ldr	r1, [pc, #364]	; (10003760 <_Z41__static_initialization_and_destruction_0ii+0x418>)
100035f4:	a873      	add	r0, sp, #460	; 0x1cc
100035f6:	f7fd f84d 	bl	10000694 <_ZNSt7__cxx1112basic_stringIcSt11char_traitsIcESaIcEEC1IS3_EEPKcRKS3_>
100035fa:	e001      	b.n	10003600 <_Z41__static_initialization_and_destruction_0ii+0x2b8>
100035fc:	270c      	movs	r7, #12
100035fe:	e747      	b.n	10003490 <_Z41__static_initialization_and_destruction_0ii+0x148>
10003600:	aa80      	add	r2, sp, #512	; 0x200
10003602:	4958      	ldr	r1, [pc, #352]	; (10003764 <_Z41__static_initialization_and_destruction_0ii+0x41c>)
10003604:	a87a      	add	r0, sp, #488	; 0x1e8
10003606:	f7fd f845 	bl	10000694 <_ZNSt7__cxx1112basic_stringIcSt11char_traitsIcESaIcEEC1IS3_EEPKcRKS3_>
1000360a:	2301      	movs	r3, #1
1000360c:	9381      	str	r3, [sp, #516]	; 0x204
1000360e:	2600      	movs	r6, #0
10003610:	9682      	str	r6, [sp, #520]	; 0x208
10003612:	22ff      	movs	r2, #255	; 0xff
10003614:	4252      	negs	r2, r2
10003616:	9283      	str	r2, [sp, #524]	; 0x20c
10003618:	4a53      	ldr	r2, [pc, #332]	; (10003768 <_Z41__static_initialization_and_destruction_0ii+0x420>)
1000361a:	446a      	add	r2, sp
1000361c:	7013      	strb	r3, [r2, #0]
1000361e:	220c      	movs	r2, #12
10003620:	0031      	movs	r1, r6
10003622:	a885      	add	r0, sp, #532	; 0x214
10003624:	f018 fd0e 	bl	1001c044 <__wrap_memset>
10003628:	9685      	str	r6, [sp, #532]	; 0x214
1000362a:	9686      	str	r6, [sp, #536]	; 0x218
1000362c:	9687      	str	r6, [sp, #540]	; 0x21c
1000362e:	ab85      	add	r3, sp, #532	; 0x214
10003630:	9303      	str	r3, [sp, #12]
10003632:	4b4d      	ldr	r3, [pc, #308]	; (10003768 <_Z41__static_initialization_and_destruction_0ii+0x420>)
10003634:	446b      	add	r3, sp
10003636:	9302      	str	r3, [sp, #8]
10003638:	ab83      	add	r3, sp, #524	; 0x20c
1000363a:	9301      	str	r3, [sp, #4]
1000363c:	ab82      	add	r3, sp, #520	; 0x208
1000363e:	9300      	str	r3, [sp, #0]
10003640:	ab81      	add	r3, sp, #516	; 0x204
10003642:	aa7a      	add	r2, sp, #488	; 0x1e8
10003644:	a973      	add	r1, sp, #460	; 0x1cc
10003646:	4849      	ldr	r0, [pc, #292]	; (1000376c <_Z41__static_initialization_and_destruction_0ii+0x424>)
10003648:	f7fd f9c0 	bl	100009cc <_ZNSt11_Tuple_implILj0EJKNSt7__cxx1112basic_stringIcSt11char_traitsIcESaIcEEES6_N14wifi_interface12CMD_DATATYPEEiibSt6vectorIS5_SaIS5_EEEEC1ERS6_SD_RKS8_RKiSH_RKbRKSB_>
1000364c:	a885      	add	r0, sp, #532	; 0x214
1000364e:	f7fc ffca 	bl	100005e6 <_ZNSt6vectorINSt7__cxx1112basic_stringIcSt11char_traitsIcESaIcEEESaIS5_EED1Ev>
10003652:	a87a      	add	r0, sp, #488	; 0x1e8
10003654:	f01e f9d0 	bl	100219f8 <_ZNSt7__cxx1112basic_stringIcSt11char_traitsIcESaIcEE10_M_disposeEv>
10003658:	a873      	add	r0, sp, #460	; 0x1cc
1000365a:	f01e f9cd 	bl	100219f8 <_ZNSt7__cxx1112basic_stringIcSt11char_traitsIcESaIcEE10_M_disposeEv>
1000365e:	aa8e      	add	r2, sp, #568	; 0x238
10003660:	4943      	ldr	r1, [pc, #268]	; (10003770 <_Z41__static_initialization_and_destruction_0ii+0x428>)
10003662:	a888      	add	r0, sp, #544	; 0x220
10003664:	f7fd f816 	bl	10000694 <_ZNSt7__cxx1112basic_stringIcSt11char_traitsIcESaIcEEC1IS3_EEPKcRKS3_>
10003668:	e001      	b.n	1000366e <_Z41__static_initialization_and_destruction_0ii+0x326>
1000366a:	270b      	movs	r7, #11
1000366c:	e710      	b.n	10003490 <_Z41__static_initialization_and_destruction_0ii+0x148>
1000366e:	aa95      	add	r2, sp, #596	; 0x254
10003670:	4925      	ldr	r1, [pc, #148]	; (10003708 <_Z41__static_initialization_and_destruction_0ii+0x3c0>)
10003672:	a88f      	add	r0, sp, #572	; 0x23c
10003674:	f7fd f80e 	bl	10000694 <_ZNSt7__cxx1112basic_stringIcSt11char_traitsIcESaIcEEC1IS3_EEPKcRKS3_>
10003678:	2303      	movs	r3, #3
1000367a:	9396      	str	r3, [sp, #600]	; 0x258
1000367c:	3b04      	subs	r3, #4
1000367e:	9397      	str	r3, [sp, #604]	; 0x25c
10003680:	9398      	str	r3, [sp, #608]	; 0x260
10003682:	2600      	movs	r6, #0
10003684:	4b3b      	ldr	r3, [pc, #236]	; (10003774 <_Z41__static_initialization_and_destruction_0ii+0x42c>)
10003686:	446b      	add	r3, sp
10003688:	701e      	strb	r6, [r3, #0]
1000368a:	220c      	movs	r2, #12
1000368c:	0031      	movs	r1, r6
1000368e:	a89a      	add	r0, sp, #616	; 0x268
10003690:	f018 fcd8 	bl	1001c044 <__wrap_memset>
10003694:	969a      	str	r6, [sp, #616]	; 0x268
10003696:	969b      	str	r6, [sp, #620]	; 0x26c
10003698:	969c      	str	r6, [sp, #624]	; 0x270
1000369a:	ab9a      	add	r3, sp, #616	; 0x268
1000369c:	9303      	str	r3, [sp, #12]
1000369e:	4b35      	ldr	r3, [pc, #212]	; (10003774 <_Z41__static_initialization_and_destruction_0ii+0x42c>)
100036a0:	446b      	add	r3, sp
100036a2:	9302      	str	r3, [sp, #8]
100036a4:	ab98      	add	r3, sp, #608	; 0x260
100036a6:	9301      	str	r3, [sp, #4]
100036a8:	ab97      	add	r3, sp, #604	; 0x25c
100036aa:	9300      	str	r3, [sp, #0]
100036ac:	ab96      	add	r3, sp, #600	; 0x258
100036ae:	aa8f      	add	r2, sp, #572	; 0x23c
100036b0:	a988      	add	r1, sp, #544	; 0x220
100036b2:	4831      	ldr	r0, [pc, #196]	; (10003778 <_Z41__static_initialization_and_destruction_0ii+0x430>)
100036b4:	f7fd f98a 	bl	100009cc <_ZNSt11_Tuple_implILj0EJKNSt7__cxx1112basic_stringIcSt11char_traitsIcESaIcEEES6_N14wifi_interface12CMD_DATATYPEEiibSt6vectorIS5_SaIS5_EEEEC1ERS6_SD_RKS8_RKiSH_RKbRKSB_>
100036b8:	a89a      	add	r0, sp, #616	; 0x268
100036ba:	f7fc ff94 	bl	100005e6 <_ZNSt6vectorINSt7__cxx1112basic_stringIcSt11char_traitsIcESaIcEEESaIS5_EED1Ev>
100036be:	a88f      	add	r0, sp, #572	; 0x23c
100036c0:	f01e f99a 	bl	100219f8 <_ZNSt7__cxx1112basic_stringIcSt11char_traitsIcESaIcEE10_M_disposeEv>
100036c4:	a888      	add	r0, sp, #544	; 0x220
100036c6:	f01e f997 	bl	100219f8 <_ZNSt7__cxx1112basic_stringIcSt11char_traitsIcESaIcEE10_M_disposeEv>
100036ca:	aaa3      	add	r2, sp, #652	; 0x28c
100036cc:	492b      	ldr	r1, [pc, #172]	; (1000377c <_Z41__static_initialization_and_destruction_0ii+0x434>)
100036ce:	a89d      	add	r0, sp, #628	; 0x274
100036d0:	f7fc ffe0 	bl	10000694 <_ZNSt7__cxx1112basic_stringIcSt11char_traitsIcESaIcEEC1IS3_EEPKcRKS3_>
100036d4:	e054      	b.n	10003780 <_Z41__static_initialization_and_destruction_0ii+0x438>
100036d6:	270a      	movs	r7, #10
100036d8:	e6da      	b.n	10003490 <_Z41__static_initialization_and_destruction_0ii+0x148>
100036da:	46c0      	nop			; (mov r8, r8)
100036dc:	fffff944 	.word	0xfffff944
100036e0:	0000ffff 	.word	0x0000ffff
100036e4:	000006bc 	.word	0x000006bc
100036e8:	20002c58 	.word	0x20002c58
100036ec:	20001ff8 	.word	0x20001ff8
100036f0:	20001ffc 	.word	0x20001ffc
100036f4:	20001ff4 	.word	0x20001ff4
100036f8:	20001ff0 	.word	0x20001ff0
100036fc:	20001fec 	.word	0x20001fec
10003700:	20001fe4 	.word	0x20001fe4
10003704:	20001fe8 	.word	0x20001fe8
10003708:	1002c1c4 	.word	0x1002c1c4
1000370c:	20002048 	.word	0x20002048
10003710:	1002ae8c 	.word	0x1002ae8c
10003714:	20002564 	.word	0x20002564
10003718:	1002ae94 	.word	0x1002ae94
1000371c:	2000257c 	.word	0x2000257c
10003720:	1002ae9c 	.word	0x1002ae9c
10003724:	20002594 	.word	0x20002594
10003728:	1002aea4 	.word	0x1002aea4
1000372c:	200025ac 	.word	0x200025ac
10003730:	1002aeac 	.word	0x1002aeac
10003734:	200025c4 	.word	0x200025c4
10003738:	1002aeb4 	.word	0x1002aeb4
1000373c:	200025dc 	.word	0x200025dc
10003740:	200025f4 	.word	0x200025f4
10003744:	200020a4 	.word	0x200020a4
10003748:	1002aebc 	.word	0x1002aebc
1000374c:	1002aec0 	.word	0x1002aec0
10003750:	200020f0 	.word	0x200020f0
10003754:	10030ae0 	.word	0x10030ae0
10003758:	1002aec4 	.word	0x1002aec4
1000375c:	2000213c 	.word	0x2000213c
10003760:	1002aed0 	.word	0x1002aed0
10003764:	1002aed4 	.word	0x1002aed4
10003768:	00000213 	.word	0x00000213
1000376c:	20002188 	.word	0x20002188
10003770:	1002aee4 	.word	0x1002aee4
10003774:	00000267 	.word	0x00000267
10003778:	200021d4 	.word	0x200021d4
1000377c:	1002aee8 	.word	0x1002aee8
10003780:	aaaa      	add	r2, sp, #680	; 0x2a8
10003782:	49ec      	ldr	r1, [pc, #944]	; (10003b34 <_Z41__static_initialization_and_destruction_0ii+0x7ec>)
10003784:	a8a4      	add	r0, sp, #656	; 0x290
10003786:	f7fc ff85 	bl	10000694 <_ZNSt7__cxx1112basic_stringIcSt11char_traitsIcESaIcEEC1IS3_EEPKcRKS3_>
1000378a:	2304      	movs	r3, #4
1000378c:	93ab      	str	r3, [sp, #684]	; 0x2ac
1000378e:	2300      	movs	r3, #0
10003790:	93ac      	str	r3, [sp, #688]	; 0x2b0
10003792:	3305      	adds	r3, #5
10003794:	93ad      	str	r3, [sp, #692]	; 0x2b4
10003796:	4be8      	ldr	r3, [pc, #928]	; (10003b38 <_Z41__static_initialization_and_destruction_0ii+0x7f0>)
10003798:	446b      	add	r3, sp
1000379a:	2201      	movs	r2, #1
1000379c:	701a      	strb	r2, [r3, #0]
1000379e:	aab4      	add	r2, sp, #720	; 0x2d0
100037a0:	49e6      	ldr	r1, [pc, #920]	; (10003b3c <_Z41__static_initialization_and_destruction_0ii+0x7f4>)
100037a2:	a80a      	add	r0, sp, #40	; 0x28
100037a4:	f7fc ff76 	bl	10000694 <_ZNSt7__cxx1112basic_stringIcSt11char_traitsIcESaIcEEC1IS3_EEPKcRKS3_>
100037a8:	aab5      	add	r2, sp, #724	; 0x2d4
100037aa:	49e5      	ldr	r1, [pc, #916]	; (10003b40 <_Z41__static_initialization_and_destruction_0ii+0x7f8>)
100037ac:	a810      	add	r0, sp, #64	; 0x40
100037ae:	f7fc ff71 	bl	10000694 <_ZNSt7__cxx1112basic_stringIcSt11char_traitsIcESaIcEEC1IS3_EEPKcRKS3_>
100037b2:	aab6      	add	r2, sp, #728	; 0x2d8
100037b4:	49e3      	ldr	r1, [pc, #908]	; (10003b44 <_Z41__static_initialization_and_destruction_0ii+0x7fc>)
100037b6:	a816      	add	r0, sp, #88	; 0x58
100037b8:	f7fc ff6c 	bl	10000694 <_ZNSt7__cxx1112basic_stringIcSt11char_traitsIcESaIcEEC1IS3_EEPKcRKS3_>
100037bc:	aab7      	add	r2, sp, #732	; 0x2dc
100037be:	49e2      	ldr	r1, [pc, #904]	; (10003b48 <_Z41__static_initialization_and_destruction_0ii+0x800>)
100037c0:	a81c      	add	r0, sp, #112	; 0x70
100037c2:	f7fc ff67 	bl	10000694 <_ZNSt7__cxx1112basic_stringIcSt11char_traitsIcESaIcEEC1IS3_EEPKcRKS3_>
100037c6:	aab8      	add	r2, sp, #736	; 0x2e0
100037c8:	49e0      	ldr	r1, [pc, #896]	; (10003b4c <_Z41__static_initialization_and_destruction_0ii+0x804>)
100037ca:	a822      	add	r0, sp, #136	; 0x88
100037cc:	f7fc ff62 	bl	10000694 <_ZNSt7__cxx1112basic_stringIcSt11char_traitsIcESaIcEEC1IS3_EEPKcRKS3_>
100037d0:	aab9      	add	r2, sp, #740	; 0x2e4
100037d2:	49df      	ldr	r1, [pc, #892]	; (10003b50 <_Z41__static_initialization_and_destruction_0ii+0x808>)
100037d4:	a828      	add	r0, sp, #160	; 0xa0
100037d6:	f7fc ff5d 	bl	10000694 <_ZNSt7__cxx1112basic_stringIcSt11char_traitsIcESaIcEEC1IS3_EEPKcRKS3_>
100037da:	a90a      	add	r1, sp, #40	; 0x28
100037dc:	91b2      	str	r1, [sp, #712]	; 0x2c8
100037de:	2206      	movs	r2, #6
100037e0:	92b3      	str	r2, [sp, #716]	; 0x2cc
100037e2:	abba      	add	r3, sp, #744	; 0x2e8
100037e4:	a8af      	add	r0, sp, #700	; 0x2bc
100037e6:	f7fd f887 	bl	100008f8 <_ZNSt6vectorINSt7__cxx1112basic_stringIcSt11char_traitsIcESaIcEEESaIS5_EEC1ESt16initializer_listIS5_ERKS6_>
100037ea:	e00a      	b.n	10003802 <_Z41__static_initialization_and_destruction_0ii+0x4ba>
100037ec:	ac2e      	add	r4, sp, #184	; 0xb8
100037ee:	ab0a      	add	r3, sp, #40	; 0x28
100037f0:	429c      	cmp	r4, r3
100037f2:	d101      	bne.n	100037f8 <_Z41__static_initialization_and_destruction_0ii+0x4b0>
100037f4:	f000 fd07 	bl	10004206 <_Z41__static_initialization_and_destruction_0ii+0xebe>
100037f8:	3c18      	subs	r4, #24
100037fa:	0020      	movs	r0, r4
100037fc:	f01e f8fc 	bl	100219f8 <_ZNSt7__cxx1112basic_stringIcSt11char_traitsIcESaIcEE10_M_disposeEv>
10003800:	e7f5      	b.n	100037ee <_Z41__static_initialization_and_destruction_0ii+0x4a6>
10003802:	abaf      	add	r3, sp, #700	; 0x2bc
10003804:	9303      	str	r3, [sp, #12]
10003806:	4bcc      	ldr	r3, [pc, #816]	; (10003b38 <_Z41__static_initialization_and_destruction_0ii+0x7f0>)
10003808:	446b      	add	r3, sp
1000380a:	9302      	str	r3, [sp, #8]
1000380c:	abad      	add	r3, sp, #692	; 0x2b4
1000380e:	9301      	str	r3, [sp, #4]
10003810:	abac      	add	r3, sp, #688	; 0x2b0
10003812:	9300      	str	r3, [sp, #0]
10003814:	abab      	add	r3, sp, #684	; 0x2ac
10003816:	aaa4      	add	r2, sp, #656	; 0x290
10003818:	a99d      	add	r1, sp, #628	; 0x274
1000381a:	48ce      	ldr	r0, [pc, #824]	; (10003b54 <_Z41__static_initialization_and_destruction_0ii+0x80c>)
1000381c:	f7fd f8d6 	bl	100009cc <_ZNSt11_Tuple_implILj0EJKNSt7__cxx1112basic_stringIcSt11char_traitsIcESaIcEEES6_N14wifi_interface12CMD_DATATYPEEiibSt6vectorIS5_SaIS5_EEEEC1ERS6_SD_RKS8_RKiSH_RKbRKSB_>
10003820:	a8af      	add	r0, sp, #700	; 0x2bc
10003822:	f7fc fee0 	bl	100005e6 <_ZNSt6vectorINSt7__cxx1112basic_stringIcSt11char_traitsIcESaIcEEESaIS5_EED1Ev>
10003826:	ae2e      	add	r6, sp, #184	; 0xb8
10003828:	ab0a      	add	r3, sp, #40	; 0x28
1000382a:	429e      	cmp	r6, r3
1000382c:	d004      	beq.n	10003838 <_Z41__static_initialization_and_destruction_0ii+0x4f0>
1000382e:	3e18      	subs	r6, #24
10003830:	0030      	movs	r0, r6
10003832:	f01e f8e1 	bl	100219f8 <_ZNSt7__cxx1112basic_stringIcSt11char_traitsIcESaIcEE10_M_disposeEv>
10003836:	e7f7      	b.n	10003828 <_Z41__static_initialization_and_destruction_0ii+0x4e0>
10003838:	a8a4      	add	r0, sp, #656	; 0x290
1000383a:	f01e f8dd 	bl	100219f8 <_ZNSt7__cxx1112basic_stringIcSt11char_traitsIcESaIcEE10_M_disposeEv>
1000383e:	a89d      	add	r0, sp, #628	; 0x274
10003840:	f01e f8da 	bl	100219f8 <_ZNSt7__cxx1112basic_stringIcSt11char_traitsIcESaIcEE10_M_disposeEv>
10003844:	aac1      	add	r2, sp, #772	; 0x304
10003846:	49c4      	ldr	r1, [pc, #784]	; (10003b58 <_Z41__static_initialization_and_destruction_0ii+0x810>)
10003848:	a8bb      	add	r0, sp, #748	; 0x2ec
1000384a:	f7fc ff23 	bl	10000694 <_ZNSt7__cxx1112basic_stringIcSt11char_traitsIcESaIcEEC1IS3_EEPKcRKS3_>
1000384e:	e001      	b.n	10003854 <_Z41__static_initialization_and_destruction_0ii+0x50c>
10003850:	2709      	movs	r7, #9
10003852:	e61d      	b.n	10003490 <_Z41__static_initialization_and_destruction_0ii+0x148>
10003854:	aac8      	add	r2, sp, #800	; 0x320
10003856:	49c1      	ldr	r1, [pc, #772]	; (10003b5c <_Z41__static_initialization_and_destruction_0ii+0x814>)
10003858:	a8c2      	add	r0, sp, #776	; 0x308
1000385a:	f7fc ff1b 	bl	10000694 <_ZNSt7__cxx1112basic_stringIcSt11char_traitsIcESaIcEEC1IS3_EEPKcRKS3_>
1000385e:	2302      	movs	r3, #2
10003860:	93c9      	str	r3, [sp, #804]	; 0x324
10003862:	3b03      	subs	r3, #3
10003864:	93ca      	str	r3, [sp, #808]	; 0x328
10003866:	93cb      	str	r3, [sp, #812]	; 0x32c
10003868:	4bbd      	ldr	r3, [pc, #756]	; (10003b60 <_Z41__static_initialization_and_destruction_0ii+0x818>)
1000386a:	446b      	add	r3, sp
1000386c:	2201      	movs	r2, #1
1000386e:	701a      	strb	r2, [r3, #0]
10003870:	320b      	adds	r2, #11
10003872:	2100      	movs	r1, #0
10003874:	a8cd      	add	r0, sp, #820	; 0x334
10003876:	f018 fbe5 	bl	1001c044 <__wrap_memset>
1000387a:	2300      	movs	r3, #0
1000387c:	93cd      	str	r3, [sp, #820]	; 0x334
1000387e:	93ce      	str	r3, [sp, #824]	; 0x338
10003880:	93cf      	str	r3, [sp, #828]	; 0x33c
10003882:	abcd      	add	r3, sp, #820	; 0x334
10003884:	9303      	str	r3, [sp, #12]
10003886:	4bb6      	ldr	r3, [pc, #728]	; (10003b60 <_Z41__static_initialization_and_destruction_0ii+0x818>)
10003888:	446b      	add	r3, sp
1000388a:	9302      	str	r3, [sp, #8]
1000388c:	abcb      	add	r3, sp, #812	; 0x32c
1000388e:	9301      	str	r3, [sp, #4]
10003890:	abca      	add	r3, sp, #808	; 0x328
10003892:	9300      	str	r3, [sp, #0]
10003894:	abc9      	add	r3, sp, #804	; 0x324
10003896:	aac2      	add	r2, sp, #776	; 0x308
10003898:	a9bb      	add	r1, sp, #748	; 0x2ec
1000389a:	48b2      	ldr	r0, [pc, #712]	; (10003b64 <_Z41__static_initialization_and_destruction_0ii+0x81c>)
1000389c:	f7fd f896 	bl	100009cc <_ZNSt11_Tuple_implILj0EJKNSt7__cxx1112basic_stringIcSt11char_traitsIcESaIcEEES6_N14wifi_interface12CMD_DATATYPEEiibSt6vectorIS5_SaIS5_EEEEC1ERS6_SD_RKS8_RKiSH_RKbRKSB_>
100038a0:	a8cd      	add	r0, sp, #820	; 0x334
100038a2:	f7fc fea0 	bl	100005e6 <_ZNSt6vectorINSt7__cxx1112basic_stringIcSt11char_traitsIcESaIcEEESaIS5_EED1Ev>
100038a6:	a8c2      	add	r0, sp, #776	; 0x308
100038a8:	f01e f8a6 	bl	100219f8 <_ZNSt7__cxx1112basic_stringIcSt11char_traitsIcESaIcEE10_M_disposeEv>
100038ac:	a8bb      	add	r0, sp, #748	; 0x2ec
100038ae:	f01e f8a3 	bl	100219f8 <_ZNSt7__cxx1112basic_stringIcSt11char_traitsIcESaIcEE10_M_disposeEv>
100038b2:	aad6      	add	r2, sp, #856	; 0x358
100038b4:	49ac      	ldr	r1, [pc, #688]	; (10003b68 <_Z41__static_initialization_and_destruction_0ii+0x820>)
100038b6:	a8d0      	add	r0, sp, #832	; 0x340
100038b8:	f7fc feec 	bl	10000694 <_ZNSt7__cxx1112basic_stringIcSt11char_traitsIcESaIcEEC1IS3_EEPKcRKS3_>
100038bc:	e001      	b.n	100038c2 <_Z41__static_initialization_and_destruction_0ii+0x57a>
100038be:	2708      	movs	r7, #8
100038c0:	e5e6      	b.n	10003490 <_Z41__static_initialization_and_destruction_0ii+0x148>
100038c2:	aadd      	add	r2, sp, #884	; 0x374
100038c4:	49a9      	ldr	r1, [pc, #676]	; (10003b6c <_Z41__static_initialization_and_destruction_0ii+0x824>)
100038c6:	a8d7      	add	r0, sp, #860	; 0x35c
100038c8:	f7fc fee4 	bl	10000694 <_ZNSt7__cxx1112basic_stringIcSt11char_traitsIcESaIcEEC1IS3_EEPKcRKS3_>
100038cc:	2301      	movs	r3, #1
100038ce:	93de      	str	r3, [sp, #888]	; 0x378
100038d0:	220a      	movs	r2, #10
100038d2:	92df      	str	r2, [sp, #892]	; 0x37c
100038d4:	325a      	adds	r2, #90	; 0x5a
100038d6:	92e0      	str	r2, [sp, #896]	; 0x380
100038d8:	4aa5      	ldr	r2, [pc, #660]	; (10003b70 <_Z41__static_initialization_and_destruction_0ii+0x828>)
100038da:	446a      	add	r2, sp
100038dc:	7013      	strb	r3, [r2, #0]
100038de:	220c      	movs	r2, #12
100038e0:	2100      	movs	r1, #0
100038e2:	a8e2      	add	r0, sp, #904	; 0x388
100038e4:	f018 fbae 	bl	1001c044 <__wrap_memset>
100038e8:	2300      	movs	r3, #0
100038ea:	93e2      	str	r3, [sp, #904]	; 0x388
100038ec:	93e3      	str	r3, [sp, #908]	; 0x38c
100038ee:	93e4      	str	r3, [sp, #912]	; 0x390
100038f0:	abe2      	add	r3, sp, #904	; 0x388
100038f2:	9303      	str	r3, [sp, #12]
100038f4:	4b9e      	ldr	r3, [pc, #632]	; (10003b70 <_Z41__static_initialization_and_destruction_0ii+0x828>)
100038f6:	446b      	add	r3, sp
100038f8:	9302      	str	r3, [sp, #8]
100038fa:	abe0      	add	r3, sp, #896	; 0x380
100038fc:	9301      	str	r3, [sp, #4]
100038fe:	abdf      	add	r3, sp, #892	; 0x37c
10003900:	9300      	str	r3, [sp, #0]
10003902:	abde      	add	r3, sp, #888	; 0x378
10003904:	aad7      	add	r2, sp, #860	; 0x35c
10003906:	a9d0      	add	r1, sp, #832	; 0x340
10003908:	489a      	ldr	r0, [pc, #616]	; (10003b74 <_Z41__static_initialization_and_destruction_0ii+0x82c>)
1000390a:	f7fd f85f 	bl	100009cc <_ZNSt11_Tuple_implILj0EJKNSt7__cxx1112basic_stringIcSt11char_traitsIcESaIcEEES6_N14wifi_interface12CMD_DATATYPEEiibSt6vectorIS5_SaIS5_EEEEC1ERS6_SD_RKS8_RKiSH_RKbRKSB_>
1000390e:	a8e2      	add	r0, sp, #904	; 0x388
10003910:	f7fc fe69 	bl	100005e6 <_ZNSt6vectorINSt7__cxx1112basic_stringIcSt11char_traitsIcESaIcEEESaIS5_EED1Ev>
10003914:	a8d7      	add	r0, sp, #860	; 0x35c
10003916:	f01e f86f 	bl	100219f8 <_ZNSt7__cxx1112basic_stringIcSt11char_traitsIcESaIcEE10_M_disposeEv>
1000391a:	a8d0      	add	r0, sp, #832	; 0x340
1000391c:	f01e f86c 	bl	100219f8 <_ZNSt7__cxx1112basic_stringIcSt11char_traitsIcESaIcEE10_M_disposeEv>
10003920:	aaeb      	add	r2, sp, #940	; 0x3ac
10003922:	4995      	ldr	r1, [pc, #596]	; (10003b78 <_Z41__static_initialization_and_destruction_0ii+0x830>)
10003924:	a8e5      	add	r0, sp, #916	; 0x394
10003926:	f7fc feb5 	bl	10000694 <_ZNSt7__cxx1112basic_stringIcSt11char_traitsIcESaIcEEC1IS3_EEPKcRKS3_>
1000392a:	e001      	b.n	10003930 <_Z41__static_initialization_and_destruction_0ii+0x5e8>
1000392c:	2707      	movs	r7, #7
1000392e:	e5af      	b.n	10003490 <_Z41__static_initialization_and_destruction_0ii+0x148>
10003930:	aaf2      	add	r2, sp, #968	; 0x3c8
10003932:	4992      	ldr	r1, [pc, #584]	; (10003b7c <_Z41__static_initialization_and_destruction_0ii+0x834>)
10003934:	a8ec      	add	r0, sp, #944	; 0x3b0
10003936:	f7fc fead 	bl	10000694 <_ZNSt7__cxx1112basic_stringIcSt11char_traitsIcESaIcEEC1IS3_EEPKcRKS3_>
1000393a:	2303      	movs	r3, #3
1000393c:	93f3      	str	r3, [sp, #972]	; 0x3cc
1000393e:	3b04      	subs	r3, #4
10003940:	93f4      	str	r3, [sp, #976]	; 0x3d0
10003942:	93f5      	str	r3, [sp, #980]	; 0x3d4
10003944:	2600      	movs	r6, #0
10003946:	4b8e      	ldr	r3, [pc, #568]	; (10003b80 <_Z41__static_initialization_and_destruction_0ii+0x838>)
10003948:	446b      	add	r3, sp
1000394a:	701e      	strb	r6, [r3, #0]
1000394c:	220c      	movs	r2, #12
1000394e:	0031      	movs	r1, r6
10003950:	a8f7      	add	r0, sp, #988	; 0x3dc
10003952:	f018 fb77 	bl	1001c044 <__wrap_memset>
10003956:	96f7      	str	r6, [sp, #988]	; 0x3dc
10003958:	96f8      	str	r6, [sp, #992]	; 0x3e0
1000395a:	96f9      	str	r6, [sp, #996]	; 0x3e4
1000395c:	abf7      	add	r3, sp, #988	; 0x3dc
1000395e:	9303      	str	r3, [sp, #12]
10003960:	4b87      	ldr	r3, [pc, #540]	; (10003b80 <_Z41__static_initialization_and_destruction_0ii+0x838>)
10003962:	446b      	add	r3, sp
10003964:	9302      	str	r3, [sp, #8]
10003966:	abf5      	add	r3, sp, #980	; 0x3d4
10003968:	9301      	str	r3, [sp, #4]
1000396a:	abf4      	add	r3, sp, #976	; 0x3d0
1000396c:	9300      	str	r3, [sp, #0]
1000396e:	abf3      	add	r3, sp, #972	; 0x3cc
10003970:	aaec      	add	r2, sp, #944	; 0x3b0
10003972:	a9e5      	add	r1, sp, #916	; 0x394
10003974:	4883      	ldr	r0, [pc, #524]	; (10003b84 <_Z41__static_initialization_and_destruction_0ii+0x83c>)
10003976:	f7fd f829 	bl	100009cc <_ZNSt11_Tuple_implILj0EJKNSt7__cxx1112basic_stringIcSt11char_traitsIcESaIcEEES6_N14wifi_interface12CMD_DATATYPEEiibSt6vectorIS5_SaIS5_EEEEC1ERS6_SD_RKS8_RKiSH_RKbRKSB_>
1000397a:	a8f7      	add	r0, sp, #988	; 0x3dc
1000397c:	f7fc fe33 	bl	100005e6 <_ZNSt6vectorINSt7__cxx1112basic_stringIcSt11char_traitsIcESaIcEEESaIS5_EED1Ev>
10003980:	a8ec      	add	r0, sp, #944	; 0x3b0
10003982:	f01e f839 	bl	100219f8 <_ZNSt7__cxx1112basic_stringIcSt11char_traitsIcESaIcEE10_M_disposeEv>
10003986:	a8e5      	add	r0, sp, #916	; 0x394
10003988:	f01e f836 	bl	100219f8 <_ZNSt7__cxx1112basic_stringIcSt11char_traitsIcESaIcEE10_M_disposeEv>
1000398c:	aaff      	add	r2, sp, #1020	; 0x3fc
1000398e:	3204      	adds	r2, #4
10003990:	497d      	ldr	r1, [pc, #500]	; (10003b88 <_Z41__static_initialization_and_destruction_0ii+0x840>)
10003992:	a8fa      	add	r0, sp, #1000	; 0x3e8
10003994:	f7fc fe7e 	bl	10000694 <_ZNSt7__cxx1112basic_stringIcSt11char_traitsIcESaIcEEC1IS3_EEPKcRKS3_>
10003998:	e001      	b.n	1000399e <_Z41__static_initialization_and_destruction_0ii+0x656>
1000399a:	2706      	movs	r7, #6
1000399c:	e578      	b.n	10003490 <_Z41__static_initialization_and_destruction_0ii+0x148>
1000399e:	aaff      	add	r2, sp, #1020	; 0x3fc
100039a0:	3220      	adds	r2, #32
100039a2:	497a      	ldr	r1, [pc, #488]	; (10003b8c <_Z41__static_initialization_and_destruction_0ii+0x844>)
100039a4:	a8ff      	add	r0, sp, #1020	; 0x3fc
100039a6:	3008      	adds	r0, #8
100039a8:	f7fc fe74 	bl	10000694 <_ZNSt7__cxx1112basic_stringIcSt11char_traitsIcESaIcEEC1IS3_EEPKcRKS3_>
100039ac:	2302      	movs	r3, #2
100039ae:	aaff      	add	r2, sp, #1020	; 0x3fc
100039b0:	3224      	adds	r2, #36	; 0x24
100039b2:	6013      	str	r3, [r2, #0]
100039b4:	3b03      	subs	r3, #3
100039b6:	aaff      	add	r2, sp, #1020	; 0x3fc
100039b8:	3228      	adds	r2, #40	; 0x28
100039ba:	6013      	str	r3, [r2, #0]
100039bc:	aaff      	add	r2, sp, #1020	; 0x3fc
100039be:	322c      	adds	r2, #44	; 0x2c
100039c0:	6013      	str	r3, [r2, #0]
100039c2:	abff      	add	r3, sp, #1020	; 0x3fc
100039c4:	3333      	adds	r3, #51	; 0x33
100039c6:	2201      	movs	r2, #1
100039c8:	701a      	strb	r2, [r3, #0]
100039ca:	320b      	adds	r2, #11
100039cc:	2100      	movs	r1, #0
100039ce:	a8ff      	add	r0, sp, #1020	; 0x3fc
100039d0:	3034      	adds	r0, #52	; 0x34
100039d2:	f018 fb37 	bl	1001c044 <__wrap_memset>
100039d6:	2300      	movs	r3, #0
100039d8:	aaff      	add	r2, sp, #1020	; 0x3fc
100039da:	3234      	adds	r2, #52	; 0x34
100039dc:	6013      	str	r3, [r2, #0]
100039de:	aaff      	add	r2, sp, #1020	; 0x3fc
100039e0:	3238      	adds	r2, #56	; 0x38
100039e2:	6013      	str	r3, [r2, #0]
100039e4:	aaff      	add	r2, sp, #1020	; 0x3fc
100039e6:	323c      	adds	r2, #60	; 0x3c
100039e8:	6013      	str	r3, [r2, #0]
100039ea:	abff      	add	r3, sp, #1020	; 0x3fc
100039ec:	3334      	adds	r3, #52	; 0x34
100039ee:	9303      	str	r3, [sp, #12]
100039f0:	abff      	add	r3, sp, #1020	; 0x3fc
100039f2:	3333      	adds	r3, #51	; 0x33
100039f4:	9302      	str	r3, [sp, #8]
100039f6:	abff      	add	r3, sp, #1020	; 0x3fc
100039f8:	332c      	adds	r3, #44	; 0x2c
100039fa:	9301      	str	r3, [sp, #4]
100039fc:	abff      	add	r3, sp, #1020	; 0x3fc
100039fe:	3328      	adds	r3, #40	; 0x28
10003a00:	9300      	str	r3, [sp, #0]
10003a02:	abff      	add	r3, sp, #1020	; 0x3fc
10003a04:	3324      	adds	r3, #36	; 0x24
10003a06:	aaff      	add	r2, sp, #1020	; 0x3fc
10003a08:	3208      	adds	r2, #8
10003a0a:	a9fa      	add	r1, sp, #1000	; 0x3e8
10003a0c:	4860      	ldr	r0, [pc, #384]	; (10003b90 <_Z41__static_initialization_and_destruction_0ii+0x848>)
10003a0e:	f7fc ffdd 	bl	100009cc <_ZNSt11_Tuple_implILj0EJKNSt7__cxx1112basic_stringIcSt11char_traitsIcESaIcEEES6_N14wifi_interface12CMD_DATATYPEEiibSt6vectorIS5_SaIS5_EEEEC1ERS6_SD_RKS8_RKiSH_RKbRKSB_>
10003a12:	a8ff      	add	r0, sp, #1020	; 0x3fc
10003a14:	3034      	adds	r0, #52	; 0x34
10003a16:	f7fc fde6 	bl	100005e6 <_ZNSt6vectorINSt7__cxx1112basic_stringIcSt11char_traitsIcESaIcEEESaIS5_EED1Ev>
10003a1a:	a8ff      	add	r0, sp, #1020	; 0x3fc
10003a1c:	3008      	adds	r0, #8
10003a1e:	f01d ffeb 	bl	100219f8 <_ZNSt7__cxx1112basic_stringIcSt11char_traitsIcESaIcEE10_M_disposeEv>
10003a22:	a8fa      	add	r0, sp, #1000	; 0x3e8
10003a24:	f01d ffe8 	bl	100219f8 <_ZNSt7__cxx1112basic_stringIcSt11char_traitsIcESaIcEE10_M_disposeEv>
10003a28:	aaff      	add	r2, sp, #1020	; 0x3fc
10003a2a:	3258      	adds	r2, #88	; 0x58
10003a2c:	4959      	ldr	r1, [pc, #356]	; (10003b94 <_Z41__static_initialization_and_destruction_0ii+0x84c>)
10003a2e:	a8ff      	add	r0, sp, #1020	; 0x3fc
10003a30:	3040      	adds	r0, #64	; 0x40
10003a32:	f7fc fe2f 	bl	10000694 <_ZNSt7__cxx1112basic_stringIcSt11char_traitsIcESaIcEEC1IS3_EEPKcRKS3_>
10003a36:	e001      	b.n	10003a3c <_Z41__static_initialization_and_destruction_0ii+0x6f4>
10003a38:	2705      	movs	r7, #5
10003a3a:	e529      	b.n	10003490 <_Z41__static_initialization_and_destruction_0ii+0x148>
10003a3c:	aaff      	add	r2, sp, #1020	; 0x3fc
10003a3e:	3274      	adds	r2, #116	; 0x74
10003a40:	4955      	ldr	r1, [pc, #340]	; (10003b98 <_Z41__static_initialization_and_destruction_0ii+0x850>)
10003a42:	a8ff      	add	r0, sp, #1020	; 0x3fc
10003a44:	305c      	adds	r0, #92	; 0x5c
10003a46:	f7fc fe25 	bl	10000694 <_ZNSt7__cxx1112basic_stringIcSt11char_traitsIcESaIcEEC1IS3_EEPKcRKS3_>
10003a4a:	2304      	movs	r3, #4
10003a4c:	aaff      	add	r2, sp, #1020	; 0x3fc
10003a4e:	3278      	adds	r2, #120	; 0x78
10003a50:	6013      	str	r3, [r2, #0]
10003a52:	2300      	movs	r3, #0
10003a54:	aaff      	add	r2, sp, #1020	; 0x3fc
10003a56:	327c      	adds	r2, #124	; 0x7c
10003a58:	6013      	str	r3, [r2, #0]
10003a5a:	3303      	adds	r3, #3
10003a5c:	aaff      	add	r2, sp, #1020	; 0x3fc
10003a5e:	3280      	adds	r2, #128	; 0x80
10003a60:	6013      	str	r3, [r2, #0]
10003a62:	abff      	add	r3, sp, #1020	; 0x3fc
10003a64:	3387      	adds	r3, #135	; 0x87
10003a66:	2201      	movs	r2, #1
10003a68:	701a      	strb	r2, [r3, #0]
10003a6a:	aaff      	add	r2, sp, #1020	; 0x3fc
10003a6c:	329c      	adds	r2, #156	; 0x9c
10003a6e:	494b      	ldr	r1, [pc, #300]	; (10003b9c <_Z41__static_initialization_and_destruction_0ii+0x854>)
10003a70:	a80a      	add	r0, sp, #40	; 0x28
10003a72:	f7fc fe0f 	bl	10000694 <_ZNSt7__cxx1112basic_stringIcSt11char_traitsIcESaIcEEC1IS3_EEPKcRKS3_>
10003a76:	aaff      	add	r2, sp, #1020	; 0x3fc
10003a78:	32a0      	adds	r2, #160	; 0xa0
10003a7a:	4949      	ldr	r1, [pc, #292]	; (10003ba0 <_Z41__static_initialization_and_destruction_0ii+0x858>)
10003a7c:	a810      	add	r0, sp, #64	; 0x40
10003a7e:	f7fc fe09 	bl	10000694 <_ZNSt7__cxx1112basic_stringIcSt11char_traitsIcESaIcEEC1IS3_EEPKcRKS3_>
10003a82:	aaff      	add	r2, sp, #1020	; 0x3fc
10003a84:	32a4      	adds	r2, #164	; 0xa4
10003a86:	4947      	ldr	r1, [pc, #284]	; (10003ba4 <_Z41__static_initialization_and_destruction_0ii+0x85c>)
10003a88:	a816      	add	r0, sp, #88	; 0x58
10003a8a:	f7fc fe03 	bl	10000694 <_ZNSt7__cxx1112basic_stringIcSt11char_traitsIcESaIcEEC1IS3_EEPKcRKS3_>
10003a8e:	aaff      	add	r2, sp, #1020	; 0x3fc
10003a90:	32a8      	adds	r2, #168	; 0xa8
10003a92:	4945      	ldr	r1, [pc, #276]	; (10003ba8 <_Z41__static_initialization_and_destruction_0ii+0x860>)
10003a94:	a81c      	add	r0, sp, #112	; 0x70
10003a96:	f7fc fdfd 	bl	10000694 <_ZNSt7__cxx1112basic_stringIcSt11char_traitsIcESaIcEEC1IS3_EEPKcRKS3_>
10003a9a:	a90a      	add	r1, sp, #40	; 0x28
10003a9c:	abff      	add	r3, sp, #1020	; 0x3fc
10003a9e:	3394      	adds	r3, #148	; 0x94
10003aa0:	6019      	str	r1, [r3, #0]
10003aa2:	2204      	movs	r2, #4
10003aa4:	abff      	add	r3, sp, #1020	; 0x3fc
10003aa6:	3398      	adds	r3, #152	; 0x98
10003aa8:	601a      	str	r2, [r3, #0]
10003aaa:	abff      	add	r3, sp, #1020	; 0x3fc
10003aac:	33ac      	adds	r3, #172	; 0xac
10003aae:	a8ff      	add	r0, sp, #1020	; 0x3fc
10003ab0:	3088      	adds	r0, #136	; 0x88
10003ab2:	f7fc ff21 	bl	100008f8 <_ZNSt6vectorINSt7__cxx1112basic_stringIcSt11char_traitsIcESaIcEEESaIS5_EEC1ESt16initializer_listIS5_ERKS6_>
10003ab6:	e009      	b.n	10003acc <_Z41__static_initialization_and_destruction_0ii+0x784>
10003ab8:	ac22      	add	r4, sp, #136	; 0x88
10003aba:	ab0a      	add	r3, sp, #40	; 0x28
10003abc:	429c      	cmp	r4, r3
10003abe:	d100      	bne.n	10003ac2 <_Z41__static_initialization_and_destruction_0ii+0x77a>
10003ac0:	e3e7      	b.n	10004292 <_Z41__static_initialization_and_destruction_0ii+0xf4a>
10003ac2:	3c18      	subs	r4, #24
10003ac4:	0020      	movs	r0, r4
10003ac6:	f01d ff97 	bl	100219f8 <_ZNSt7__cxx1112basic_stringIcSt11char_traitsIcESaIcEE10_M_disposeEv>
10003aca:	e7f6      	b.n	10003aba <_Z41__static_initialization_and_destruction_0ii+0x772>
10003acc:	abff      	add	r3, sp, #1020	; 0x3fc
10003ace:	3388      	adds	r3, #136	; 0x88
10003ad0:	9303      	str	r3, [sp, #12]
10003ad2:	abff      	add	r3, sp, #1020	; 0x3fc
10003ad4:	3387      	adds	r3, #135	; 0x87
10003ad6:	9302      	str	r3, [sp, #8]
10003ad8:	abff      	add	r3, sp, #1020	; 0x3fc
10003ada:	3380      	adds	r3, #128	; 0x80
10003adc:	9301      	str	r3, [sp, #4]
10003ade:	abff      	add	r3, sp, #1020	; 0x3fc
10003ae0:	337c      	adds	r3, #124	; 0x7c
10003ae2:	9300      	str	r3, [sp, #0]
10003ae4:	abff      	add	r3, sp, #1020	; 0x3fc
10003ae6:	3378      	adds	r3, #120	; 0x78
10003ae8:	aaff      	add	r2, sp, #1020	; 0x3fc
10003aea:	325c      	adds	r2, #92	; 0x5c
10003aec:	a9ff      	add	r1, sp, #1020	; 0x3fc
10003aee:	3140      	adds	r1, #64	; 0x40
10003af0:	482e      	ldr	r0, [pc, #184]	; (10003bac <_Z41__static_initialization_and_destruction_0ii+0x864>)
10003af2:	f7fc ff6b 	bl	100009cc <_ZNSt11_Tuple_implILj0EJKNSt7__cxx1112basic_stringIcSt11char_traitsIcESaIcEEES6_N14wifi_interface12CMD_DATATYPEEiibSt6vectorIS5_SaIS5_EEEEC1ERS6_SD_RKS8_RKiSH_RKbRKSB_>
10003af6:	a8ff      	add	r0, sp, #1020	; 0x3fc
10003af8:	3088      	adds	r0, #136	; 0x88
10003afa:	f7fc fd74 	bl	100005e6 <_ZNSt6vectorINSt7__cxx1112basic_stringIcSt11char_traitsIcESaIcEEESaIS5_EED1Ev>
10003afe:	ae22      	add	r6, sp, #136	; 0x88
10003b00:	ab0a      	add	r3, sp, #40	; 0x28
10003b02:	429e      	cmp	r6, r3
10003b04:	d004      	beq.n	10003b10 <_Z41__static_initialization_and_destruction_0ii+0x7c8>
10003b06:	3e18      	subs	r6, #24
10003b08:	0030      	movs	r0, r6
10003b0a:	f01d ff75 	bl	100219f8 <_ZNSt7__cxx1112basic_stringIcSt11char_traitsIcESaIcEE10_M_disposeEv>
10003b0e:	e7f7      	b.n	10003b00 <_Z41__static_initialization_and_destruction_0ii+0x7b8>
10003b10:	a8ff      	add	r0, sp, #1020	; 0x3fc
10003b12:	305c      	adds	r0, #92	; 0x5c
10003b14:	f01d ff70 	bl	100219f8 <_ZNSt7__cxx1112basic_stringIcSt11char_traitsIcESaIcEE10_M_disposeEv>
10003b18:	a8ff      	add	r0, sp, #1020	; 0x3fc
10003b1a:	3040      	adds	r0, #64	; 0x40
10003b1c:	f01d ff6c 	bl	100219f8 <_ZNSt7__cxx1112basic_stringIcSt11char_traitsIcESaIcEE10_M_disposeEv>
10003b20:	aaff      	add	r2, sp, #1020	; 0x3fc
10003b22:	32c8      	adds	r2, #200	; 0xc8
10003b24:	4922      	ldr	r1, [pc, #136]	; (10003bb0 <_Z41__static_initialization_and_destruction_0ii+0x868>)
10003b26:	a8ff      	add	r0, sp, #1020	; 0x3fc
10003b28:	30b0      	adds	r0, #176	; 0xb0
10003b2a:	f7fc fdb3 	bl	10000694 <_ZNSt7__cxx1112basic_stringIcSt11char_traitsIcESaIcEEC1IS3_EEPKcRKS3_>
10003b2e:	e041      	b.n	10003bb4 <_Z41__static_initialization_and_destruction_0ii+0x86c>
10003b30:	2704      	movs	r7, #4
10003b32:	e4ad      	b.n	10003490 <_Z41__static_initialization_and_destruction_0ii+0x148>
10003b34:	1002aeec 	.word	0x1002aeec
10003b38:	000002bb 	.word	0x000002bb
10003b3c:	1002ae8c 	.word	0x1002ae8c
10003b40:	1002ae94 	.word	0x1002ae94
10003b44:	1002ae9c 	.word	0x1002ae9c
10003b48:	1002aea4 	.word	0x1002aea4
10003b4c:	1002aeac 	.word	0x1002aeac
10003b50:	1002aeb4 	.word	0x1002aeb4
10003b54:	20002220 	.word	0x20002220
10003b58:	1002aefc 	.word	0x1002aefc
10003b5c:	1002af00 	.word	0x1002af00
10003b60:	00000333 	.word	0x00000333
10003b64:	2000226c 	.word	0x2000226c
10003b68:	1002af10 	.word	0x1002af10
10003b6c:	1002af14 	.word	0x1002af14
10003b70:	00000387 	.word	0x00000387
10003b74:	200022b8 	.word	0x200022b8
10003b78:	1002af28 	.word	0x1002af28
10003b7c:	1002c1c4 	.word	0x1002c1c4
10003b80:	000003db 	.word	0x000003db
10003b84:	20002304 	.word	0x20002304
10003b88:	1002af2c 	.word	0x1002af2c
10003b8c:	1002af30 	.word	0x1002af30
10003b90:	20002350 	.word	0x20002350
10003b94:	1002af40 	.word	0x1002af40
10003b98:	1002af44 	.word	0x1002af44
10003b9c:	1002af50 	.word	0x1002af50
10003ba0:	1002af64 	.word	0x1002af64
10003ba4:	1002af74 	.word	0x1002af74
10003ba8:	1002af80 	.word	0x1002af80
10003bac:	2000239c 	.word	0x2000239c
10003bb0:	1002af8c 	.word	0x1002af8c
10003bb4:	aaff      	add	r2, sp, #1020	; 0x3fc
10003bb6:	32e4      	adds	r2, #228	; 0xe4
10003bb8:	49f6      	ldr	r1, [pc, #984]	; (10003f94 <_Z41__static_initialization_and_destruction_0ii+0xc4c>)
10003bba:	a8ff      	add	r0, sp, #1020	; 0x3fc
10003bbc:	30cc      	adds	r0, #204	; 0xcc
10003bbe:	f7fc fd69 	bl	10000694 <_ZNSt7__cxx1112basic_stringIcSt11char_traitsIcESaIcEEC1IS3_EEPKcRKS3_>
10003bc2:	2302      	movs	r3, #2
10003bc4:	aaff      	add	r2, sp, #1020	; 0x3fc
10003bc6:	32e8      	adds	r2, #232	; 0xe8
10003bc8:	6013      	str	r3, [r2, #0]
10003bca:	3b03      	subs	r3, #3
10003bcc:	aaff      	add	r2, sp, #1020	; 0x3fc
10003bce:	32ec      	adds	r2, #236	; 0xec
10003bd0:	6013      	str	r3, [r2, #0]
10003bd2:	aaff      	add	r2, sp, #1020	; 0x3fc
10003bd4:	32f0      	adds	r2, #240	; 0xf0
10003bd6:	6013      	str	r3, [r2, #0]
10003bd8:	abff      	add	r3, sp, #1020	; 0x3fc
10003bda:	33f7      	adds	r3, #247	; 0xf7
10003bdc:	2201      	movs	r2, #1
10003bde:	701a      	strb	r2, [r3, #0]
10003be0:	320b      	adds	r2, #11
10003be2:	2100      	movs	r1, #0
10003be4:	a8ff      	add	r0, sp, #1020	; 0x3fc
10003be6:	30f8      	adds	r0, #248	; 0xf8
10003be8:	f018 fa2c 	bl	1001c044 <__wrap_memset>
10003bec:	2300      	movs	r3, #0
10003bee:	aaff      	add	r2, sp, #1020	; 0x3fc
10003bf0:	32f8      	adds	r2, #248	; 0xf8
10003bf2:	6013      	str	r3, [r2, #0]
10003bf4:	aaff      	add	r2, sp, #1020	; 0x3fc
10003bf6:	32fc      	adds	r2, #252	; 0xfc
10003bf8:	6013      	str	r3, [r2, #0]
10003bfa:	4ae7      	ldr	r2, [pc, #924]	; (10003f98 <_Z41__static_initialization_and_destruction_0ii+0xc50>)
10003bfc:	446a      	add	r2, sp
10003bfe:	6013      	str	r3, [r2, #0]
10003c00:	abff      	add	r3, sp, #1020	; 0x3fc
10003c02:	33f8      	adds	r3, #248	; 0xf8
10003c04:	9303      	str	r3, [sp, #12]
10003c06:	abff      	add	r3, sp, #1020	; 0x3fc
10003c08:	33f7      	adds	r3, #247	; 0xf7
10003c0a:	9302      	str	r3, [sp, #8]
10003c0c:	abff      	add	r3, sp, #1020	; 0x3fc
10003c0e:	33f0      	adds	r3, #240	; 0xf0
10003c10:	9301      	str	r3, [sp, #4]
10003c12:	abff      	add	r3, sp, #1020	; 0x3fc
10003c14:	33ec      	adds	r3, #236	; 0xec
10003c16:	9300      	str	r3, [sp, #0]
10003c18:	abff      	add	r3, sp, #1020	; 0x3fc
10003c1a:	33e8      	adds	r3, #232	; 0xe8
10003c1c:	aaff      	add	r2, sp, #1020	; 0x3fc
10003c1e:	32cc      	adds	r2, #204	; 0xcc
10003c20:	a9ff      	add	r1, sp, #1020	; 0x3fc
10003c22:	31b0      	adds	r1, #176	; 0xb0
10003c24:	48dd      	ldr	r0, [pc, #884]	; (10003f9c <_Z41__static_initialization_and_destruction_0ii+0xc54>)
10003c26:	f7fc fed1 	bl	100009cc <_ZNSt11_Tuple_implILj0EJKNSt7__cxx1112basic_stringIcSt11char_traitsIcESaIcEEES6_N14wifi_interface12CMD_DATATYPEEiibSt6vectorIS5_SaIS5_EEEEC1ERS6_SD_RKS8_RKiSH_RKbRKSB_>
10003c2a:	a8ff      	add	r0, sp, #1020	; 0x3fc
10003c2c:	30f8      	adds	r0, #248	; 0xf8
10003c2e:	f7fc fcda 	bl	100005e6 <_ZNSt6vectorINSt7__cxx1112basic_stringIcSt11char_traitsIcESaIcEEESaIS5_EED1Ev>
10003c32:	a8ff      	add	r0, sp, #1020	; 0x3fc
10003c34:	30cc      	adds	r0, #204	; 0xcc
10003c36:	f01d fedf 	bl	100219f8 <_ZNSt7__cxx1112basic_stringIcSt11char_traitsIcESaIcEE10_M_disposeEv>
10003c3a:	a8ff      	add	r0, sp, #1020	; 0x3fc
10003c3c:	30b0      	adds	r0, #176	; 0xb0
10003c3e:	f01d fedb 	bl	100219f8 <_ZNSt7__cxx1112basic_stringIcSt11char_traitsIcESaIcEE10_M_disposeEv>
10003c42:	22a3      	movs	r2, #163	; 0xa3
10003c44:	00d2      	lsls	r2, r2, #3
10003c46:	446a      	add	r2, sp
10003c48:	49d5      	ldr	r1, [pc, #852]	; (10003fa0 <_Z41__static_initialization_and_destruction_0ii+0xc58>)
10003c4a:	20a0      	movs	r0, #160	; 0xa0
10003c4c:	00c0      	lsls	r0, r0, #3
10003c4e:	4468      	add	r0, sp
10003c50:	f7fc fd20 	bl	10000694 <_ZNSt7__cxx1112basic_stringIcSt11char_traitsIcESaIcEEC1IS3_EEPKcRKS3_>
10003c54:	e001      	b.n	10003c5a <_Z41__static_initialization_and_destruction_0ii+0x912>
10003c56:	2703      	movs	r7, #3
10003c58:	e41a      	b.n	10003490 <_Z41__static_initialization_and_destruction_0ii+0x148>
10003c5a:	4ad2      	ldr	r2, [pc, #840]	; (10003fa4 <_Z41__static_initialization_and_destruction_0ii+0xc5c>)
10003c5c:	446a      	add	r2, sp
10003c5e:	49d2      	ldr	r1, [pc, #840]	; (10003fa8 <_Z41__static_initialization_and_destruction_0ii+0xc60>)
10003c60:	48d2      	ldr	r0, [pc, #840]	; (10003fac <_Z41__static_initialization_and_destruction_0ii+0xc64>)
10003c62:	4468      	add	r0, sp
10003c64:	f7fc fd16 	bl	10000694 <_ZNSt7__cxx1112basic_stringIcSt11char_traitsIcESaIcEEC1IS3_EEPKcRKS3_>
10003c68:	2301      	movs	r3, #1
10003c6a:	22a7      	movs	r2, #167	; 0xa7
10003c6c:	00d2      	lsls	r2, r2, #3
10003c6e:	446a      	add	r2, sp
10003c70:	6013      	str	r3, [r2, #0]
10003c72:	2600      	movs	r6, #0
10003c74:	4ace      	ldr	r2, [pc, #824]	; (10003fb0 <_Z41__static_initialization_and_destruction_0ii+0xc68>)
10003c76:	446a      	add	r2, sp
10003c78:	6016      	str	r6, [r2, #0]
10003c7a:	2264      	movs	r2, #100	; 0x64
10003c7c:	21a8      	movs	r1, #168	; 0xa8
10003c7e:	00c9      	lsls	r1, r1, #3
10003c80:	4469      	add	r1, sp
10003c82:	600a      	str	r2, [r1, #0]
10003c84:	4acb      	ldr	r2, [pc, #812]	; (10003fb4 <_Z41__static_initialization_and_destruction_0ii+0xc6c>)
10003c86:	446a      	add	r2, sp
10003c88:	7013      	strb	r3, [r2, #0]
10003c8a:	220c      	movs	r2, #12
10003c8c:	0031      	movs	r1, r6
10003c8e:	23a9      	movs	r3, #169	; 0xa9
10003c90:	00db      	lsls	r3, r3, #3
10003c92:	446b      	add	r3, sp
10003c94:	0018      	movs	r0, r3
10003c96:	f018 f9d5 	bl	1001c044 <__wrap_memset>
10003c9a:	23a9      	movs	r3, #169	; 0xa9
10003c9c:	00db      	lsls	r3, r3, #3
10003c9e:	446b      	add	r3, sp
10003ca0:	601e      	str	r6, [r3, #0]
10003ca2:	4bc5      	ldr	r3, [pc, #788]	; (10003fb8 <_Z41__static_initialization_and_destruction_0ii+0xc70>)
10003ca4:	446b      	add	r3, sp
10003ca6:	601e      	str	r6, [r3, #0]
10003ca8:	23aa      	movs	r3, #170	; 0xaa
10003caa:	00db      	lsls	r3, r3, #3
10003cac:	446b      	add	r3, sp
10003cae:	601e      	str	r6, [r3, #0]
10003cb0:	23a9      	movs	r3, #169	; 0xa9
10003cb2:	00db      	lsls	r3, r3, #3
10003cb4:	446b      	add	r3, sp
10003cb6:	9303      	str	r3, [sp, #12]
10003cb8:	4bbe      	ldr	r3, [pc, #760]	; (10003fb4 <_Z41__static_initialization_and_destruction_0ii+0xc6c>)
10003cba:	446b      	add	r3, sp
10003cbc:	9302      	str	r3, [sp, #8]
10003cbe:	23a8      	movs	r3, #168	; 0xa8
10003cc0:	00db      	lsls	r3, r3, #3
10003cc2:	446b      	add	r3, sp
10003cc4:	9301      	str	r3, [sp, #4]
10003cc6:	4bba      	ldr	r3, [pc, #744]	; (10003fb0 <_Z41__static_initialization_and_destruction_0ii+0xc68>)
10003cc8:	446b      	add	r3, sp
10003cca:	9300      	str	r3, [sp, #0]
10003ccc:	23a7      	movs	r3, #167	; 0xa7
10003cce:	00db      	lsls	r3, r3, #3
10003cd0:	446b      	add	r3, sp
10003cd2:	4ab6      	ldr	r2, [pc, #728]	; (10003fac <_Z41__static_initialization_and_destruction_0ii+0xc64>)
10003cd4:	446a      	add	r2, sp
10003cd6:	21a0      	movs	r1, #160	; 0xa0
10003cd8:	00c9      	lsls	r1, r1, #3
10003cda:	4469      	add	r1, sp
10003cdc:	48b7      	ldr	r0, [pc, #732]	; (10003fbc <_Z41__static_initialization_and_destruction_0ii+0xc74>)
10003cde:	f7fc fe75 	bl	100009cc <_ZNSt11_Tuple_implILj0EJKNSt7__cxx1112basic_stringIcSt11char_traitsIcESaIcEEES6_N14wifi_interface12CMD_DATATYPEEiibSt6vectorIS5_SaIS5_EEEEC1ERS6_SD_RKS8_RKiSH_RKbRKSB_>
10003ce2:	20a9      	movs	r0, #169	; 0xa9
10003ce4:	00c0      	lsls	r0, r0, #3
10003ce6:	4468      	add	r0, sp
10003ce8:	f7fc fc7d 	bl	100005e6 <_ZNSt6vectorINSt7__cxx1112basic_stringIcSt11char_traitsIcESaIcEEESaIS5_EED1Ev>
10003cec:	48af      	ldr	r0, [pc, #700]	; (10003fac <_Z41__static_initialization_and_destruction_0ii+0xc64>)
10003cee:	4468      	add	r0, sp
10003cf0:	f01d fe82 	bl	100219f8 <_ZNSt7__cxx1112basic_stringIcSt11char_traitsIcESaIcEE10_M_disposeEv>
10003cf4:	20a0      	movs	r0, #160	; 0xa0
10003cf6:	00c0      	lsls	r0, r0, #3
10003cf8:	4468      	add	r0, sp
10003cfa:	f01d fe7d 	bl	100219f8 <_ZNSt7__cxx1112basic_stringIcSt11char_traitsIcESaIcEE10_M_disposeEv>
10003cfe:	4ab0      	ldr	r2, [pc, #704]	; (10003fc0 <_Z41__static_initialization_and_destruction_0ii+0xc78>)
10003d00:	446a      	add	r2, sp
10003d02:	49b0      	ldr	r1, [pc, #704]	; (10003fc4 <_Z41__static_initialization_and_destruction_0ii+0xc7c>)
10003d04:	48b0      	ldr	r0, [pc, #704]	; (10003fc8 <_Z41__static_initialization_and_destruction_0ii+0xc80>)
10003d06:	4468      	add	r0, sp
10003d08:	f7fc fcc4 	bl	10000694 <_ZNSt7__cxx1112basic_stringIcSt11char_traitsIcESaIcEEC1IS3_EEPKcRKS3_>
10003d0c:	e002      	b.n	10003d14 <_Z41__static_initialization_and_destruction_0ii+0x9cc>
10003d0e:	2702      	movs	r7, #2
10003d10:	f7ff fbbe 	bl	10003490 <_Z41__static_initialization_and_destruction_0ii+0x148>
10003d14:	22b1      	movs	r2, #177	; 0xb1
10003d16:	00d2      	lsls	r2, r2, #3
10003d18:	446a      	add	r2, sp
10003d1a:	49ac      	ldr	r1, [pc, #688]	; (10003fcc <_Z41__static_initialization_and_destruction_0ii+0xc84>)
10003d1c:	20ae      	movs	r0, #174	; 0xae
10003d1e:	00c0      	lsls	r0, r0, #3
10003d20:	4468      	add	r0, sp
10003d22:	f7fc fcb7 	bl	10000694 <_ZNSt7__cxx1112basic_stringIcSt11char_traitsIcESaIcEEC1IS3_EEPKcRKS3_>
10003d26:	2302      	movs	r3, #2
10003d28:	4aa9      	ldr	r2, [pc, #676]	; (10003fd0 <_Z41__static_initialization_and_destruction_0ii+0xc88>)
10003d2a:	446a      	add	r2, sp
10003d2c:	6013      	str	r3, [r2, #0]
10003d2e:	3b03      	subs	r3, #3
10003d30:	22b2      	movs	r2, #178	; 0xb2
10003d32:	00d2      	lsls	r2, r2, #3
10003d34:	446a      	add	r2, sp
10003d36:	6013      	str	r3, [r2, #0]
10003d38:	4aa6      	ldr	r2, [pc, #664]	; (10003fd4 <_Z41__static_initialization_and_destruction_0ii+0xc8c>)
10003d3a:	446a      	add	r2, sp
10003d3c:	6013      	str	r3, [r2, #0]
10003d3e:	4ba6      	ldr	r3, [pc, #664]	; (10003fd8 <_Z41__static_initialization_and_destruction_0ii+0xc90>)
10003d40:	446b      	add	r3, sp
10003d42:	2201      	movs	r2, #1
10003d44:	701a      	strb	r2, [r3, #0]
10003d46:	320b      	adds	r2, #11
10003d48:	2100      	movs	r1, #0
10003d4a:	4ba4      	ldr	r3, [pc, #656]	; (10003fdc <_Z41__static_initialization_and_destruction_0ii+0xc94>)
10003d4c:	446b      	add	r3, sp
10003d4e:	0018      	movs	r0, r3
10003d50:	f018 f978 	bl	1001c044 <__wrap_memset>
10003d54:	2300      	movs	r3, #0
10003d56:	4aa1      	ldr	r2, [pc, #644]	; (10003fdc <_Z41__static_initialization_and_destruction_0ii+0xc94>)
10003d58:	446a      	add	r2, sp
10003d5a:	6013      	str	r3, [r2, #0]
10003d5c:	22b4      	movs	r2, #180	; 0xb4
10003d5e:	00d2      	lsls	r2, r2, #3
10003d60:	446a      	add	r2, sp
10003d62:	6013      	str	r3, [r2, #0]
10003d64:	4a9e      	ldr	r2, [pc, #632]	; (10003fe0 <_Z41__static_initialization_and_destruction_0ii+0xc98>)
10003d66:	446a      	add	r2, sp
10003d68:	6013      	str	r3, [r2, #0]
10003d6a:	4b9c      	ldr	r3, [pc, #624]	; (10003fdc <_Z41__static_initialization_and_destruction_0ii+0xc94>)
10003d6c:	446b      	add	r3, sp
10003d6e:	9303      	str	r3, [sp, #12]
10003d70:	4b99      	ldr	r3, [pc, #612]	; (10003fd8 <_Z41__static_initialization_and_destruction_0ii+0xc90>)
10003d72:	446b      	add	r3, sp
10003d74:	9302      	str	r3, [sp, #8]
10003d76:	4b97      	ldr	r3, [pc, #604]	; (10003fd4 <_Z41__static_initialization_and_destruction_0ii+0xc8c>)
10003d78:	446b      	add	r3, sp
10003d7a:	9301      	str	r3, [sp, #4]
10003d7c:	23b2      	movs	r3, #178	; 0xb2
10003d7e:	00db      	lsls	r3, r3, #3
10003d80:	446b      	add	r3, sp
10003d82:	9300      	str	r3, [sp, #0]
10003d84:	4b92      	ldr	r3, [pc, #584]	; (10003fd0 <_Z41__static_initialization_and_destruction_0ii+0xc88>)
10003d86:	446b      	add	r3, sp
10003d88:	22ae      	movs	r2, #174	; 0xae
10003d8a:	00d2      	lsls	r2, r2, #3
10003d8c:	446a      	add	r2, sp
10003d8e:	498e      	ldr	r1, [pc, #568]	; (10003fc8 <_Z41__static_initialization_and_destruction_0ii+0xc80>)
10003d90:	4469      	add	r1, sp
10003d92:	4894      	ldr	r0, [pc, #592]	; (10003fe4 <_Z41__static_initialization_and_destruction_0ii+0xc9c>)
10003d94:	f7fc fe1a 	bl	100009cc <_ZNSt11_Tuple_implILj0EJKNSt7__cxx1112basic_stringIcSt11char_traitsIcESaIcEEES6_N14wifi_interface12CMD_DATATYPEEiibSt6vectorIS5_SaIS5_EEEEC1ERS6_SD_RKS8_RKiSH_RKbRKSB_>
10003d98:	4890      	ldr	r0, [pc, #576]	; (10003fdc <_Z41__static_initialization_and_destruction_0ii+0xc94>)
10003d9a:	4468      	add	r0, sp
10003d9c:	f7fc fc23 	bl	100005e6 <_ZNSt6vectorINSt7__cxx1112basic_stringIcSt11char_traitsIcESaIcEEESaIS5_EED1Ev>
10003da0:	20ae      	movs	r0, #174	; 0xae
10003da2:	00c0      	lsls	r0, r0, #3
10003da4:	4468      	add	r0, sp
10003da6:	f01d fe27 	bl	100219f8 <_ZNSt7__cxx1112basic_stringIcSt11char_traitsIcESaIcEE10_M_disposeEv>
10003daa:	4887      	ldr	r0, [pc, #540]	; (10003fc8 <_Z41__static_initialization_and_destruction_0ii+0xc80>)
10003dac:	4468      	add	r0, sp
10003dae:	f01d fe23 	bl	100219f8 <_ZNSt7__cxx1112basic_stringIcSt11char_traitsIcESaIcEE10_M_disposeEv>
10003db2:	22b8      	movs	r2, #184	; 0xb8
10003db4:	00d2      	lsls	r2, r2, #3
10003db6:	446a      	add	r2, sp
10003db8:	498b      	ldr	r1, [pc, #556]	; (10003fe8 <_Z41__static_initialization_and_destruction_0ii+0xca0>)
10003dba:	20b5      	movs	r0, #181	; 0xb5
10003dbc:	00c0      	lsls	r0, r0, #3
10003dbe:	4468      	add	r0, sp
10003dc0:	f7fc fc68 	bl	10000694 <_ZNSt7__cxx1112basic_stringIcSt11char_traitsIcESaIcEEC1IS3_EEPKcRKS3_>
10003dc4:	4a89      	ldr	r2, [pc, #548]	; (10003fec <_Z41__static_initialization_and_destruction_0ii+0xca4>)
10003dc6:	446a      	add	r2, sp
10003dc8:	4989      	ldr	r1, [pc, #548]	; (10003ff0 <_Z41__static_initialization_and_destruction_0ii+0xca8>)
10003dca:	488a      	ldr	r0, [pc, #552]	; (10003ff4 <_Z41__static_initialization_and_destruction_0ii+0xcac>)
10003dcc:	4468      	add	r0, sp
10003dce:	f7fc fc61 	bl	10000694 <_ZNSt7__cxx1112basic_stringIcSt11char_traitsIcESaIcEEC1IS3_EEPKcRKS3_>
10003dd2:	2300      	movs	r3, #0
10003dd4:	4699      	mov	r9, r3
10003dd6:	23bc      	movs	r3, #188	; 0xbc
10003dd8:	00db      	lsls	r3, r3, #3
10003dda:	446b      	add	r3, sp
10003ddc:	464a      	mov	r2, r9
10003dde:	601a      	str	r2, [r3, #0]
10003de0:	2301      	movs	r3, #1
10003de2:	425b      	negs	r3, r3
10003de4:	4a84      	ldr	r2, [pc, #528]	; (10003ff8 <_Z41__static_initialization_and_destruction_0ii+0xcb0>)
10003de6:	446a      	add	r2, sp
10003de8:	6013      	str	r3, [r2, #0]
10003dea:	22bd      	movs	r2, #189	; 0xbd
10003dec:	00d2      	lsls	r2, r2, #3
10003dee:	446a      	add	r2, sp
10003df0:	6013      	str	r3, [r2, #0]
10003df2:	466b      	mov	r3, sp
10003df4:	4a81      	ldr	r2, [pc, #516]	; (10003ffc <_Z41__static_initialization_and_destruction_0ii+0xcb4>)
10003df6:	189b      	adds	r3, r3, r2
10003df8:	464a      	mov	r2, r9
10003dfa:	701a      	strb	r2, [r3, #0]
10003dfc:	26be      	movs	r6, #190	; 0xbe
10003dfe:	00f6      	lsls	r6, r6, #3
10003e00:	446e      	add	r6, sp
10003e02:	320c      	adds	r2, #12
10003e04:	4649      	mov	r1, r9
10003e06:	0030      	movs	r0, r6
10003e08:	f018 f91c 	bl	1001c044 <__wrap_memset>
10003e0c:	464a      	mov	r2, r9
10003e0e:	6032      	str	r2, [r6, #0]
10003e10:	6072      	str	r2, [r6, #4]
10003e12:	60b2      	str	r2, [r6, #8]
10003e14:	9603      	str	r6, [sp, #12]
10003e16:	4b79      	ldr	r3, [pc, #484]	; (10003ffc <_Z41__static_initialization_and_destruction_0ii+0xcb4>)
10003e18:	446b      	add	r3, sp
10003e1a:	9302      	str	r3, [sp, #8]
10003e1c:	23bd      	movs	r3, #189	; 0xbd
10003e1e:	00db      	lsls	r3, r3, #3
10003e20:	446b      	add	r3, sp
10003e22:	9301      	str	r3, [sp, #4]
10003e24:	4b74      	ldr	r3, [pc, #464]	; (10003ff8 <_Z41__static_initialization_and_destruction_0ii+0xcb0>)
10003e26:	446b      	add	r3, sp
10003e28:	9300      	str	r3, [sp, #0]
10003e2a:	23bc      	movs	r3, #188	; 0xbc
10003e2c:	00db      	lsls	r3, r3, #3
10003e2e:	446b      	add	r3, sp
10003e30:	4a70      	ldr	r2, [pc, #448]	; (10003ff4 <_Z41__static_initialization_and_destruction_0ii+0xcac>)
10003e32:	446a      	add	r2, sp
10003e34:	21b5      	movs	r1, #181	; 0xb5
10003e36:	00c9      	lsls	r1, r1, #3
10003e38:	4469      	add	r1, sp
10003e3a:	4871      	ldr	r0, [pc, #452]	; (10004000 <_Z41__static_initialization_and_destruction_0ii+0xcb8>)
10003e3c:	f7fc fdc6 	bl	100009cc <_ZNSt11_Tuple_implILj0EJKNSt7__cxx1112basic_stringIcSt11char_traitsIcESaIcEEES6_N14wifi_interface12CMD_DATATYPEEiibSt6vectorIS5_SaIS5_EEEEC1ERS6_SD_RKS8_RKiSH_RKbRKSB_>
10003e40:	0030      	movs	r0, r6
10003e42:	f7fc fbd0 	bl	100005e6 <_ZNSt6vectorINSt7__cxx1112basic_stringIcSt11char_traitsIcESaIcEEESaIS5_EED1Ev>
10003e46:	486b      	ldr	r0, [pc, #428]	; (10003ff4 <_Z41__static_initialization_and_destruction_0ii+0xcac>)
10003e48:	4468      	add	r0, sp
10003e4a:	f01d fdd5 	bl	100219f8 <_ZNSt7__cxx1112basic_stringIcSt11char_traitsIcESaIcEE10_M_disposeEv>
10003e4e:	20b5      	movs	r0, #181	; 0xb5
10003e50:	00c0      	lsls	r0, r0, #3
10003e52:	4468      	add	r0, sp
10003e54:	f01d fdd0 	bl	100219f8 <_ZNSt7__cxx1112basic_stringIcSt11char_traitsIcESaIcEE10_M_disposeEv>
10003e58:	4a6a      	ldr	r2, [pc, #424]	; (10004004 <_Z41__static_initialization_and_destruction_0ii+0xcbc>)
10003e5a:	446a      	add	r2, sp
10003e5c:	496a      	ldr	r1, [pc, #424]	; (10004008 <_Z41__static_initialization_and_destruction_0ii+0xcc0>)
10003e5e:	486b      	ldr	r0, [pc, #428]	; (1000400c <_Z41__static_initialization_and_destruction_0ii+0xcc4>)
10003e60:	4468      	add	r0, sp
10003e62:	f7fc fc17 	bl	10000694 <_ZNSt7__cxx1112basic_stringIcSt11char_traitsIcESaIcEEC1IS3_EEPKcRKS3_>
10003e66:	e002      	b.n	10003e6e <_Z41__static_initialization_and_destruction_0ii+0xb26>
10003e68:	2700      	movs	r7, #0
10003e6a:	f7ff fb11 	bl	10003490 <_Z41__static_initialization_and_destruction_0ii+0x148>
10003e6e:	22c6      	movs	r2, #198	; 0xc6
10003e70:	00d2      	lsls	r2, r2, #3
10003e72:	446a      	add	r2, sp
10003e74:	495e      	ldr	r1, [pc, #376]	; (10003ff0 <_Z41__static_initialization_and_destruction_0ii+0xca8>)
10003e76:	20c3      	movs	r0, #195	; 0xc3
10003e78:	00c0      	lsls	r0, r0, #3
10003e7a:	4468      	add	r0, sp
10003e7c:	f7fc fc0a 	bl	10000694 <_ZNSt7__cxx1112basic_stringIcSt11char_traitsIcESaIcEEC1IS3_EEPKcRKS3_>
10003e80:	2305      	movs	r3, #5
10003e82:	4a63      	ldr	r2, [pc, #396]	; (10004010 <_Z41__static_initialization_and_destruction_0ii+0xcc8>)
10003e84:	446a      	add	r2, sp
10003e86:	6013      	str	r3, [r2, #0]
10003e88:	3b06      	subs	r3, #6
10003e8a:	22c7      	movs	r2, #199	; 0xc7
10003e8c:	00d2      	lsls	r2, r2, #3
10003e8e:	446a      	add	r2, sp
10003e90:	6013      	str	r3, [r2, #0]
10003e92:	4a60      	ldr	r2, [pc, #384]	; (10004014 <_Z41__static_initialization_and_destruction_0ii+0xccc>)
10003e94:	446a      	add	r2, sp
10003e96:	6013      	str	r3, [r2, #0]
10003e98:	4f5f      	ldr	r7, [pc, #380]	; (10004018 <_Z41__static_initialization_and_destruction_0ii+0xcd0>)
10003e9a:	446f      	add	r7, sp
10003e9c:	2300      	movs	r3, #0
10003e9e:	4698      	mov	r8, r3
10003ea0:	703b      	strb	r3, [r7, #0]
10003ea2:	4e5e      	ldr	r6, [pc, #376]	; (1000401c <_Z41__static_initialization_and_destruction_0ii+0xcd4>)
10003ea4:	446e      	add	r6, sp
10003ea6:	220c      	movs	r2, #12
10003ea8:	0019      	movs	r1, r3
10003eaa:	0030      	movs	r0, r6
10003eac:	f018 f8ca 	bl	1001c044 <__wrap_memset>
10003eb0:	4642      	mov	r2, r8
10003eb2:	6032      	str	r2, [r6, #0]
10003eb4:	6072      	str	r2, [r6, #4]
10003eb6:	60b2      	str	r2, [r6, #8]
10003eb8:	9603      	str	r6, [sp, #12]
10003eba:	9702      	str	r7, [sp, #8]
10003ebc:	4b55      	ldr	r3, [pc, #340]	; (10004014 <_Z41__static_initialization_and_destruction_0ii+0xccc>)
10003ebe:	446b      	add	r3, sp
10003ec0:	9301      	str	r3, [sp, #4]
10003ec2:	23c7      	movs	r3, #199	; 0xc7
10003ec4:	00db      	lsls	r3, r3, #3
10003ec6:	446b      	add	r3, sp
10003ec8:	9300      	str	r3, [sp, #0]
10003eca:	4b51      	ldr	r3, [pc, #324]	; (10004010 <_Z41__static_initialization_and_destruction_0ii+0xcc8>)
10003ecc:	446b      	add	r3, sp
10003ece:	22c3      	movs	r2, #195	; 0xc3
10003ed0:	00d2      	lsls	r2, r2, #3
10003ed2:	446a      	add	r2, sp
10003ed4:	494d      	ldr	r1, [pc, #308]	; (1000400c <_Z41__static_initialization_and_destruction_0ii+0xcc4>)
10003ed6:	4469      	add	r1, sp
10003ed8:	4851      	ldr	r0, [pc, #324]	; (10004020 <_Z41__static_initialization_and_destruction_0ii+0xcd8>)
10003eda:	f7fc fd77 	bl	100009cc <_ZNSt11_Tuple_implILj0EJKNSt7__cxx1112basic_stringIcSt11char_traitsIcESaIcEEES6_N14wifi_interface12CMD_DATATYPEEiibSt6vectorIS5_SaIS5_EEEEC1ERS6_SD_RKS8_RKiSH_RKbRKSB_>
10003ede:	0030      	movs	r0, r6
10003ee0:	f7fc fb81 	bl	100005e6 <_ZNSt6vectorINSt7__cxx1112basic_stringIcSt11char_traitsIcESaIcEEESaIS5_EED1Ev>
10003ee4:	20c3      	movs	r0, #195	; 0xc3
10003ee6:	00c0      	lsls	r0, r0, #3
10003ee8:	4468      	add	r0, sp
10003eea:	f01d fd85 	bl	100219f8 <_ZNSt7__cxx1112basic_stringIcSt11char_traitsIcESaIcEE10_M_disposeEv>
10003eee:	4847      	ldr	r0, [pc, #284]	; (1000400c <_Z41__static_initialization_and_destruction_0ii+0xcc4>)
10003ef0:	4468      	add	r0, sp
10003ef2:	f01d fd81 	bl	100219f8 <_ZNSt7__cxx1112basic_stringIcSt11char_traitsIcESaIcEE10_M_disposeEv>
10003ef6:	f7ff fa5b 	bl	100033b0 <_Z41__static_initialization_and_destruction_0ii+0x68>
10003efa:	ae0a      	add	r6, sp, #40	; 0x28
10003efc:	ab0c      	add	r3, sp, #48	; 0x30
10003efe:	930a      	str	r3, [sp, #40]	; 0x28
10003f00:	2300      	movs	r3, #0
10003f02:	4a48      	ldr	r2, [pc, #288]	; (10004024 <_Z41__static_initialization_and_destruction_0ii+0xcdc>)
10003f04:	4938      	ldr	r1, [pc, #224]	; (10003fe8 <_Z41__static_initialization_and_destruction_0ii+0xca0>)
10003f06:	0030      	movs	r0, r6
10003f08:	f7fc fb96 	bl	10000638 <_ZNSt7__cxx1112basic_stringIcSt11char_traitsIcESaIcEE12_M_constructIPKcEEvT_S8_St20forward_iterator_tag>
10003f0c:	4946      	ldr	r1, [pc, #280]	; (10004028 <_Z41__static_initialization_and_destruction_0ii+0xce0>)
10003f0e:	a810      	add	r0, sp, #64	; 0x40
10003f10:	f7fc fb84 	bl	1000061c <_ZNSt8functionIFvNSt7__cxx1112basic_stringIcSt11char_traitsIcESaIcEEEEEC1IPS6_vvEET_>
10003f14:	21ca      	movs	r1, #202	; 0xca
10003f16:	00c9      	lsls	r1, r1, #3
10003f18:	4469      	add	r1, sp
10003f1a:	600e      	str	r6, [r1, #0]
10003f1c:	2301      	movs	r3, #1
10003f1e:	604b      	str	r3, [r1, #4]
10003f20:	2608      	movs	r6, #8
10003f22:	0032      	movs	r2, r6
10003f24:	a806      	add	r0, sp, #24
10003f26:	f018 f893 	bl	1001c050 <__wrap___aeabi_memcpy>
10003f2a:	0032      	movs	r2, r6
10003f2c:	a906      	add	r1, sp, #24
10003f2e:	a808      	add	r0, sp, #32
10003f30:	f018 f88e 	bl	1001c050 <__wrap___aeabi_memcpy>
10003f34:	9b09      	ldr	r3, [sp, #36]	; 0x24
10003f36:	2228      	movs	r2, #40	; 0x28
10003f38:	435a      	muls	r2, r3
10003f3a:	9b08      	ldr	r3, [sp, #32]
10003f3c:	469c      	mov	ip, r3
10003f3e:	4462      	add	r2, ip
10003f40:	23cc      	movs	r3, #204	; 0xcc
10003f42:	00db      	lsls	r3, r3, #3
10003f44:	446b      	add	r3, sp
10003f46:	9305      	str	r3, [sp, #20]
10003f48:	4b38      	ldr	r3, [pc, #224]	; (1000402c <_Z41__static_initialization_and_destruction_0ii+0xce4>)
10003f4a:	446b      	add	r3, sp
10003f4c:	9304      	str	r3, [sp, #16]
10003f4e:	4b38      	ldr	r3, [pc, #224]	; (10004030 <_Z41__static_initialization_and_destruction_0ii+0xce8>)
10003f50:	446b      	add	r3, sp
10003f52:	9303      	str	r3, [sp, #12]
10003f54:	23ce      	movs	r3, #206	; 0xce
10003f56:	00db      	lsls	r3, r3, #3
10003f58:	446b      	add	r3, sp
10003f5a:	9302      	str	r3, [sp, #8]
10003f5c:	4b35      	ldr	r3, [pc, #212]	; (10004034 <_Z41__static_initialization_and_destruction_0ii+0xcec>)
10003f5e:	446b      	add	r3, sp
10003f60:	9301      	str	r3, [sp, #4]
10003f62:	23cb      	movs	r3, #203	; 0xcb
10003f64:	00db      	lsls	r3, r3, #3
10003f66:	446b      	add	r3, sp
10003f68:	9300      	str	r3, [sp, #0]
10003f6a:	2300      	movs	r3, #0
10003f6c:	4661      	mov	r1, ip
10003f6e:	4832      	ldr	r0, [pc, #200]	; (10004038 <_Z41__static_initialization_and_destruction_0ii+0xcf0>)
10003f70:	f7fc ffd2 	bl	10000f18 <_ZNSt10_HashtableINSt7__cxx1112basic_stringIcSt11char_traitsIcESaIcEEESt4pairIKS5_St8functionIFvS5_EEESaISB_ENSt8__detail10_Select1stESt8equal_toIS5_ESt4hashIS5_ENSD_18_Mod_range_hashingENSD_20_Default_ranged_hashENSD_20_Prime_rehash_policyENSD_17_Hashtable_traitsILb1ELb0ELb1EEEEC1IPKSB_EET_SS_jRKSI_RKSJ_RKSK_RKSG_RKSE_RKSC_>
10003f74:	ae14      	add	r6, sp, #80	; 0x50
10003f76:	ab0a      	add	r3, sp, #40	; 0x28
10003f78:	429e      	cmp	r6, r3
10003f7a:	d101      	bne.n	10003f80 <_Z41__static_initialization_and_destruction_0ii+0xc38>
10003f7c:	f7ff fa20 	bl	100033c0 <_Z41__static_initialization_and_destruction_0ii+0x78>
10003f80:	3e28      	subs	r6, #40	; 0x28
10003f82:	0030      	movs	r0, r6
10003f84:	3018      	adds	r0, #24
10003f86:	f7fc fae1 	bl	1000054c <_ZNSt14_Function_baseD1Ev>
10003f8a:	0030      	movs	r0, r6
10003f8c:	f01d fd34 	bl	100219f8 <_ZNSt7__cxx1112basic_stringIcSt11char_traitsIcESaIcEE10_M_disposeEv>
10003f90:	e7f1      	b.n	10003f76 <_Z41__static_initialization_and_destruction_0ii+0xc2e>
10003f92:	46c0      	nop			; (mov r8, r8)
10003f94:	1002af90 	.word	0x1002af90
10003f98:	000004fc 	.word	0x000004fc
10003f9c:	200023e8 	.word	0x200023e8
10003fa0:	1002afa8 	.word	0x1002afa8
10003fa4:	00000534 	.word	0x00000534
10003fa8:	1002afac 	.word	0x1002afac
10003fac:	0000051c 	.word	0x0000051c
10003fb0:	0000053c 	.word	0x0000053c
10003fb4:	00000547 	.word	0x00000547
10003fb8:	0000054c 	.word	0x0000054c
10003fbc:	20002434 	.word	0x20002434
10003fc0:	0000056c 	.word	0x0000056c
10003fc4:	1002afbc 	.word	0x1002afbc
10003fc8:	00000554 	.word	0x00000554
10003fcc:	1002afc0 	.word	0x1002afc0
10003fd0:	0000058c 	.word	0x0000058c
10003fd4:	00000594 	.word	0x00000594
10003fd8:	0000059b 	.word	0x0000059b
10003fdc:	0000059c 	.word	0x0000059c
10003fe0:	000005a4 	.word	0x000005a4
10003fe4:	20002480 	.word	0x20002480
10003fe8:	1002afcc 	.word	0x1002afcc
10003fec:	000005dc 	.word	0x000005dc
10003ff0:	1002c1c4 	.word	0x1002c1c4
10003ff4:	000005c4 	.word	0x000005c4
10003ff8:	000005e4 	.word	0x000005e4
10003ffc:	000005ef 	.word	0x000005ef
10004000:	200024cc 	.word	0x200024cc
10004004:	00000614 	.word	0x00000614
10004008:	1002afd4 	.word	0x1002afd4
1000400c:	000005fc 	.word	0x000005fc
10004010:	00000634 	.word	0x00000634
10004014:	0000063c 	.word	0x0000063c
10004018:	00000643 	.word	0x00000643
1000401c:	00000644 	.word	0x00000644
10004020:	20002518 	.word	0x20002518
10004024:	1002afd1 	.word	0x1002afd1
10004028:	10010e41 	.word	0x10010e41
1000402c:	0000066c 	.word	0x0000066c
10004030:	0000065c 	.word	0x0000065c
10004034:	00000674 	.word	0x00000674
10004038:	20002088 	.word	0x20002088
1000403c:	4ecf      	ldr	r6, [pc, #828]	; (1000437c <_Z41__static_initialization_and_destruction_0ii+0x1034>)
1000403e:	2228      	movs	r2, #40	; 0x28
10004040:	2100      	movs	r1, #0
10004042:	0030      	movs	r0, r6
10004044:	f017 fffe 	bl	1001c044 <__wrap_memset>
10004048:	2100      	movs	r1, #0
1000404a:	6031      	str	r1, [r6, #0]
1000404c:	6071      	str	r1, [r6, #4]
1000404e:	60b1      	str	r1, [r6, #8]
10004050:	60f1      	str	r1, [r6, #12]
10004052:	6131      	str	r1, [r6, #16]
10004054:	6171      	str	r1, [r6, #20]
10004056:	61b1      	str	r1, [r6, #24]
10004058:	61f1      	str	r1, [r6, #28]
1000405a:	6231      	str	r1, [r6, #32]
1000405c:	6271      	str	r1, [r6, #36]	; 0x24
1000405e:	0030      	movs	r0, r6
10004060:	f7fc fb6c 	bl	1000073c <_ZNSt11_Deque_baseINSt7__cxx1112basic_stringIcSt11char_traitsIcESaIcEEESaIS5_EE17_M_initialize_mapEj>
10004064:	f7ff f9b4 	bl	100033d0 <_Z41__static_initialization_and_destruction_0ii+0x88>
10004068:	4ac5      	ldr	r2, [pc, #788]	; (10004380 <_Z41__static_initialization_and_destruction_0ii+0x1038>)
1000406a:	446a      	add	r2, sp
1000406c:	49c5      	ldr	r1, [pc, #788]	; (10004384 <_Z41__static_initialization_and_destruction_0ii+0x103c>)
1000406e:	48c6      	ldr	r0, [pc, #792]	; (10004388 <_Z41__static_initialization_and_destruction_0ii+0x1040>)
10004070:	f7fc fb10 	bl	10000694 <_ZNSt7__cxx1112basic_stringIcSt11char_traitsIcESaIcEEC1IS3_EEPKcRKS3_>
10004074:	f7ff f9b4 	bl	100033e0 <_Z41__static_initialization_and_destruction_0ii+0x98>
10004078:	4ac4      	ldr	r2, [pc, #784]	; (1000438c <_Z41__static_initialization_and_destruction_0ii+0x1044>)
1000407a:	6813      	ldr	r3, [r2, #0]
1000407c:	3b01      	subs	r3, #1
1000407e:	6013      	str	r3, [r2, #0]
10004080:	2b00      	cmp	r3, #0
10004082:	d019      	beq.n	100040b8 <_Z41__static_initialization_and_destruction_0ii+0xd70>
10004084:	4ac2      	ldr	r2, [pc, #776]	; (10004390 <_Z41__static_initialization_and_destruction_0ii+0x1048>)
10004086:	6813      	ldr	r3, [r2, #0]
10004088:	3b01      	subs	r3, #1
1000408a:	6013      	str	r3, [r2, #0]
1000408c:	2b00      	cmp	r3, #0
1000408e:	d017      	beq.n	100040c0 <_Z41__static_initialization_and_destruction_0ii+0xd78>
10004090:	4ac0      	ldr	r2, [pc, #768]	; (10004394 <_Z41__static_initialization_and_destruction_0ii+0x104c>)
10004092:	6813      	ldr	r3, [r2, #0]
10004094:	3b01      	subs	r3, #1
10004096:	6013      	str	r3, [r2, #0]
10004098:	2b00      	cmp	r3, #0
1000409a:	d015      	beq.n	100040c8 <_Z41__static_initialization_and_destruction_0ii+0xd80>
1000409c:	4abe      	ldr	r2, [pc, #760]	; (10004398 <_Z41__static_initialization_and_destruction_0ii+0x1050>)
1000409e:	6813      	ldr	r3, [r2, #0]
100040a0:	3b01      	subs	r3, #1
100040a2:	6013      	str	r3, [r2, #0]
100040a4:	2b00      	cmp	r3, #0
100040a6:	d040      	beq.n	1000412a <_Z41__static_initialization_and_destruction_0ii+0xde2>
100040a8:	4abc      	ldr	r2, [pc, #752]	; (1000439c <_Z41__static_initialization_and_destruction_0ii+0x1054>)
100040aa:	6813      	ldr	r3, [r2, #0]
100040ac:	3b01      	subs	r3, #1
100040ae:	6013      	str	r3, [r2, #0]
100040b0:	2b00      	cmp	r3, #0
100040b2:	d145      	bne.n	10004140 <_Z41__static_initialization_and_destruction_0ii+0xdf8>
100040b4:	4cba      	ldr	r4, [pc, #744]	; (100043a0 <_Z41__static_initialization_and_destruction_0ii+0x1058>)
100040b6:	e040      	b.n	1000413a <_Z41__static_initialization_and_destruction_0ii+0xdf2>
100040b8:	48ba      	ldr	r0, [pc, #744]	; (100043a4 <_Z41__static_initialization_and_destruction_0ii+0x105c>)
100040ba:	f01d fc9d 	bl	100219f8 <_ZNSt7__cxx1112basic_stringIcSt11char_traitsIcESaIcEE10_M_disposeEv>
100040be:	e7e1      	b.n	10004084 <_Z41__static_initialization_and_destruction_0ii+0xd3c>
100040c0:	48b1      	ldr	r0, [pc, #708]	; (10004388 <_Z41__static_initialization_and_destruction_0ii+0x1040>)
100040c2:	f01d fc99 	bl	100219f8 <_ZNSt7__cxx1112basic_stringIcSt11char_traitsIcESaIcEE10_M_disposeEv>
100040c6:	e7e3      	b.n	10004090 <_Z41__static_initialization_and_destruction_0ii+0xd48>
100040c8:	4cac      	ldr	r4, [pc, #688]	; (1000437c <_Z41__static_initialization_and_destruction_0ii+0x1034>)
100040ca:	23d1      	movs	r3, #209	; 0xd1
100040cc:	00db      	lsls	r3, r3, #3
100040ce:	446b      	add	r3, sp
100040d0:	68a1      	ldr	r1, [r4, #8]
100040d2:	6019      	str	r1, [r3, #0]
100040d4:	68e2      	ldr	r2, [r4, #12]
100040d6:	605a      	str	r2, [r3, #4]
100040d8:	6922      	ldr	r2, [r4, #16]
100040da:	609a      	str	r2, [r3, #8]
100040dc:	6962      	ldr	r2, [r4, #20]
100040de:	60da      	str	r2, [r3, #12]
100040e0:	69a0      	ldr	r0, [r4, #24]
100040e2:	21cf      	movs	r1, #207	; 0xcf
100040e4:	00c9      	lsls	r1, r1, #3
100040e6:	4469      	add	r1, sp
100040e8:	6008      	str	r0, [r1, #0]
100040ea:	69e3      	ldr	r3, [r4, #28]
100040ec:	604b      	str	r3, [r1, #4]
100040ee:	6a25      	ldr	r5, [r4, #32]
100040f0:	608d      	str	r5, [r1, #8]
100040f2:	6a65      	ldr	r5, [r4, #36]	; 0x24
100040f4:	60cd      	str	r5, [r1, #12]
100040f6:	21d5      	movs	r1, #213	; 0xd5
100040f8:	00c9      	lsls	r1, r1, #3
100040fa:	4469      	add	r1, sp
100040fc:	68a6      	ldr	r6, [r4, #8]
100040fe:	600e      	str	r6, [r1, #0]
10004100:	68e5      	ldr	r5, [r4, #12]
10004102:	604d      	str	r5, [r1, #4]
10004104:	6925      	ldr	r5, [r4, #16]
10004106:	608d      	str	r5, [r1, #8]
10004108:	60ca      	str	r2, [r1, #12]
1000410a:	22d3      	movs	r2, #211	; 0xd3
1000410c:	00d2      	lsls	r2, r2, #3
1000410e:	446a      	add	r2, sp
10004110:	6010      	str	r0, [r2, #0]
10004112:	6053      	str	r3, [r2, #4]
10004114:	6a23      	ldr	r3, [r4, #32]
10004116:	6093      	str	r3, [r2, #8]
10004118:	6a63      	ldr	r3, [r4, #36]	; 0x24
1000411a:	60d3      	str	r3, [r2, #12]
1000411c:	0020      	movs	r0, r4
1000411e:	f7fc fb65 	bl	100007ec <_ZNSt5dequeINSt7__cxx1112basic_stringIcSt11char_traitsIcESaIcEEESaIS5_EE19_M_destroy_data_auxESt15_Deque_iteratorIS5_RS5_PS5_ESB_>
10004122:	0020      	movs	r0, r4
10004124:	f7fc fad7 	bl	100006d6 <_ZNSt11_Deque_baseINSt7__cxx1112basic_stringIcSt11char_traitsIcESaIcEEESaIS5_EED1Ev>
10004128:	e7b8      	b.n	1000409c <_Z41__static_initialization_and_destruction_0ii+0xd54>
1000412a:	489f      	ldr	r0, [pc, #636]	; (100043a8 <_Z41__static_initialization_and_destruction_0ii+0x1060>)
1000412c:	f7fc fd35 	bl	10000b9a <_ZNSt10_HashtableINSt7__cxx1112basic_stringIcSt11char_traitsIcESaIcEEESt4pairIKS5_St8functionIFvS5_EEESaISB_ENSt8__detail10_Select1stESt8equal_toIS5_ESt4hashIS5_ENSD_18_Mod_range_hashingENSD_20_Default_ranged_hashENSD_20_Prime_rehash_policyENSD_17_Hashtable_traitsILb1ELb0ELb1EEEED1Ev>
10004130:	e7ba      	b.n	100040a8 <_Z41__static_initialization_and_destruction_0ii+0xd60>
10004132:	3c4c      	subs	r4, #76	; 0x4c
10004134:	0020      	movs	r0, r4
10004136:	f7fc fa13 	bl	10000560 <_ZNSt11_Tuple_implILj0EJKNSt7__cxx1112basic_stringIcSt11char_traitsIcESaIcEEES6_N14wifi_interface12CMD_DATATYPEEiibSt6vectorIS5_SaIS5_EEEED1Ev>
1000413a:	4b9c      	ldr	r3, [pc, #624]	; (100043ac <_Z41__static_initialization_and_destruction_0ii+0x1064>)
1000413c:	429c      	cmp	r4, r3
1000413e:	d1f8      	bne.n	10004132 <_Z41__static_initialization_and_destruction_0ii+0xdea>
10004140:	4a9b      	ldr	r2, [pc, #620]	; (100043b0 <_Z41__static_initialization_and_destruction_0ii+0x1068>)
10004142:	6813      	ldr	r3, [r2, #0]
10004144:	3b01      	subs	r3, #1
10004146:	6013      	str	r3, [r2, #0]
10004148:	2b00      	cmp	r3, #0
1000414a:	d108      	bne.n	1000415e <_Z41__static_initialization_and_destruction_0ii+0xe16>
1000414c:	4c99      	ldr	r4, [pc, #612]	; (100043b4 <_Z41__static_initialization_and_destruction_0ii+0x106c>)
1000414e:	4b9a      	ldr	r3, [pc, #616]	; (100043b8 <_Z41__static_initialization_and_destruction_0ii+0x1070>)
10004150:	429c      	cmp	r4, r3
10004152:	d004      	beq.n	1000415e <_Z41__static_initialization_and_destruction_0ii+0xe16>
10004154:	3c18      	subs	r4, #24
10004156:	0020      	movs	r0, r4
10004158:	f01d fc4e 	bl	100219f8 <_ZNSt7__cxx1112basic_stringIcSt11char_traitsIcESaIcEE10_M_disposeEv>
1000415c:	e7f7      	b.n	1000414e <_Z41__static_initialization_and_destruction_0ii+0xe06>
1000415e:	4897      	ldr	r0, [pc, #604]	; (100043bc <_Z41__static_initialization_and_destruction_0ii+0x1074>)
10004160:	6881      	ldr	r1, [r0, #8]
10004162:	f7fc fdae 	bl	10000cc2 <_ZNSt8_Rb_treeIjSt4pairIKjSt3mapIjSt10shared_ptrIN7PicoLed13PicoLedTargetEESt4lessIjESaIS0_IS1_S6_EEEESt10_Select1stISC_ES8_SaISC_EE8_M_eraseEPSt13_Rb_tree_nodeISC_E>
10004166:	f7ff f900 	bl	1000336a <_Z41__static_initialization_and_destruction_0ii+0x22>
1000416a:	2602      	movs	r6, #2
1000416c:	f7ff f94d 	bl	1000340a <_Z41__static_initialization_and_destruction_0ii+0xc2>
10004170:	f7ff f94b 	bl	1000340a <_Z41__static_initialization_and_destruction_0ii+0xc2>
10004174:	f01c f928 	bl	100203c8 <__cxa_end_cleanup>
10004178:	a846      	add	r0, sp, #280	; 0x118
1000417a:	f7fc fa34 	bl	100005e6 <_ZNSt6vectorINSt7__cxx1112basic_stringIcSt11char_traitsIcESaIcEEESaIS5_EED1Ev>
1000417e:	a83b      	add	r0, sp, #236	; 0xec
10004180:	f01d fc3a 	bl	100219f8 <_ZNSt7__cxx1112basic_stringIcSt11char_traitsIcESaIcEE10_M_disposeEv>
10004184:	a834      	add	r0, sp, #208	; 0xd0
10004186:	f01d fc37 	bl	100219f8 <_ZNSt7__cxx1112basic_stringIcSt11char_traitsIcESaIcEE10_M_disposeEv>
1000418a:	270f      	movs	r7, #15
1000418c:	f7ff f980 	bl	10003490 <_Z41__static_initialization_and_destruction_0ii+0x148>
10004190:	e7f8      	b.n	10004184 <_Z41__static_initialization_and_destruction_0ii+0xe3c>
10004192:	a85b      	add	r0, sp, #364	; 0x16c
10004194:	f7fc fa27 	bl	100005e6 <_ZNSt6vectorINSt7__cxx1112basic_stringIcSt11char_traitsIcESaIcEEESaIS5_EED1Ev>
10004198:	a850      	add	r0, sp, #320	; 0x140
1000419a:	f01d fc2d 	bl	100219f8 <_ZNSt7__cxx1112basic_stringIcSt11char_traitsIcESaIcEE10_M_disposeEv>
1000419e:	a849      	add	r0, sp, #292	; 0x124
100041a0:	f01d fc2a 	bl	100219f8 <_ZNSt7__cxx1112basic_stringIcSt11char_traitsIcESaIcEE10_M_disposeEv>
100041a4:	270e      	movs	r7, #14
100041a6:	f7ff f973 	bl	10003490 <_Z41__static_initialization_and_destruction_0ii+0x148>
100041aa:	e7f8      	b.n	1000419e <_Z41__static_initialization_and_destruction_0ii+0xe56>
100041ac:	a870      	add	r0, sp, #448	; 0x1c0
100041ae:	f7fc fa1a 	bl	100005e6 <_ZNSt6vectorINSt7__cxx1112basic_stringIcSt11char_traitsIcESaIcEEESaIS5_EED1Ev>
100041b2:	a865      	add	r0, sp, #404	; 0x194
100041b4:	f01d fc20 	bl	100219f8 <_ZNSt7__cxx1112basic_stringIcSt11char_traitsIcESaIcEE10_M_disposeEv>
100041b8:	a85e      	add	r0, sp, #376	; 0x178
100041ba:	f01d fc1d 	bl	100219f8 <_ZNSt7__cxx1112basic_stringIcSt11char_traitsIcESaIcEE10_M_disposeEv>
100041be:	270d      	movs	r7, #13
100041c0:	f7ff f966 	bl	10003490 <_Z41__static_initialization_and_destruction_0ii+0x148>
100041c4:	e7f8      	b.n	100041b8 <_Z41__static_initialization_and_destruction_0ii+0xe70>
100041c6:	a885      	add	r0, sp, #532	; 0x214
100041c8:	f7fc fa0d 	bl	100005e6 <_ZNSt6vectorINSt7__cxx1112basic_stringIcSt11char_traitsIcESaIcEEESaIS5_EED1Ev>
100041cc:	a87a      	add	r0, sp, #488	; 0x1e8
100041ce:	f01d fc13 	bl	100219f8 <_ZNSt7__cxx1112basic_stringIcSt11char_traitsIcESaIcEE10_M_disposeEv>
100041d2:	a873      	add	r0, sp, #460	; 0x1cc
100041d4:	f01d fc10 	bl	100219f8 <_ZNSt7__cxx1112basic_stringIcSt11char_traitsIcESaIcEE10_M_disposeEv>
100041d8:	270c      	movs	r7, #12
100041da:	f7ff f959 	bl	10003490 <_Z41__static_initialization_and_destruction_0ii+0x148>
100041de:	e7f8      	b.n	100041d2 <_Z41__static_initialization_and_destruction_0ii+0xe8a>
100041e0:	a89a      	add	r0, sp, #616	; 0x268
100041e2:	f7fc fa00 	bl	100005e6 <_ZNSt6vectorINSt7__cxx1112basic_stringIcSt11char_traitsIcESaIcEEESaIS5_EED1Ev>
100041e6:	a88f      	add	r0, sp, #572	; 0x23c
100041e8:	f01d fc06 	bl	100219f8 <_ZNSt7__cxx1112basic_stringIcSt11char_traitsIcESaIcEE10_M_disposeEv>
100041ec:	a888      	add	r0, sp, #544	; 0x220
100041ee:	f01d fc03 	bl	100219f8 <_ZNSt7__cxx1112basic_stringIcSt11char_traitsIcESaIcEE10_M_disposeEv>
100041f2:	270b      	movs	r7, #11
100041f4:	f7ff f94c 	bl	10003490 <_Z41__static_initialization_and_destruction_0ii+0x148>
100041f8:	e7f8      	b.n	100041ec <_Z41__static_initialization_and_destruction_0ii+0xea4>
100041fa:	a8af      	add	r0, sp, #700	; 0x2bc
100041fc:	f7fc f9f3 	bl	100005e6 <_ZNSt6vectorINSt7__cxx1112basic_stringIcSt11char_traitsIcESaIcEEESaIS5_EED1Ev>
10004200:	ac2e      	add	r4, sp, #184	; 0xb8
10004202:	f7ff faf4 	bl	100037ee <_Z41__static_initialization_and_destruction_0ii+0x4a6>
10004206:	a8a4      	add	r0, sp, #656	; 0x290
10004208:	f01d fbf6 	bl	100219f8 <_ZNSt7__cxx1112basic_stringIcSt11char_traitsIcESaIcEE10_M_disposeEv>
1000420c:	a89d      	add	r0, sp, #628	; 0x274
1000420e:	f01d fbf3 	bl	100219f8 <_ZNSt7__cxx1112basic_stringIcSt11char_traitsIcESaIcEE10_M_disposeEv>
10004212:	270a      	movs	r7, #10
10004214:	f7ff f93c 	bl	10003490 <_Z41__static_initialization_and_destruction_0ii+0x148>
10004218:	e7f8      	b.n	1000420c <_Z41__static_initialization_and_destruction_0ii+0xec4>
1000421a:	a8cd      	add	r0, sp, #820	; 0x334
1000421c:	f7fc f9e3 	bl	100005e6 <_ZNSt6vectorINSt7__cxx1112basic_stringIcSt11char_traitsIcESaIcEEESaIS5_EED1Ev>
10004220:	a8c2      	add	r0, sp, #776	; 0x308
10004222:	f01d fbe9 	bl	100219f8 <_ZNSt7__cxx1112basic_stringIcSt11char_traitsIcESaIcEE10_M_disposeEv>
10004226:	a8bb      	add	r0, sp, #748	; 0x2ec
10004228:	f01d fbe6 	bl	100219f8 <_ZNSt7__cxx1112basic_stringIcSt11char_traitsIcESaIcEE10_M_disposeEv>
1000422c:	2709      	movs	r7, #9
1000422e:	f7ff f92f 	bl	10003490 <_Z41__static_initialization_and_destruction_0ii+0x148>
10004232:	e7f8      	b.n	10004226 <_Z41__static_initialization_and_destruction_0ii+0xede>
10004234:	a8e2      	add	r0, sp, #904	; 0x388
10004236:	f7fc f9d6 	bl	100005e6 <_ZNSt6vectorINSt7__cxx1112basic_stringIcSt11char_traitsIcESaIcEEESaIS5_EED1Ev>
1000423a:	a8d7      	add	r0, sp, #860	; 0x35c
1000423c:	f01d fbdc 	bl	100219f8 <_ZNSt7__cxx1112basic_stringIcSt11char_traitsIcESaIcEE10_M_disposeEv>
10004240:	a8d0      	add	r0, sp, #832	; 0x340
10004242:	f01d fbd9 	bl	100219f8 <_ZNSt7__cxx1112basic_stringIcSt11char_traitsIcESaIcEE10_M_disposeEv>
10004246:	2708      	movs	r7, #8
10004248:	f7ff f922 	bl	10003490 <_Z41__static_initialization_and_destruction_0ii+0x148>
1000424c:	e7f8      	b.n	10004240 <_Z41__static_initialization_and_destruction_0ii+0xef8>
1000424e:	a8f7      	add	r0, sp, #988	; 0x3dc
10004250:	f7fc f9c9 	bl	100005e6 <_ZNSt6vectorINSt7__cxx1112basic_stringIcSt11char_traitsIcESaIcEEESaIS5_EED1Ev>
10004254:	a8ec      	add	r0, sp, #944	; 0x3b0
10004256:	f01d fbcf 	bl	100219f8 <_ZNSt7__cxx1112basic_stringIcSt11char_traitsIcESaIcEE10_M_disposeEv>
1000425a:	a8e5      	add	r0, sp, #916	; 0x394
1000425c:	f01d fbcc 	bl	100219f8 <_ZNSt7__cxx1112basic_stringIcSt11char_traitsIcESaIcEE10_M_disposeEv>
10004260:	2707      	movs	r7, #7
10004262:	f7ff f915 	bl	10003490 <_Z41__static_initialization_and_destruction_0ii+0x148>
10004266:	e7f8      	b.n	1000425a <_Z41__static_initialization_and_destruction_0ii+0xf12>
10004268:	a8ff      	add	r0, sp, #1020	; 0x3fc
1000426a:	3034      	adds	r0, #52	; 0x34
1000426c:	f7fc f9bb 	bl	100005e6 <_ZNSt6vectorINSt7__cxx1112basic_stringIcSt11char_traitsIcESaIcEEESaIS5_EED1Ev>
10004270:	a8ff      	add	r0, sp, #1020	; 0x3fc
10004272:	3008      	adds	r0, #8
10004274:	f01d fbc0 	bl	100219f8 <_ZNSt7__cxx1112basic_stringIcSt11char_traitsIcESaIcEE10_M_disposeEv>
10004278:	a8fa      	add	r0, sp, #1000	; 0x3e8
1000427a:	f01d fbbd 	bl	100219f8 <_ZNSt7__cxx1112basic_stringIcSt11char_traitsIcESaIcEE10_M_disposeEv>
1000427e:	2706      	movs	r7, #6
10004280:	f7ff f906 	bl	10003490 <_Z41__static_initialization_and_destruction_0ii+0x148>
10004284:	e7f8      	b.n	10004278 <_Z41__static_initialization_and_destruction_0ii+0xf30>
10004286:	a8ff      	add	r0, sp, #1020	; 0x3fc
10004288:	3088      	adds	r0, #136	; 0x88
1000428a:	f7fc f9ac 	bl	100005e6 <_ZNSt6vectorINSt7__cxx1112basic_stringIcSt11char_traitsIcESaIcEEESaIS5_EED1Ev>
1000428e:	ac22      	add	r4, sp, #136	; 0x88
10004290:	e413      	b.n	10003aba <_Z41__static_initialization_and_destruction_0ii+0x772>
10004292:	a8ff      	add	r0, sp, #1020	; 0x3fc
10004294:	305c      	adds	r0, #92	; 0x5c
10004296:	f01d fbaf 	bl	100219f8 <_ZNSt7__cxx1112basic_stringIcSt11char_traitsIcESaIcEE10_M_disposeEv>
1000429a:	a8ff      	add	r0, sp, #1020	; 0x3fc
1000429c:	3040      	adds	r0, #64	; 0x40
1000429e:	f01d fbab 	bl	100219f8 <_ZNSt7__cxx1112basic_stringIcSt11char_traitsIcESaIcEE10_M_disposeEv>
100042a2:	2705      	movs	r7, #5
100042a4:	f7ff f8f4 	bl	10003490 <_Z41__static_initialization_and_destruction_0ii+0x148>
100042a8:	e7f7      	b.n	1000429a <_Z41__static_initialization_and_destruction_0ii+0xf52>
100042aa:	a8ff      	add	r0, sp, #1020	; 0x3fc
100042ac:	30f8      	adds	r0, #248	; 0xf8
100042ae:	f7fc f99a 	bl	100005e6 <_ZNSt6vectorINSt7__cxx1112basic_stringIcSt11char_traitsIcESaIcEEESaIS5_EED1Ev>
100042b2:	a8ff      	add	r0, sp, #1020	; 0x3fc
100042b4:	30cc      	adds	r0, #204	; 0xcc
100042b6:	f01d fb9f 	bl	100219f8 <_ZNSt7__cxx1112basic_stringIcSt11char_traitsIcESaIcEE10_M_disposeEv>
100042ba:	a8ff      	add	r0, sp, #1020	; 0x3fc
100042bc:	30b0      	adds	r0, #176	; 0xb0
100042be:	f01d fb9b 	bl	100219f8 <_ZNSt7__cxx1112basic_stringIcSt11char_traitsIcESaIcEE10_M_disposeEv>
100042c2:	2704      	movs	r7, #4
100042c4:	f7ff f8e4 	bl	10003490 <_Z41__static_initialization_and_destruction_0ii+0x148>
100042c8:	e7f7      	b.n	100042ba <_Z41__static_initialization_and_destruction_0ii+0xf72>
100042ca:	20a9      	movs	r0, #169	; 0xa9
100042cc:	00c0      	lsls	r0, r0, #3
100042ce:	4468      	add	r0, sp
100042d0:	f7fc f989 	bl	100005e6 <_ZNSt6vectorINSt7__cxx1112basic_stringIcSt11char_traitsIcESaIcEEESaIS5_EED1Ev>
100042d4:	483a      	ldr	r0, [pc, #232]	; (100043c0 <_Z41__static_initialization_and_destruction_0ii+0x1078>)
100042d6:	4468      	add	r0, sp
100042d8:	f01d fb8e 	bl	100219f8 <_ZNSt7__cxx1112basic_stringIcSt11char_traitsIcESaIcEE10_M_disposeEv>
100042dc:	20a0      	movs	r0, #160	; 0xa0
100042de:	00c0      	lsls	r0, r0, #3
100042e0:	4468      	add	r0, sp
100042e2:	f01d fb89 	bl	100219f8 <_ZNSt7__cxx1112basic_stringIcSt11char_traitsIcESaIcEE10_M_disposeEv>
100042e6:	2703      	movs	r7, #3
100042e8:	f7ff f8d2 	bl	10003490 <_Z41__static_initialization_and_destruction_0ii+0x148>
100042ec:	e7f6      	b.n	100042dc <_Z41__static_initialization_and_destruction_0ii+0xf94>
100042ee:	4835      	ldr	r0, [pc, #212]	; (100043c4 <_Z41__static_initialization_and_destruction_0ii+0x107c>)
100042f0:	4468      	add	r0, sp
100042f2:	f7fc f978 	bl	100005e6 <_ZNSt6vectorINSt7__cxx1112basic_stringIcSt11char_traitsIcESaIcEEESaIS5_EED1Ev>
100042f6:	20ae      	movs	r0, #174	; 0xae
100042f8:	00c0      	lsls	r0, r0, #3
100042fa:	4468      	add	r0, sp
100042fc:	f01d fb7c 	bl	100219f8 <_ZNSt7__cxx1112basic_stringIcSt11char_traitsIcESaIcEE10_M_disposeEv>
10004300:	4831      	ldr	r0, [pc, #196]	; (100043c8 <_Z41__static_initialization_and_destruction_0ii+0x1080>)
10004302:	4468      	add	r0, sp
10004304:	f01d fb78 	bl	100219f8 <_ZNSt7__cxx1112basic_stringIcSt11char_traitsIcESaIcEE10_M_disposeEv>
10004308:	2702      	movs	r7, #2
1000430a:	f7ff f8c1 	bl	10003490 <_Z41__static_initialization_and_destruction_0ii+0x148>
1000430e:	e7f7      	b.n	10004300 <_Z41__static_initialization_and_destruction_0ii+0xfb8>
10004310:	20be      	movs	r0, #190	; 0xbe
10004312:	00c0      	lsls	r0, r0, #3
10004314:	4468      	add	r0, sp
10004316:	f7fc f966 	bl	100005e6 <_ZNSt6vectorINSt7__cxx1112basic_stringIcSt11char_traitsIcESaIcEEESaIS5_EED1Ev>
1000431a:	482c      	ldr	r0, [pc, #176]	; (100043cc <_Z41__static_initialization_and_destruction_0ii+0x1084>)
1000431c:	4468      	add	r0, sp
1000431e:	f01d fb6b 	bl	100219f8 <_ZNSt7__cxx1112basic_stringIcSt11char_traitsIcESaIcEE10_M_disposeEv>
10004322:	20b5      	movs	r0, #181	; 0xb5
10004324:	00c0      	lsls	r0, r0, #3
10004326:	4468      	add	r0, sp
10004328:	f01d fb66 	bl	100219f8 <_ZNSt7__cxx1112basic_stringIcSt11char_traitsIcESaIcEE10_M_disposeEv>
1000432c:	f7ff f8b0 	bl	10003490 <_Z41__static_initialization_and_destruction_0ii+0x148>
10004330:	e7f7      	b.n	10004322 <_Z41__static_initialization_and_destruction_0ii+0xfda>
10004332:	4827      	ldr	r0, [pc, #156]	; (100043d0 <_Z41__static_initialization_and_destruction_0ii+0x1088>)
10004334:	4468      	add	r0, sp
10004336:	f7fc f956 	bl	100005e6 <_ZNSt6vectorINSt7__cxx1112basic_stringIcSt11char_traitsIcESaIcEEESaIS5_EED1Ev>
1000433a:	20c3      	movs	r0, #195	; 0xc3
1000433c:	00c0      	lsls	r0, r0, #3
1000433e:	4468      	add	r0, sp
10004340:	f01d fb5a 	bl	100219f8 <_ZNSt7__cxx1112basic_stringIcSt11char_traitsIcESaIcEE10_M_disposeEv>
10004344:	4823      	ldr	r0, [pc, #140]	; (100043d4 <_Z41__static_initialization_and_destruction_0ii+0x108c>)
10004346:	4468      	add	r0, sp
10004348:	f01d fb56 	bl	100219f8 <_ZNSt7__cxx1112basic_stringIcSt11char_traitsIcESaIcEE10_M_disposeEv>
1000434c:	2700      	movs	r7, #0
1000434e:	f7ff f89f 	bl	10003490 <_Z41__static_initialization_and_destruction_0ii+0x148>
10004352:	e7f7      	b.n	10004344 <_Z41__static_initialization_and_destruction_0ii+0xffc>
10004354:	f7ff f89c 	bl	10003490 <_Z41__static_initialization_and_destruction_0ii+0x148>
10004358:	f01c f836 	bl	100203c8 <__cxa_end_cleanup>
1000435c:	ac14      	add	r4, sp, #80	; 0x50
1000435e:	ab0a      	add	r3, sp, #40	; 0x28
10004360:	429c      	cmp	r4, r3
10004362:	d008      	beq.n	10004376 <_Z41__static_initialization_and_destruction_0ii+0x102e>
10004364:	3c28      	subs	r4, #40	; 0x28
10004366:	0020      	movs	r0, r4
10004368:	3018      	adds	r0, #24
1000436a:	f7fc f8ef 	bl	1000054c <_ZNSt14_Function_baseD1Ev>
1000436e:	0020      	movs	r0, r4
10004370:	f01d fb42 	bl	100219f8 <_ZNSt7__cxx1112basic_stringIcSt11char_traitsIcESaIcEE10_M_disposeEv>
10004374:	e7f3      	b.n	1000435e <_Z41__static_initialization_and_destruction_0ii+0x1016>
10004376:	f01c f827 	bl	100203c8 <__cxa_end_cleanup>
1000437a:	46c0      	nop			; (mov r8, r8)
1000437c:	20002060 	.word	0x20002060
10004380:	00000664 	.word	0x00000664
10004384:	1002c1c4 	.word	0x1002c1c4
10004388:	20002030 	.word	0x20002030
1000438c:	20001fe8 	.word	0x20001fe8
10004390:	20001fe4 	.word	0x20001fe4
10004394:	20001fec 	.word	0x20001fec
10004398:	20001ff0 	.word	0x20001ff0
1000439c:	20001ff4 	.word	0x20001ff4
100043a0:	20002564 	.word	0x20002564
100043a4:	20002048 	.word	0x20002048
100043a8:	20002088 	.word	0x20002088
100043ac:	200020a4 	.word	0x200020a4
100043b0:	20001ff8 	.word	0x20001ff8
100043b4:	200025f4 	.word	0x200025f4
100043b8:	20002564 	.word	0x20002564
100043bc:	20002c58 	.word	0x20002c58
100043c0:	0000051c 	.word	0x0000051c
100043c4:	0000059c 	.word	0x0000059c
100043c8:	00000554 	.word	0x00000554
100043cc:	000005c4 	.word	0x000005c4
100043d0:	00000644 	.word	0x00000644
100043d4:	000005fc 	.word	0x000005fc

100043d8 <_GLOBAL__sub_I__ZN23settings_storage_eepromC2Ev>:
100043d8:	b510      	push	{r4, lr}
100043da:	4902      	ldr	r1, [pc, #8]	; (100043e4 <_GLOBAL__sub_I__ZN23settings_storage_eepromC2Ev+0xc>)
100043dc:	2001      	movs	r0, #1
100043de:	f7fe ffb3 	bl	10003348 <_Z41__static_initialization_and_destruction_0ii>
100043e2:	bd10      	pop	{r4, pc}
100043e4:	0000ffff 	.word	0x0000ffff

100043e8 <_ZN26wordclock_faceplate_germanD1Ev>:
100043e8:	b510      	push	{r4, lr}
100043ea:	0004      	movs	r4, r0
100043ec:	4b03      	ldr	r3, [pc, #12]	; (100043fc <_ZN26wordclock_faceplate_germanD1Ev+0x14>)
100043ee:	3308      	adds	r3, #8
100043f0:	6003      	str	r3, [r0, #0]
100043f2:	f008 ff27 	bl	1000d244 <_ZN19wordclock_faceplateD1Ev>
100043f6:	0020      	movs	r0, r4
100043f8:	bd10      	pop	{r4, pc}
100043fa:	46c0      	nop			; (mov r8, r8)
100043fc:	1002b48c 	.word	0x1002b48c

10004400 <_ZN26wordclock_faceplate_germanD0Ev>:
10004400:	b510      	push	{r4, lr}
10004402:	0004      	movs	r4, r0
10004404:	f7ff fff0 	bl	100043e8 <_ZN26wordclock_faceplate_germanD1Ev>
10004408:	2104      	movs	r1, #4
1000440a:	0020      	movs	r0, r4
1000440c:	f01b ff34 	bl	10020278 <_ZdlPvj>
10004410:	0020      	movs	r0, r4
10004412:	bd10      	pop	{r4, pc}

10004414 <_ZN26wordclock_faceplate_germanC1Ev>:
10004414:	b510      	push	{r4, lr}
10004416:	0004      	movs	r4, r0
10004418:	f008 ff24 	bl	1000d264 <_ZN19wordclock_faceplateC1Ev>
1000441c:	4b02      	ldr	r3, [pc, #8]	; (10004428 <_ZN26wordclock_faceplate_germanC1Ev+0x14>)
1000441e:	3308      	adds	r3, #8
10004420:	6023      	str	r3, [r4, #0]
10004422:	0020      	movs	r0, r4
10004424:	bd10      	pop	{r4, pc}
10004426:	46c0      	nop			; (mov r8, r8)
10004428:	1002b48c 	.word	0x1002b48c

1000442c <_ZNSt12_Vector_baseISt5tupleIJiiEESaIS1_EED1Ev>:
1000442c:	b510      	push	{r4, lr}
1000442e:	0004      	movs	r4, r0
10004430:	6800      	ldr	r0, [r0, #0]
10004432:	68a3      	ldr	r3, [r4, #8]
10004434:	1a19      	subs	r1, r3, r0
10004436:	2800      	cmp	r0, #0
10004438:	d001      	beq.n	1000443e <_ZNSt12_Vector_baseISt5tupleIJiiEESaIS1_EED1Ev+0x12>
1000443a:	f01b ff1d 	bl	10020278 <_ZdlPvj>
1000443e:	0020      	movs	r0, r4
10004440:	bd10      	pop	{r4, pc}
	...

10004444 <_ZN26wordclock_faceplate_german8set_wordERN7PicoLed17PicoLedControllerENS_11WORDS_INDEXEi>:
10004444:	b5f0      	push	{r4, r5, r6, r7, lr}
10004446:	46d6      	mov	lr, sl
10004448:	464f      	mov	r7, r9
1000444a:	4646      	mov	r6, r8
1000444c:	b5c0      	push	{r6, r7, lr}
1000444e:	b086      	sub	sp, #24
10004450:	4682      	mov	sl, r0
10004452:	4689      	mov	r9, r1
10004454:	001f      	movs	r7, r3
10004456:	1e53      	subs	r3, r2, #1
10004458:	2b03      	cmp	r3, #3
1000445a:	d908      	bls.n	1000446e <_ZN26wordclock_faceplate_german8set_wordERN7PicoLed17PicoLedControllerENS_11WORDS_INDEXEi+0x2a>
1000445c:	1fd3      	subs	r3, r2, #7
1000445e:	2b0b      	cmp	r3, #11
10004460:	d926      	bls.n	100044b0 <_ZN26wordclock_faceplate_german8set_wordERN7PicoLed17PicoLedControllerENS_11WORDS_INDEXEi+0x6c>
10004462:	3b0e      	subs	r3, #14
10004464:	2b0c      	cmp	r3, #12
10004466:	d926      	bls.n	100044b6 <_ZN26wordclock_faceplate_german8set_wordERN7PicoLed17PicoLedControllerENS_11WORDS_INDEXEi+0x72>
10004468:	2303      	movs	r3, #3
1000446a:	4698      	mov	r8, r3
1000446c:	e001      	b.n	10004472 <_ZN26wordclock_faceplate_german8set_wordERN7PicoLed17PicoLedControllerENS_11WORDS_INDEXEi+0x2e>
1000446e:	2302      	movs	r3, #2
10004470:	4698      	mov	r8, r3
10004472:	0053      	lsls	r3, r2, #1
10004474:	189a      	adds	r2, r3, r2
10004476:	0092      	lsls	r2, r2, #2
10004478:	4d22      	ldr	r5, [pc, #136]	; (10004504 <_ZN26wordclock_faceplate_german8set_wordERN7PicoLed17PicoLedControllerENS_11WORDS_INDEXEi+0xc0>)
1000447a:	1955      	adds	r5, r2, r5
1000447c:	686b      	ldr	r3, [r5, #4]
1000447e:	682a      	ldr	r2, [r5, #0]
10004480:	1a9e      	subs	r6, r3, r2
10004482:	10f6      	asrs	r6, r6, #3
10004484:	2300      	movs	r3, #0
10004486:	9303      	str	r3, [sp, #12]
10004488:	9304      	str	r3, [sp, #16]
1000448a:	9305      	str	r3, [sp, #20]
1000448c:	2e00      	cmp	r6, #0
1000448e:	d017      	beq.n	100044c0 <_ZN26wordclock_faceplate_german8set_wordERN7PicoLed17PicoLedControllerENS_11WORDS_INDEXEi+0x7c>
10004490:	2380      	movs	r3, #128	; 0x80
10004492:	055b      	lsls	r3, r3, #21
10004494:	429e      	cmp	r6, r3
10004496:	d211      	bcs.n	100044bc <_ZN26wordclock_faceplate_german8set_wordERN7PicoLed17PicoLedControllerENS_11WORDS_INDEXEi+0x78>
10004498:	00f0      	lsls	r0, r6, #3
1000449a:	f01c fdaf 	bl	10020ffc <_Znwj>
1000449e:	0004      	movs	r4, r0
100044a0:	9403      	str	r4, [sp, #12]
100044a2:	9404      	str	r4, [sp, #16]
100044a4:	00f3      	lsls	r3, r6, #3
100044a6:	18e3      	adds	r3, r4, r3
100044a8:	9305      	str	r3, [sp, #20]
100044aa:	682a      	ldr	r2, [r5, #0]
100044ac:	6869      	ldr	r1, [r5, #4]
100044ae:	e00d      	b.n	100044cc <_ZN26wordclock_faceplate_german8set_wordERN7PicoLed17PicoLedControllerENS_11WORDS_INDEXEi+0x88>
100044b0:	2301      	movs	r3, #1
100044b2:	4698      	mov	r8, r3
100044b4:	e7dd      	b.n	10004472 <_ZN26wordclock_faceplate_german8set_wordERN7PicoLed17PicoLedControllerENS_11WORDS_INDEXEi+0x2e>
100044b6:	2300      	movs	r3, #0
100044b8:	4698      	mov	r8, r3
100044ba:	e7da      	b.n	10004472 <_ZN26wordclock_faceplate_german8set_wordERN7PicoLed17PicoLedControllerENS_11WORDS_INDEXEi+0x2e>
100044bc:	f01d f85e 	bl	1002157c <_ZSt17__throw_bad_allocv>
100044c0:	2400      	movs	r4, #0
100044c2:	e7ed      	b.n	100044a0 <_ZN26wordclock_faceplate_german8set_wordERN7PicoLed17PicoLedControllerENS_11WORDS_INDEXEi+0x5c>
100044c4:	0023      	movs	r3, r4
100044c6:	ca11      	ldmia	r2!, {r0, r4}
100044c8:	c311      	stmia	r3!, {r0, r4}
100044ca:	001c      	movs	r4, r3
100044cc:	428a      	cmp	r2, r1
100044ce:	d1f9      	bne.n	100044c4 <_ZN26wordclock_faceplate_german8set_wordERN7PicoLed17PicoLedControllerENS_11WORDS_INDEXEi+0x80>
100044d0:	9404      	str	r4, [sp, #16]
100044d2:	9700      	str	r7, [sp, #0]
100044d4:	4643      	mov	r3, r8
100044d6:	aa03      	add	r2, sp, #12
100044d8:	4649      	mov	r1, r9
100044da:	4650      	mov	r0, sl
100044dc:	f008 ffd4 	bl	1000d488 <_ZN19wordclock_faceplate8set_ledsERN7PicoLed17PicoLedControllerESt6vectorISt5tupleIJiiEESaIS5_EENS_16WORD_COLOR_CLASSEi>
100044e0:	9803      	ldr	r0, [sp, #12]
100044e2:	9b05      	ldr	r3, [sp, #20]
100044e4:	1a19      	subs	r1, r3, r0
100044e6:	2800      	cmp	r0, #0
100044e8:	d001      	beq.n	100044ee <_ZN26wordclock_faceplate_german8set_wordERN7PicoLed17PicoLedControllerENS_11WORDS_INDEXEi+0xaa>
100044ea:	f01b fec5 	bl	10020278 <_ZdlPvj>
100044ee:	b006      	add	sp, #24
100044f0:	bce0      	pop	{r5, r6, r7}
100044f2:	46ba      	mov	sl, r7
100044f4:	46b1      	mov	r9, r6
100044f6:	46a8      	mov	r8, r5
100044f8:	bdf0      	pop	{r4, r5, r6, r7, pc}
100044fa:	a803      	add	r0, sp, #12
100044fc:	f7ff ff96 	bl	1000442c <_ZNSt12_Vector_baseISt5tupleIJiiEESaIS1_EED1Ev>
10004500:	f01b ff62 	bl	100203c8 <__cxa_end_cleanup>
10004504:	2000273c 	.word	0x2000273c

10004508 <_ZN26wordclock_faceplate_german23display_time_with_wordsERN7PicoLed17PicoLedControllerEiii>:
10004508:	b5f8      	push	{r3, r4, r5, r6, r7, lr}
1000450a:	46ce      	mov	lr, r9
1000450c:	4647      	mov	r7, r8
1000450e:	b580      	push	{r7, lr}
10004510:	0006      	movs	r6, r0
10004512:	000f      	movs	r7, r1
10004514:	0015      	movs	r5, r2
10004516:	001c      	movs	r4, r3
10004518:	9b08      	ldr	r3, [sp, #32]
1000451a:	4698      	mov	r8, r3
1000451c:	2105      	movs	r1, #5
1000451e:	0020      	movs	r0, r4
10004520:	f016 fb56 	bl	1001abd0 <__wrap___aeabi_idiv>
10004524:	4689      	mov	r9, r1
10004526:	2900      	cmp	r1, #0
10004528:	dc06      	bgt.n	10004538 <_ZN26wordclock_faceplate_german23display_time_with_wordsERN7PicoLed17PicoLedControllerEiii+0x30>
1000452a:	4bb8      	ldr	r3, [pc, #736]	; (1000480c <_ZN26wordclock_faceplate_german23display_time_with_wordsERN7PicoLed17PicoLedControllerEiii+0x304>)
1000452c:	7b5b      	ldrb	r3, [r3, #13]
1000452e:	2b00      	cmp	r3, #0
10004530:	d008      	beq.n	10004544 <_ZN26wordclock_faceplate_german23display_time_with_wordsERN7PicoLed17PicoLedControllerEiii+0x3c>
10004532:	4643      	mov	r3, r8
10004534:	07db      	lsls	r3, r3, #31
10004536:	d405      	bmi.n	10004544 <_ZN26wordclock_faceplate_german23display_time_with_wordsERN7PicoLed17PicoLedControllerEiii+0x3c>
10004538:	4643      	mov	r3, r8
1000453a:	220f      	movs	r2, #15
1000453c:	0039      	movs	r1, r7
1000453e:	0030      	movs	r0, r6
10004540:	f7ff ff80 	bl	10004444 <_ZN26wordclock_faceplate_german8set_wordERN7PicoLed17PicoLedControllerENS_11WORDS_INDEXEi>
10004544:	464b      	mov	r3, r9
10004546:	2b01      	cmp	r3, #1
10004548:	dc06      	bgt.n	10004558 <_ZN26wordclock_faceplate_german23display_time_with_wordsERN7PicoLed17PicoLedControllerEiii+0x50>
1000454a:	4bb0      	ldr	r3, [pc, #704]	; (1000480c <_ZN26wordclock_faceplate_german23display_time_with_wordsERN7PicoLed17PicoLedControllerEiii+0x304>)
1000454c:	7b5b      	ldrb	r3, [r3, #13]
1000454e:	2b00      	cmp	r3, #0
10004550:	d008      	beq.n	10004564 <_ZN26wordclock_faceplate_german23display_time_with_wordsERN7PicoLed17PicoLedControllerEiii+0x5c>
10004552:	4643      	mov	r3, r8
10004554:	07db      	lsls	r3, r3, #31
10004556:	d405      	bmi.n	10004564 <_ZN26wordclock_faceplate_german23display_time_with_wordsERN7PicoLed17PicoLedControllerEiii+0x5c>
10004558:	4643      	mov	r3, r8
1000455a:	2210      	movs	r2, #16
1000455c:	0039      	movs	r1, r7
1000455e:	0030      	movs	r0, r6
10004560:	f7ff ff70 	bl	10004444 <_ZN26wordclock_faceplate_german8set_wordERN7PicoLed17PicoLedControllerENS_11WORDS_INDEXEi>
10004564:	464b      	mov	r3, r9
10004566:	2b02      	cmp	r3, #2
10004568:	dc06      	bgt.n	10004578 <_ZN26wordclock_faceplate_german23display_time_with_wordsERN7PicoLed17PicoLedControllerEiii+0x70>
1000456a:	4ba8      	ldr	r3, [pc, #672]	; (1000480c <_ZN26wordclock_faceplate_german23display_time_with_wordsERN7PicoLed17PicoLedControllerEiii+0x304>)
1000456c:	7b5b      	ldrb	r3, [r3, #13]
1000456e:	2b00      	cmp	r3, #0
10004570:	d008      	beq.n	10004584 <_ZN26wordclock_faceplate_german23display_time_with_wordsERN7PicoLed17PicoLedControllerEiii+0x7c>
10004572:	4643      	mov	r3, r8
10004574:	07db      	lsls	r3, r3, #31
10004576:	d405      	bmi.n	10004584 <_ZN26wordclock_faceplate_german23display_time_with_wordsERN7PicoLed17PicoLedControllerEiii+0x7c>
10004578:	4643      	mov	r3, r8
1000457a:	2211      	movs	r2, #17
1000457c:	0039      	movs	r1, r7
1000457e:	0030      	movs	r0, r6
10004580:	f7ff ff60 	bl	10004444 <_ZN26wordclock_faceplate_german8set_wordERN7PicoLed17PicoLedControllerENS_11WORDS_INDEXEi>
10004584:	464b      	mov	r3, r9
10004586:	2b03      	cmp	r3, #3
10004588:	dc06      	bgt.n	10004598 <_ZN26wordclock_faceplate_german23display_time_with_wordsERN7PicoLed17PicoLedControllerEiii+0x90>
1000458a:	4ba0      	ldr	r3, [pc, #640]	; (1000480c <_ZN26wordclock_faceplate_german23display_time_with_wordsERN7PicoLed17PicoLedControllerEiii+0x304>)
1000458c:	7b5b      	ldrb	r3, [r3, #13]
1000458e:	2b00      	cmp	r3, #0
10004590:	d008      	beq.n	100045a4 <_ZN26wordclock_faceplate_german23display_time_with_wordsERN7PicoLed17PicoLedControllerEiii+0x9c>
10004592:	4643      	mov	r3, r8
10004594:	07db      	lsls	r3, r3, #31
10004596:	d405      	bmi.n	100045a4 <_ZN26wordclock_faceplate_german23display_time_with_wordsERN7PicoLed17PicoLedControllerEiii+0x9c>
10004598:	4643      	mov	r3, r8
1000459a:	2212      	movs	r2, #18
1000459c:	0039      	movs	r1, r7
1000459e:	0030      	movs	r0, r6
100045a0:	f7ff ff50 	bl	10004444 <_ZN26wordclock_faceplate_german8set_wordERN7PicoLed17PicoLedControllerENS_11WORDS_INDEXEi>
100045a4:	4643      	mov	r3, r8
100045a6:	2201      	movs	r2, #1
100045a8:	0039      	movs	r1, r7
100045aa:	0030      	movs	r0, r6
100045ac:	f7ff ff4a 	bl	10004444 <_ZN26wordclock_faceplate_german8set_wordERN7PicoLed17PicoLedControllerENS_11WORDS_INDEXEi>
100045b0:	4643      	mov	r3, r8
100045b2:	2202      	movs	r2, #2
100045b4:	0039      	movs	r1, r7
100045b6:	0030      	movs	r0, r6
100045b8:	f7ff ff44 	bl	10004444 <_ZN26wordclock_faceplate_german8set_wordERN7PicoLed17PicoLedControllerENS_11WORDS_INDEXEi>
100045bc:	2c18      	cmp	r4, #24
100045be:	dd04      	ble.n	100045ca <_ZN26wordclock_faceplate_german23display_time_with_wordsERN7PicoLed17PicoLedControllerEiii+0xc2>
100045c0:	1c68      	adds	r0, r5, #1
100045c2:	2118      	movs	r1, #24
100045c4:	f016 fb04 	bl	1001abd0 <__wrap___aeabi_idiv>
100045c8:	000d      	movs	r5, r1
100045ca:	2d00      	cmp	r5, #0
100045cc:	d034      	beq.n	10004638 <_ZN26wordclock_faceplate_german23display_time_with_wordsERN7PicoLed17PicoLedControllerEiii+0x130>
100045ce:	2d0c      	cmp	r5, #12
100045d0:	d032      	beq.n	10004638 <_ZN26wordclock_faceplate_german23display_time_with_wordsERN7PicoLed17PicoLedControllerEiii+0x130>
100045d2:	2d01      	cmp	r5, #1
100045d4:	d051      	beq.n	1000467a <_ZN26wordclock_faceplate_german23display_time_with_wordsERN7PicoLed17PicoLedControllerEiii+0x172>
100045d6:	2d0d      	cmp	r5, #13
100045d8:	d04f      	beq.n	1000467a <_ZN26wordclock_faceplate_german23display_time_with_wordsERN7PicoLed17PicoLedControllerEiii+0x172>
100045da:	2d02      	cmp	r5, #2
100045dc:	d05d      	beq.n	1000469a <_ZN26wordclock_faceplate_german23display_time_with_wordsERN7PicoLed17PicoLedControllerEiii+0x192>
100045de:	2d0e      	cmp	r5, #14
100045e0:	d05b      	beq.n	1000469a <_ZN26wordclock_faceplate_german23display_time_with_wordsERN7PicoLed17PicoLedControllerEiii+0x192>
100045e2:	2d03      	cmp	r5, #3
100045e4:	d060      	beq.n	100046a8 <_ZN26wordclock_faceplate_german23display_time_with_wordsERN7PicoLed17PicoLedControllerEiii+0x1a0>
100045e6:	2d0f      	cmp	r5, #15
100045e8:	d05e      	beq.n	100046a8 <_ZN26wordclock_faceplate_german23display_time_with_wordsERN7PicoLed17PicoLedControllerEiii+0x1a0>
100045ea:	2d04      	cmp	r5, #4
100045ec:	d063      	beq.n	100046b6 <_ZN26wordclock_faceplate_german23display_time_with_wordsERN7PicoLed17PicoLedControllerEiii+0x1ae>
100045ee:	2d10      	cmp	r5, #16
100045f0:	d061      	beq.n	100046b6 <_ZN26wordclock_faceplate_german23display_time_with_wordsERN7PicoLed17PicoLedControllerEiii+0x1ae>
100045f2:	2d05      	cmp	r5, #5
100045f4:	d066      	beq.n	100046c4 <_ZN26wordclock_faceplate_german23display_time_with_wordsERN7PicoLed17PicoLedControllerEiii+0x1bc>
100045f6:	2d11      	cmp	r5, #17
100045f8:	d064      	beq.n	100046c4 <_ZN26wordclock_faceplate_german23display_time_with_wordsERN7PicoLed17PicoLedControllerEiii+0x1bc>
100045fa:	2d06      	cmp	r5, #6
100045fc:	d069      	beq.n	100046d2 <_ZN26wordclock_faceplate_german23display_time_with_wordsERN7PicoLed17PicoLedControllerEiii+0x1ca>
100045fe:	2d12      	cmp	r5, #18
10004600:	d067      	beq.n	100046d2 <_ZN26wordclock_faceplate_german23display_time_with_wordsERN7PicoLed17PicoLedControllerEiii+0x1ca>
10004602:	2d07      	cmp	r5, #7
10004604:	d06c      	beq.n	100046e0 <_ZN26wordclock_faceplate_german23display_time_with_wordsERN7PicoLed17PicoLedControllerEiii+0x1d8>
10004606:	2d13      	cmp	r5, #19
10004608:	d06a      	beq.n	100046e0 <_ZN26wordclock_faceplate_german23display_time_with_wordsERN7PicoLed17PicoLedControllerEiii+0x1d8>
1000460a:	2d08      	cmp	r5, #8
1000460c:	d06f      	beq.n	100046ee <_ZN26wordclock_faceplate_german23display_time_with_wordsERN7PicoLed17PicoLedControllerEiii+0x1e6>
1000460e:	2d14      	cmp	r5, #20
10004610:	d06d      	beq.n	100046ee <_ZN26wordclock_faceplate_german23display_time_with_wordsERN7PicoLed17PicoLedControllerEiii+0x1e6>
10004612:	2d09      	cmp	r5, #9
10004614:	d072      	beq.n	100046fc <_ZN26wordclock_faceplate_german23display_time_with_wordsERN7PicoLed17PicoLedControllerEiii+0x1f4>
10004616:	2d15      	cmp	r5, #21
10004618:	d070      	beq.n	100046fc <_ZN26wordclock_faceplate_german23display_time_with_wordsERN7PicoLed17PicoLedControllerEiii+0x1f4>
1000461a:	2d0a      	cmp	r5, #10
1000461c:	d075      	beq.n	1000470a <_ZN26wordclock_faceplate_german23display_time_with_wordsERN7PicoLed17PicoLedControllerEiii+0x202>
1000461e:	2d16      	cmp	r5, #22
10004620:	d073      	beq.n	1000470a <_ZN26wordclock_faceplate_german23display_time_with_wordsERN7PicoLed17PicoLedControllerEiii+0x202>
10004622:	2d0b      	cmp	r5, #11
10004624:	d001      	beq.n	1000462a <_ZN26wordclock_faceplate_german23display_time_with_wordsERN7PicoLed17PicoLedControllerEiii+0x122>
10004626:	2d17      	cmp	r5, #23
10004628:	d10c      	bne.n	10004644 <_ZN26wordclock_faceplate_german23display_time_with_wordsERN7PicoLed17PicoLedControllerEiii+0x13c>
1000462a:	4643      	mov	r3, r8
1000462c:	221f      	movs	r2, #31
1000462e:	0039      	movs	r1, r7
10004630:	0030      	movs	r0, r6
10004632:	f7ff ff07 	bl	10004444 <_ZN26wordclock_faceplate_german8set_wordERN7PicoLed17PicoLedControllerENS_11WORDS_INDEXEi>
10004636:	e005      	b.n	10004644 <_ZN26wordclock_faceplate_german23display_time_with_wordsERN7PicoLed17PicoLedControllerEiii+0x13c>
10004638:	4643      	mov	r3, r8
1000463a:	2220      	movs	r2, #32
1000463c:	0039      	movs	r1, r7
1000463e:	0030      	movs	r0, r6
10004640:	f7ff ff00 	bl	10004444 <_ZN26wordclock_faceplate_german8set_wordERN7PicoLed17PicoLedControllerENS_11WORDS_INDEXEi>
10004644:	1f65      	subs	r5, r4, #5
10004646:	2d13      	cmp	r5, #19
10004648:	d966      	bls.n	10004718 <_ZN26wordclock_faceplate_german23display_time_with_wordsERN7PicoLed17PicoLedControllerEiii+0x210>
1000464a:	0023      	movs	r3, r4
1000464c:	3b23      	subs	r3, #35	; 0x23
1000464e:	2b04      	cmp	r3, #4
10004650:	d800      	bhi.n	10004654 <_ZN26wordclock_faceplate_german23display_time_with_wordsERN7PicoLed17PicoLedControllerEiii+0x14c>
10004652:	e09a      	b.n	1000478a <_ZN26wordclock_faceplate_german23display_time_with_wordsERN7PicoLed17PicoLedControllerEiii+0x282>
10004654:	0023      	movs	r3, r4
10004656:	3b19      	subs	r3, #25
10004658:	2b04      	cmp	r3, #4
1000465a:	d800      	bhi.n	1000465e <_ZN26wordclock_faceplate_german23display_time_with_wordsERN7PicoLed17PicoLedControllerEiii+0x156>
1000465c:	e09c      	b.n	10004798 <_ZN26wordclock_faceplate_german23display_time_with_wordsERN7PicoLed17PicoLedControllerEiii+0x290>
1000465e:	0023      	movs	r3, r4
10004660:	3b28      	subs	r3, #40	; 0x28
10004662:	2b13      	cmp	r3, #19
10004664:	d800      	bhi.n	10004668 <_ZN26wordclock_faceplate_german23display_time_with_wordsERN7PicoLed17PicoLedControllerEiii+0x160>
10004666:	e09e      	b.n	100047a6 <_ZN26wordclock_faceplate_german23display_time_with_wordsERN7PicoLed17PicoLedControllerEiii+0x29e>
10004668:	2c04      	cmp	r4, #4
1000466a:	d85b      	bhi.n	10004724 <_ZN26wordclock_faceplate_german23display_time_with_wordsERN7PicoLed17PicoLedControllerEiii+0x21c>
1000466c:	4643      	mov	r3, r8
1000466e:	2203      	movs	r2, #3
10004670:	0039      	movs	r1, r7
10004672:	0030      	movs	r0, r6
10004674:	f7ff fee6 	bl	10004444 <_ZN26wordclock_faceplate_german8set_wordERN7PicoLed17PicoLedControllerENS_11WORDS_INDEXEi>
10004678:	e054      	b.n	10004724 <_ZN26wordclock_faceplate_german23display_time_with_wordsERN7PicoLed17PicoLedControllerEiii+0x21c>
1000467a:	2c04      	cmp	r4, #4
1000467c:	d806      	bhi.n	1000468c <_ZN26wordclock_faceplate_german23display_time_with_wordsERN7PicoLed17PicoLedControllerEiii+0x184>
1000467e:	4643      	mov	r3, r8
10004680:	2221      	movs	r2, #33	; 0x21
10004682:	0039      	movs	r1, r7
10004684:	0030      	movs	r0, r6
10004686:	f7ff fedd 	bl	10004444 <_ZN26wordclock_faceplate_german8set_wordERN7PicoLed17PicoLedControllerENS_11WORDS_INDEXEi>
1000468a:	e7db      	b.n	10004644 <_ZN26wordclock_faceplate_german23display_time_with_wordsERN7PicoLed17PicoLedControllerEiii+0x13c>
1000468c:	4643      	mov	r3, r8
1000468e:	2215      	movs	r2, #21
10004690:	0039      	movs	r1, r7
10004692:	0030      	movs	r0, r6
10004694:	f7ff fed6 	bl	10004444 <_ZN26wordclock_faceplate_german8set_wordERN7PicoLed17PicoLedControllerENS_11WORDS_INDEXEi>
10004698:	e7d4      	b.n	10004644 <_ZN26wordclock_faceplate_german23display_time_with_wordsERN7PicoLed17PicoLedControllerEiii+0x13c>
1000469a:	4643      	mov	r3, r8
1000469c:	2216      	movs	r2, #22
1000469e:	0039      	movs	r1, r7
100046a0:	0030      	movs	r0, r6
100046a2:	f7ff fecf 	bl	10004444 <_ZN26wordclock_faceplate_german8set_wordERN7PicoLed17PicoLedControllerENS_11WORDS_INDEXEi>
100046a6:	e7cd      	b.n	10004644 <_ZN26wordclock_faceplate_german23display_time_with_wordsERN7PicoLed17PicoLedControllerEiii+0x13c>
100046a8:	4643      	mov	r3, r8
100046aa:	2217      	movs	r2, #23
100046ac:	0039      	movs	r1, r7
100046ae:	0030      	movs	r0, r6
100046b0:	f7ff fec8 	bl	10004444 <_ZN26wordclock_faceplate_german8set_wordERN7PicoLed17PicoLedControllerENS_11WORDS_INDEXEi>
100046b4:	e7c6      	b.n	10004644 <_ZN26wordclock_faceplate_german23display_time_with_wordsERN7PicoLed17PicoLedControllerEiii+0x13c>
100046b6:	4643      	mov	r3, r8
100046b8:	2218      	movs	r2, #24
100046ba:	0039      	movs	r1, r7
100046bc:	0030      	movs	r0, r6
100046be:	f7ff fec1 	bl	10004444 <_ZN26wordclock_faceplate_german8set_wordERN7PicoLed17PicoLedControllerENS_11WORDS_INDEXEi>
100046c2:	e7bf      	b.n	10004644 <_ZN26wordclock_faceplate_german23display_time_with_wordsERN7PicoLed17PicoLedControllerEiii+0x13c>
100046c4:	4643      	mov	r3, r8
100046c6:	2219      	movs	r2, #25
100046c8:	0039      	movs	r1, r7
100046ca:	0030      	movs	r0, r6
100046cc:	f7ff feba 	bl	10004444 <_ZN26wordclock_faceplate_german8set_wordERN7PicoLed17PicoLedControllerENS_11WORDS_INDEXEi>
100046d0:	e7b8      	b.n	10004644 <_ZN26wordclock_faceplate_german23display_time_with_wordsERN7PicoLed17PicoLedControllerEiii+0x13c>
100046d2:	4643      	mov	r3, r8
100046d4:	221a      	movs	r2, #26
100046d6:	0039      	movs	r1, r7
100046d8:	0030      	movs	r0, r6
100046da:	f7ff feb3 	bl	10004444 <_ZN26wordclock_faceplate_german8set_wordERN7PicoLed17PicoLedControllerENS_11WORDS_INDEXEi>
100046de:	e7b1      	b.n	10004644 <_ZN26wordclock_faceplate_german23display_time_with_wordsERN7PicoLed17PicoLedControllerEiii+0x13c>
100046e0:	4643      	mov	r3, r8
100046e2:	221b      	movs	r2, #27
100046e4:	0039      	movs	r1, r7
100046e6:	0030      	movs	r0, r6
100046e8:	f7ff feac 	bl	10004444 <_ZN26wordclock_faceplate_german8set_wordERN7PicoLed17PicoLedControllerENS_11WORDS_INDEXEi>
100046ec:	e7aa      	b.n	10004644 <_ZN26wordclock_faceplate_german23display_time_with_wordsERN7PicoLed17PicoLedControllerEiii+0x13c>
100046ee:	4643      	mov	r3, r8
100046f0:	221c      	movs	r2, #28
100046f2:	0039      	movs	r1, r7
100046f4:	0030      	movs	r0, r6
100046f6:	f7ff fea5 	bl	10004444 <_ZN26wordclock_faceplate_german8set_wordERN7PicoLed17PicoLedControllerENS_11WORDS_INDEXEi>
100046fa:	e7a3      	b.n	10004644 <_ZN26wordclock_faceplate_german23display_time_with_wordsERN7PicoLed17PicoLedControllerEiii+0x13c>
100046fc:	4643      	mov	r3, r8
100046fe:	221d      	movs	r2, #29
10004700:	0039      	movs	r1, r7
10004702:	0030      	movs	r0, r6
10004704:	f7ff fe9e 	bl	10004444 <_ZN26wordclock_faceplate_german8set_wordERN7PicoLed17PicoLedControllerENS_11WORDS_INDEXEi>
10004708:	e79c      	b.n	10004644 <_ZN26wordclock_faceplate_german23display_time_with_wordsERN7PicoLed17PicoLedControllerEiii+0x13c>
1000470a:	4643      	mov	r3, r8
1000470c:	221e      	movs	r2, #30
1000470e:	0039      	movs	r1, r7
10004710:	0030      	movs	r0, r6
10004712:	f7ff fe97 	bl	10004444 <_ZN26wordclock_faceplate_german8set_wordERN7PicoLed17PicoLedControllerENS_11WORDS_INDEXEi>
10004716:	e795      	b.n	10004644 <_ZN26wordclock_faceplate_german23display_time_with_wordsERN7PicoLed17PicoLedControllerEiii+0x13c>
10004718:	4643      	mov	r3, r8
1000471a:	220c      	movs	r2, #12
1000471c:	0039      	movs	r1, r7
1000471e:	0030      	movs	r0, r6
10004720:	f7ff fe90 	bl	10004444 <_ZN26wordclock_faceplate_german8set_wordERN7PicoLed17PicoLedControllerENS_11WORDS_INDEXEi>
10004724:	2d04      	cmp	r5, #4
10004726:	d945      	bls.n	100047b4 <_ZN26wordclock_faceplate_german23display_time_with_wordsERN7PicoLed17PicoLedControllerEiii+0x2ac>
10004728:	0023      	movs	r3, r4
1000472a:	3b0a      	subs	r3, #10
1000472c:	2b04      	cmp	r3, #4
1000472e:	d94b      	bls.n	100047c8 <_ZN26wordclock_faceplate_german23display_time_with_wordsERN7PicoLed17PicoLedControllerEiii+0x2c0>
10004730:	0023      	movs	r3, r4
10004732:	3b0f      	subs	r3, #15
10004734:	2b04      	cmp	r3, #4
10004736:	d94e      	bls.n	100047d6 <_ZN26wordclock_faceplate_german23display_time_with_wordsERN7PicoLed17PicoLedControllerEiii+0x2ce>
10004738:	0023      	movs	r3, r4
1000473a:	3b14      	subs	r3, #20
1000473c:	2b04      	cmp	r3, #4
1000473e:	d951      	bls.n	100047e4 <_ZN26wordclock_faceplate_german23display_time_with_wordsERN7PicoLed17PicoLedControllerEiii+0x2dc>
10004740:	0023      	movs	r3, r4
10004742:	3b19      	subs	r3, #25
10004744:	2b04      	cmp	r3, #4
10004746:	d954      	bls.n	100047f2 <_ZN26wordclock_faceplate_german23display_time_with_wordsERN7PicoLed17PicoLedControllerEiii+0x2ea>
10004748:	0023      	movs	r3, r4
1000474a:	3b1e      	subs	r3, #30
1000474c:	2b04      	cmp	r3, #4
1000474e:	d95f      	bls.n	10004810 <_ZN26wordclock_faceplate_german23display_time_with_wordsERN7PicoLed17PicoLedControllerEiii+0x308>
10004750:	0023      	movs	r3, r4
10004752:	3b23      	subs	r3, #35	; 0x23
10004754:	2b04      	cmp	r3, #4
10004756:	d962      	bls.n	1000481e <_ZN26wordclock_faceplate_german23display_time_with_wordsERN7PicoLed17PicoLedControllerEiii+0x316>
10004758:	0023      	movs	r3, r4
1000475a:	3b28      	subs	r3, #40	; 0x28
1000475c:	2b04      	cmp	r3, #4
1000475e:	d800      	bhi.n	10004762 <_ZN26wordclock_faceplate_german23display_time_with_wordsERN7PicoLed17PicoLedControllerEiii+0x25a>
10004760:	e06a      	b.n	10004838 <_ZN26wordclock_faceplate_german23display_time_with_wordsERN7PicoLed17PicoLedControllerEiii+0x330>
10004762:	0023      	movs	r3, r4
10004764:	3b2d      	subs	r3, #45	; 0x2d
10004766:	2b04      	cmp	r3, #4
10004768:	d800      	bhi.n	1000476c <_ZN26wordclock_faceplate_german23display_time_with_wordsERN7PicoLed17PicoLedControllerEiii+0x264>
1000476a:	e06c      	b.n	10004846 <_ZN26wordclock_faceplate_german23display_time_with_wordsERN7PicoLed17PicoLedControllerEiii+0x33e>
1000476c:	0023      	movs	r3, r4
1000476e:	3b32      	subs	r3, #50	; 0x32
10004770:	2b04      	cmp	r3, #4
10004772:	d800      	bhi.n	10004776 <_ZN26wordclock_faceplate_german23display_time_with_wordsERN7PicoLed17PicoLedControllerEiii+0x26e>
10004774:	e06e      	b.n	10004854 <_ZN26wordclock_faceplate_german23display_time_with_wordsERN7PicoLed17PicoLedControllerEiii+0x34c>
10004776:	3c37      	subs	r4, #55	; 0x37
10004778:	2c04      	cmp	r4, #4
1000477a:	d821      	bhi.n	100047c0 <_ZN26wordclock_faceplate_german23display_time_with_wordsERN7PicoLed17PicoLedControllerEiii+0x2b8>
1000477c:	4643      	mov	r3, r8
1000477e:	2207      	movs	r2, #7
10004780:	0039      	movs	r1, r7
10004782:	0030      	movs	r0, r6
10004784:	f7ff fe5e 	bl	10004444 <_ZN26wordclock_faceplate_german8set_wordERN7PicoLed17PicoLedControllerENS_11WORDS_INDEXEi>
10004788:	e01a      	b.n	100047c0 <_ZN26wordclock_faceplate_german23display_time_with_wordsERN7PicoLed17PicoLedControllerEiii+0x2b8>
1000478a:	4643      	mov	r3, r8
1000478c:	220c      	movs	r2, #12
1000478e:	0039      	movs	r1, r7
10004790:	0030      	movs	r0, r6
10004792:	f7ff fe57 	bl	10004444 <_ZN26wordclock_faceplate_german8set_wordERN7PicoLed17PicoLedControllerENS_11WORDS_INDEXEi>
10004796:	e7c5      	b.n	10004724 <_ZN26wordclock_faceplate_german23display_time_with_wordsERN7PicoLed17PicoLedControllerEiii+0x21c>
10004798:	4643      	mov	r3, r8
1000479a:	220b      	movs	r2, #11
1000479c:	0039      	movs	r1, r7
1000479e:	0030      	movs	r0, r6
100047a0:	f7ff fe50 	bl	10004444 <_ZN26wordclock_faceplate_german8set_wordERN7PicoLed17PicoLedControllerENS_11WORDS_INDEXEi>
100047a4:	e7be      	b.n	10004724 <_ZN26wordclock_faceplate_german23display_time_with_wordsERN7PicoLed17PicoLedControllerEiii+0x21c>
100047a6:	4643      	mov	r3, r8
100047a8:	220b      	movs	r2, #11
100047aa:	0039      	movs	r1, r7
100047ac:	0030      	movs	r0, r6
100047ae:	f7ff fe49 	bl	10004444 <_ZN26wordclock_faceplate_german8set_wordERN7PicoLed17PicoLedControllerENS_11WORDS_INDEXEi>
100047b2:	e7b7      	b.n	10004724 <_ZN26wordclock_faceplate_german23display_time_with_wordsERN7PicoLed17PicoLedControllerEiii+0x21c>
100047b4:	4643      	mov	r3, r8
100047b6:	2207      	movs	r2, #7
100047b8:	0039      	movs	r1, r7
100047ba:	0030      	movs	r0, r6
100047bc:	f7ff fe42 	bl	10004444 <_ZN26wordclock_faceplate_german8set_wordERN7PicoLed17PicoLedControllerENS_11WORDS_INDEXEi>
100047c0:	bcc0      	pop	{r6, r7}
100047c2:	46b9      	mov	r9, r7
100047c4:	46b0      	mov	r8, r6
100047c6:	bdf8      	pop	{r3, r4, r5, r6, r7, pc}
100047c8:	4643      	mov	r3, r8
100047ca:	2208      	movs	r2, #8
100047cc:	0039      	movs	r1, r7
100047ce:	0030      	movs	r0, r6
100047d0:	f7ff fe38 	bl	10004444 <_ZN26wordclock_faceplate_german8set_wordERN7PicoLed17PicoLedControllerENS_11WORDS_INDEXEi>
100047d4:	e7f4      	b.n	100047c0 <_ZN26wordclock_faceplate_german23display_time_with_wordsERN7PicoLed17PicoLedControllerEiii+0x2b8>
100047d6:	4643      	mov	r3, r8
100047d8:	220a      	movs	r2, #10
100047da:	0039      	movs	r1, r7
100047dc:	0030      	movs	r0, r6
100047de:	f7ff fe31 	bl	10004444 <_ZN26wordclock_faceplate_german8set_wordERN7PicoLed17PicoLedControllerENS_11WORDS_INDEXEi>
100047e2:	e7ed      	b.n	100047c0 <_ZN26wordclock_faceplate_german23display_time_with_wordsERN7PicoLed17PicoLedControllerEiii+0x2b8>
100047e4:	4643      	mov	r3, r8
100047e6:	2209      	movs	r2, #9
100047e8:	0039      	movs	r1, r7
100047ea:	0030      	movs	r0, r6
100047ec:	f7ff fe2a 	bl	10004444 <_ZN26wordclock_faceplate_german8set_wordERN7PicoLed17PicoLedControllerENS_11WORDS_INDEXEi>
100047f0:	e7e6      	b.n	100047c0 <_ZN26wordclock_faceplate_german23display_time_with_wordsERN7PicoLed17PicoLedControllerEiii+0x2b8>
100047f2:	4643      	mov	r3, r8
100047f4:	2207      	movs	r2, #7
100047f6:	0039      	movs	r1, r7
100047f8:	0030      	movs	r0, r6
100047fa:	f7ff fe23 	bl	10004444 <_ZN26wordclock_faceplate_german8set_wordERN7PicoLed17PicoLedControllerENS_11WORDS_INDEXEi>
100047fe:	4643      	mov	r3, r8
10004800:	220d      	movs	r2, #13
10004802:	0039      	movs	r1, r7
10004804:	0030      	movs	r0, r6
10004806:	f7ff fe1d 	bl	10004444 <_ZN26wordclock_faceplate_german8set_wordERN7PicoLed17PicoLedControllerENS_11WORDS_INDEXEi>
1000480a:	e7d9      	b.n	100047c0 <_ZN26wordclock_faceplate_german23display_time_with_wordsERN7PicoLed17PicoLedControllerEiii+0x2b8>
1000480c:	200025f4 	.word	0x200025f4
10004810:	4643      	mov	r3, r8
10004812:	220d      	movs	r2, #13
10004814:	0039      	movs	r1, r7
10004816:	0030      	movs	r0, r6
10004818:	f7ff fe14 	bl	10004444 <_ZN26wordclock_faceplate_german8set_wordERN7PicoLed17PicoLedControllerENS_11WORDS_INDEXEi>
1000481c:	e7d0      	b.n	100047c0 <_ZN26wordclock_faceplate_german23display_time_with_wordsERN7PicoLed17PicoLedControllerEiii+0x2b8>
1000481e:	4643      	mov	r3, r8
10004820:	2207      	movs	r2, #7
10004822:	0039      	movs	r1, r7
10004824:	0030      	movs	r0, r6
10004826:	f7ff fe0d 	bl	10004444 <_ZN26wordclock_faceplate_german8set_wordERN7PicoLed17PicoLedControllerENS_11WORDS_INDEXEi>
1000482a:	4643      	mov	r3, r8
1000482c:	220d      	movs	r2, #13
1000482e:	0039      	movs	r1, r7
10004830:	0030      	movs	r0, r6
10004832:	f7ff fe07 	bl	10004444 <_ZN26wordclock_faceplate_german8set_wordERN7PicoLed17PicoLedControllerENS_11WORDS_INDEXEi>
10004836:	e7c3      	b.n	100047c0 <_ZN26wordclock_faceplate_german23display_time_with_wordsERN7PicoLed17PicoLedControllerEiii+0x2b8>
10004838:	4643      	mov	r3, r8
1000483a:	2209      	movs	r2, #9
1000483c:	0039      	movs	r1, r7
1000483e:	0030      	movs	r0, r6
10004840:	f7ff fe00 	bl	10004444 <_ZN26wordclock_faceplate_german8set_wordERN7PicoLed17PicoLedControllerENS_11WORDS_INDEXEi>
10004844:	e7bc      	b.n	100047c0 <_ZN26wordclock_faceplate_german23display_time_with_wordsERN7PicoLed17PicoLedControllerEiii+0x2b8>
10004846:	4643      	mov	r3, r8
10004848:	220a      	movs	r2, #10
1000484a:	0039      	movs	r1, r7
1000484c:	0030      	movs	r0, r6
1000484e:	f7ff fdf9 	bl	10004444 <_ZN26wordclock_faceplate_german8set_wordERN7PicoLed17PicoLedControllerENS_11WORDS_INDEXEi>
10004852:	e7b5      	b.n	100047c0 <_ZN26wordclock_faceplate_german23display_time_with_wordsERN7PicoLed17PicoLedControllerEiii+0x2b8>
10004854:	4643      	mov	r3, r8
10004856:	2208      	movs	r2, #8
10004858:	0039      	movs	r1, r7
1000485a:	0030      	movs	r0, r6
1000485c:	f7ff fdf2 	bl	10004444 <_ZN26wordclock_faceplate_german8set_wordERN7PicoLed17PicoLedControllerENS_11WORDS_INDEXEi>
10004860:	e7ae      	b.n	100047c0 <_ZN26wordclock_faceplate_german23display_time_with_wordsERN7PicoLed17PicoLedControllerEiii+0x2b8>
10004862:	46c0      	nop			; (mov r8, r8)

10004864 <_ZNSt6vectorISt5tupleIJiiEESaIS1_EEC1ESt16initializer_listIS1_ERKS2_>:
10004864:	b5f0      	push	{r4, r5, r6, r7, lr}
10004866:	b083      	sub	sp, #12
10004868:	0007      	movs	r7, r0
1000486a:	9100      	str	r1, [sp, #0]
1000486c:	9201      	str	r2, [sp, #4]
1000486e:	2300      	movs	r3, #0
10004870:	6003      	str	r3, [r0, #0]
10004872:	6043      	str	r3, [r0, #4]
10004874:	6083      	str	r3, [r0, #8]
10004876:	000c      	movs	r4, r1
10004878:	00d5      	lsls	r5, r2, #3
1000487a:	194e      	adds	r6, r1, r5
1000487c:	10e8      	asrs	r0, r5, #3
1000487e:	4a13      	ldr	r2, [pc, #76]	; (100048cc <_ZNSt6vectorISt5tupleIJiiEESaIS1_EEC1ESt16initializer_listIS1_ERKS2_+0x68>)
10004880:	4295      	cmp	r5, r2
10004882:	d809      	bhi.n	10004898 <_ZNSt6vectorISt5tupleIJiiEESaIS1_EEC1ESt16initializer_listIS1_ERKS2_+0x34>
10004884:	2800      	cmp	r0, #0
10004886:	d011      	beq.n	100048ac <_ZNSt6vectorISt5tupleIJiiEESaIS1_EEC1ESt16initializer_listIS1_ERKS2_+0x48>
10004888:	2280      	movs	r2, #128	; 0x80
1000488a:	0552      	lsls	r2, r2, #21
1000488c:	4290      	cmp	r0, r2
1000488e:	d20b      	bcs.n	100048a8 <_ZNSt6vectorISt5tupleIJiiEESaIS1_EEC1ESt16initializer_listIS1_ERKS2_+0x44>
10004890:	00c0      	lsls	r0, r0, #3
10004892:	f01c fbb3 	bl	10020ffc <_Znwj>
10004896:	e00a      	b.n	100048ae <_ZNSt6vectorISt5tupleIJiiEESaIS1_EEC1ESt16initializer_listIS1_ERKS2_+0x4a>
10004898:	480d      	ldr	r0, [pc, #52]	; (100048d0 <_ZNSt6vectorISt5tupleIJiiEESaIS1_EEC1ESt16initializer_listIS1_ERKS2_+0x6c>)
1000489a:	f01c fe97 	bl	100215cc <_ZSt20__throw_length_errorPKc>
1000489e:	0038      	movs	r0, r7
100048a0:	f7ff fdc4 	bl	1000442c <_ZNSt12_Vector_baseISt5tupleIJiiEESaIS1_EED1Ev>
100048a4:	f01b fd90 	bl	100203c8 <__cxa_end_cleanup>
100048a8:	f01c fe68 	bl	1002157c <_ZSt17__throw_bad_allocv>
100048ac:	2000      	movs	r0, #0
100048ae:	6038      	str	r0, [r7, #0]
100048b0:	1945      	adds	r5, r0, r5
100048b2:	60bd      	str	r5, [r7, #8]
100048b4:	e003      	b.n	100048be <_ZNSt6vectorISt5tupleIJiiEESaIS1_EEC1ESt16initializer_listIS1_ERKS2_+0x5a>
100048b6:	0003      	movs	r3, r0
100048b8:	cc06      	ldmia	r4!, {r1, r2}
100048ba:	c306      	stmia	r3!, {r1, r2}
100048bc:	0018      	movs	r0, r3
100048be:	42a6      	cmp	r6, r4
100048c0:	d1f9      	bne.n	100048b6 <_ZNSt6vectorISt5tupleIJiiEESaIS1_EEC1ESt16initializer_listIS1_ERKS2_+0x52>
100048c2:	6078      	str	r0, [r7, #4]
100048c4:	0038      	movs	r0, r7
100048c6:	b003      	add	sp, #12
100048c8:	bdf0      	pop	{r4, r5, r6, r7, pc}
100048ca:	46c0      	nop			; (mov r8, r8)
100048cc:	7ffffff8 	.word	0x7ffffff8
100048d0:	1002ae58 	.word	0x1002ae58

100048d4 <_Z41__static_initialization_and_destruction_0ii>:
100048d4:	b5f0      	push	{r4, r5, r6, r7, lr}
100048d6:	46ce      	mov	lr, r9
100048d8:	4647      	mov	r7, r8
100048da:	b580      	push	{r7, lr}
100048dc:	4cd4      	ldr	r4, [pc, #848]	; (10004c30 <_Z41__static_initialization_and_destruction_0ii+0x35c>)
100048de:	44a5      	add	sp, r4
100048e0:	0004      	movs	r4, r0
100048e2:	000d      	movs	r5, r1
100048e4:	2801      	cmp	r0, #1
100048e6:	d00c      	beq.n	10004902 <_Z41__static_initialization_and_destruction_0ii+0x2e>
100048e8:	2c00      	cmp	r4, #0
100048ea:	d104      	bne.n	100048f6 <_Z41__static_initialization_and_destruction_0ii+0x22>
100048ec:	4bd1      	ldr	r3, [pc, #836]	; (10004c34 <_Z41__static_initialization_and_destruction_0ii+0x360>)
100048ee:	429d      	cmp	r5, r3
100048f0:	d101      	bne.n	100048f6 <_Z41__static_initialization_and_destruction_0ii+0x22>
100048f2:	f001 fade 	bl	10005eb2 <_Z41__static_initialization_and_destruction_0ii+0x15de>
100048f6:	4bd0      	ldr	r3, [pc, #832]	; (10004c38 <_Z41__static_initialization_and_destruction_0ii+0x364>)
100048f8:	449d      	add	sp, r3
100048fa:	bcc0      	pop	{r6, r7}
100048fc:	46b9      	mov	r9, r7
100048fe:	46b0      	mov	r8, r6
10004900:	bdf0      	pop	{r4, r5, r6, r7, pc}
10004902:	4bcc      	ldr	r3, [pc, #816]	; (10004c34 <_Z41__static_initialization_and_destruction_0ii+0x360>)
10004904:	4299      	cmp	r1, r3
10004906:	d1ef      	bne.n	100048e8 <_Z41__static_initialization_and_destruction_0ii+0x14>
10004908:	4bcc      	ldr	r3, [pc, #816]	; (10004c3c <_Z41__static_initialization_and_destruction_0ii+0x368>)
1000490a:	2200      	movs	r2, #0
1000490c:	711a      	strb	r2, [r3, #4]
1000490e:	609a      	str	r2, [r3, #8]
10004910:	1d19      	adds	r1, r3, #4
10004912:	60d9      	str	r1, [r3, #12]
10004914:	6119      	str	r1, [r3, #16]
10004916:	615a      	str	r2, [r3, #20]
10004918:	4bc9      	ldr	r3, [pc, #804]	; (10004c40 <_Z41__static_initialization_and_destruction_0ii+0x36c>)
1000491a:	681a      	ldr	r2, [r3, #0]
1000491c:	1c56      	adds	r6, r2, #1
1000491e:	601e      	str	r6, [r3, #0]
10004920:	2e01      	cmp	r6, #1
10004922:	d058      	beq.n	100049d6 <_Z41__static_initialization_and_destruction_0ii+0x102>
10004924:	4ac7      	ldr	r2, [pc, #796]	; (10004c44 <_Z41__static_initialization_and_destruction_0ii+0x370>)
10004926:	6813      	ldr	r3, [r2, #0]
10004928:	3301      	adds	r3, #1
1000492a:	6013      	str	r3, [r2, #0]
1000492c:	2b01      	cmp	r3, #1
1000492e:	d101      	bne.n	10004934 <_Z41__static_initialization_and_destruction_0ii+0x60>
10004930:	f000 fd89 	bl	10005446 <_Z41__static_initialization_and_destruction_0ii+0xb72>
10004934:	4ac4      	ldr	r2, [pc, #784]	; (10004c48 <_Z41__static_initialization_and_destruction_0ii+0x374>)
10004936:	6813      	ldr	r3, [r2, #0]
10004938:	3301      	adds	r3, #1
1000493a:	6013      	str	r3, [r2, #0]
1000493c:	2b01      	cmp	r3, #1
1000493e:	d101      	bne.n	10004944 <_Z41__static_initialization_and_destruction_0ii+0x70>
10004940:	f000 fe1c 	bl	1000557c <_Z41__static_initialization_and_destruction_0ii+0xca8>
10004944:	4ac1      	ldr	r2, [pc, #772]	; (10004c4c <_Z41__static_initialization_and_destruction_0ii+0x378>)
10004946:	6813      	ldr	r3, [r2, #0]
10004948:	3301      	adds	r3, #1
1000494a:	6013      	str	r3, [r2, #0]
1000494c:	2b01      	cmp	r3, #1
1000494e:	d101      	bne.n	10004954 <_Z41__static_initialization_and_destruction_0ii+0x80>
10004950:	f000 fe2a 	bl	100055a8 <_Z41__static_initialization_and_destruction_0ii+0xcd4>
10004954:	4abe      	ldr	r2, [pc, #760]	; (10004c50 <_Z41__static_initialization_and_destruction_0ii+0x37c>)
10004956:	6813      	ldr	r3, [r2, #0]
10004958:	3301      	adds	r3, #1
1000495a:	6013      	str	r3, [r2, #0]
1000495c:	2b01      	cmp	r3, #1
1000495e:	d101      	bne.n	10004964 <_Z41__static_initialization_and_destruction_0ii+0x90>
10004960:	f000 fe2b 	bl	100055ba <_Z41__static_initialization_and_destruction_0ii+0xce6>
10004964:	4bbb      	ldr	r3, [pc, #748]	; (10004c54 <_Z41__static_initialization_and_destruction_0ii+0x380>)
10004966:	681a      	ldr	r2, [r3, #0]
10004968:	1c56      	adds	r6, r2, #1
1000496a:	601e      	str	r6, [r3, #0]
1000496c:	2e01      	cmp	r6, #1
1000496e:	d101      	bne.n	10004974 <_Z41__static_initialization_and_destruction_0ii+0xa0>
10004970:	f000 fe2b 	bl	100055ca <_Z41__static_initialization_and_destruction_0ii+0xcf6>
10004974:	4ab8      	ldr	r2, [pc, #736]	; (10004c58 <_Z41__static_initialization_and_destruction_0ii+0x384>)
10004976:	6813      	ldr	r3, [r2, #0]
10004978:	3301      	adds	r3, #1
1000497a:	6013      	str	r3, [r2, #0]
1000497c:	2b01      	cmp	r3, #1
1000497e:	d101      	bne.n	10004984 <_Z41__static_initialization_and_destruction_0ii+0xb0>
10004980:	f000 fe66 	bl	10005650 <_Z41__static_initialization_and_destruction_0ii+0xd7c>
10004984:	4bb5      	ldr	r3, [pc, #724]	; (10004c5c <_Z41__static_initialization_and_destruction_0ii+0x388>)
10004986:	681a      	ldr	r2, [r3, #0]
10004988:	1c56      	adds	r6, r2, #1
1000498a:	601e      	str	r6, [r3, #0]
1000498c:	2e01      	cmp	r6, #1
1000498e:	d1ab      	bne.n	100048e8 <_Z41__static_initialization_and_destruction_0ii+0x14>
10004990:	4fb3      	ldr	r7, [pc, #716]	; (10004c60 <_Z41__static_initialization_and_destruction_0ii+0x38c>)
10004992:	220c      	movs	r2, #12
10004994:	2100      	movs	r1, #0
10004996:	0038      	movs	r0, r7
10004998:	f017 fb54 	bl	1001c044 <__wrap_memset>
1000499c:	2300      	movs	r3, #0
1000499e:	603b      	str	r3, [r7, #0]
100049a0:	607b      	str	r3, [r7, #4]
100049a2:	60bb      	str	r3, [r7, #8]
100049a4:	22cf      	movs	r2, #207	; 0xcf
100049a6:	00d2      	lsls	r2, r2, #3
100049a8:	446a      	add	r2, sp
100049aa:	6013      	str	r3, [r2, #0]
100049ac:	6053      	str	r3, [r2, #4]
100049ae:	2101      	movs	r1, #1
100049b0:	6091      	str	r1, [r2, #8]
100049b2:	60d3      	str	r3, [r2, #12]
100049b4:	0011      	movs	r1, r2
100049b6:	23ce      	movs	r3, #206	; 0xce
100049b8:	00db      	lsls	r3, r3, #3
100049ba:	446b      	add	r3, sp
100049bc:	601a      	str	r2, [r3, #0]
100049be:	2202      	movs	r2, #2
100049c0:	4ba8      	ldr	r3, [pc, #672]	; (10004c64 <_Z41__static_initialization_and_destruction_0ii+0x390>)
100049c2:	446b      	add	r3, sp
100049c4:	601a      	str	r2, [r3, #0]
100049c6:	23d1      	movs	r3, #209	; 0xd1
100049c8:	00db      	lsls	r3, r3, #3
100049ca:	446b      	add	r3, sp
100049cc:	48a6      	ldr	r0, [pc, #664]	; (10004c68 <_Z41__static_initialization_and_destruction_0ii+0x394>)
100049ce:	f7ff ff49 	bl	10004864 <_ZNSt6vectorISt5tupleIJiiEESaIS1_EEC1ESt16initializer_listIS1_ERKS2_>
100049d2:	f000 fe59 	bl	10005688 <_Z41__static_initialization_and_destruction_0ii+0xdb4>
100049d6:	aa35      	add	r2, sp, #212	; 0xd4
100049d8:	49a4      	ldr	r1, [pc, #656]	; (10004c6c <_Z41__static_initialization_and_destruction_0ii+0x398>)
100049da:	a82f      	add	r0, sp, #188	; 0xbc
100049dc:	f7fb fe5a 	bl	10000694 <_ZNSt7__cxx1112basic_stringIcSt11char_traitsIcESaIcEEC1IS3_EEPKcRKS3_>
100049e0:	e010      	b.n	10004a04 <_Z41__static_initialization_and_destruction_0ii+0x130>
100049e2:	260f      	movs	r6, #15
100049e4:	240f      	movs	r4, #15
100049e6:	1ba6      	subs	r6, r4, r6
100049e8:	343d      	adds	r4, #61	; 0x3d
100049ea:	4374      	muls	r4, r6
100049ec:	4ba0      	ldr	r3, [pc, #640]	; (10004c70 <_Z41__static_initialization_and_destruction_0ii+0x39c>)
100049ee:	18e4      	adds	r4, r4, r3
100049f0:	4b9f      	ldr	r3, [pc, #636]	; (10004c70 <_Z41__static_initialization_and_destruction_0ii+0x39c>)
100049f2:	429c      	cmp	r4, r3
100049f4:	d101      	bne.n	100049fa <_Z41__static_initialization_and_destruction_0ii+0x126>
100049f6:	f001 fbd8 	bl	100061aa <_Z41__static_initialization_and_destruction_0ii+0x18d6>
100049fa:	3c4c      	subs	r4, #76	; 0x4c
100049fc:	0020      	movs	r0, r4
100049fe:	f7fb fdaf 	bl	10000560 <_ZNSt11_Tuple_implILj0EJKNSt7__cxx1112basic_stringIcSt11char_traitsIcESaIcEEES6_N14wifi_interface12CMD_DATATYPEEiibSt6vectorIS5_SaIS5_EEEED1Ev>
10004a02:	e7f5      	b.n	100049f0 <_Z41__static_initialization_and_destruction_0ii+0x11c>
10004a04:	aa3c      	add	r2, sp, #240	; 0xf0
10004a06:	4999      	ldr	r1, [pc, #612]	; (10004c6c <_Z41__static_initialization_and_destruction_0ii+0x398>)
10004a08:	a836      	add	r0, sp, #216	; 0xd8
10004a0a:	f7fb fe43 	bl	10000694 <_ZNSt7__cxx1112basic_stringIcSt11char_traitsIcESaIcEEC1IS3_EEPKcRKS3_>
10004a0e:	2700      	movs	r7, #0
10004a10:	973d      	str	r7, [sp, #244]	; 0xf4
10004a12:	2301      	movs	r3, #1
10004a14:	425b      	negs	r3, r3
10004a16:	933e      	str	r3, [sp, #248]	; 0xf8
10004a18:	933f      	str	r3, [sp, #252]	; 0xfc
10004a1a:	466b      	mov	r3, sp
10004a1c:	3304      	adds	r3, #4
10004a1e:	33ff      	adds	r3, #255	; 0xff
10004a20:	701f      	strb	r7, [r3, #0]
10004a22:	220c      	movs	r2, #12
10004a24:	0039      	movs	r1, r7
10004a26:	a841      	add	r0, sp, #260	; 0x104
10004a28:	f017 fb0c 	bl	1001c044 <__wrap_memset>
10004a2c:	9741      	str	r7, [sp, #260]	; 0x104
10004a2e:	9742      	str	r7, [sp, #264]	; 0x108
10004a30:	9743      	str	r7, [sp, #268]	; 0x10c
10004a32:	ab41      	add	r3, sp, #260	; 0x104
10004a34:	9303      	str	r3, [sp, #12]
10004a36:	466b      	mov	r3, sp
10004a38:	3304      	adds	r3, #4
10004a3a:	33ff      	adds	r3, #255	; 0xff
10004a3c:	9302      	str	r3, [sp, #8]
10004a3e:	ab3f      	add	r3, sp, #252	; 0xfc
10004a40:	9301      	str	r3, [sp, #4]
10004a42:	ab3e      	add	r3, sp, #248	; 0xf8
10004a44:	9300      	str	r3, [sp, #0]
10004a46:	ab3d      	add	r3, sp, #244	; 0xf4
10004a48:	aa36      	add	r2, sp, #216	; 0xd8
10004a4a:	a92f      	add	r1, sp, #188	; 0xbc
10004a4c:	4888      	ldr	r0, [pc, #544]	; (10004c70 <_Z41__static_initialization_and_destruction_0ii+0x39c>)
10004a4e:	f7fb ffbd 	bl	100009cc <_ZNSt11_Tuple_implILj0EJKNSt7__cxx1112basic_stringIcSt11char_traitsIcESaIcEEES6_N14wifi_interface12CMD_DATATYPEEiibSt6vectorIS5_SaIS5_EEEEC1ERS6_SD_RKS8_RKiSH_RKbRKSB_>
10004a52:	a841      	add	r0, sp, #260	; 0x104
10004a54:	f7fb fdc7 	bl	100005e6 <_ZNSt6vectorINSt7__cxx1112basic_stringIcSt11char_traitsIcESaIcEEESaIS5_EED1Ev>
10004a58:	a836      	add	r0, sp, #216	; 0xd8
10004a5a:	f01c ffcd 	bl	100219f8 <_ZNSt7__cxx1112basic_stringIcSt11char_traitsIcESaIcEE10_M_disposeEv>
10004a5e:	a82f      	add	r0, sp, #188	; 0xbc
10004a60:	f01c ffca 	bl	100219f8 <_ZNSt7__cxx1112basic_stringIcSt11char_traitsIcESaIcEE10_M_disposeEv>
10004a64:	aa4a      	add	r2, sp, #296	; 0x128
10004a66:	4983      	ldr	r1, [pc, #524]	; (10004c74 <_Z41__static_initialization_and_destruction_0ii+0x3a0>)
10004a68:	a844      	add	r0, sp, #272	; 0x110
10004a6a:	f7fb fe13 	bl	10000694 <_ZNSt7__cxx1112basic_stringIcSt11char_traitsIcESaIcEEC1IS3_EEPKcRKS3_>
10004a6e:	e001      	b.n	10004a74 <_Z41__static_initialization_and_destruction_0ii+0x1a0>
10004a70:	260e      	movs	r6, #14
10004a72:	e7b7      	b.n	100049e4 <_Z41__static_initialization_and_destruction_0ii+0x110>
10004a74:	aa51      	add	r2, sp, #324	; 0x144
10004a76:	4980      	ldr	r1, [pc, #512]	; (10004c78 <_Z41__static_initialization_and_destruction_0ii+0x3a4>)
10004a78:	a84b      	add	r0, sp, #300	; 0x12c
10004a7a:	f7fb fe0b 	bl	10000694 <_ZNSt7__cxx1112basic_stringIcSt11char_traitsIcESaIcEEC1IS3_EEPKcRKS3_>
10004a7e:	2303      	movs	r3, #3
10004a80:	9352      	str	r3, [sp, #328]	; 0x148
10004a82:	3b04      	subs	r3, #4
10004a84:	9353      	str	r3, [sp, #332]	; 0x14c
10004a86:	9354      	str	r3, [sp, #336]	; 0x150
10004a88:	2700      	movs	r7, #0
10004a8a:	2358      	movs	r3, #88	; 0x58
10004a8c:	33ff      	adds	r3, #255	; 0xff
10004a8e:	446b      	add	r3, sp
10004a90:	701f      	strb	r7, [r3, #0]
10004a92:	220c      	movs	r2, #12
10004a94:	0039      	movs	r1, r7
10004a96:	a856      	add	r0, sp, #344	; 0x158
10004a98:	f017 fad4 	bl	1001c044 <__wrap_memset>
10004a9c:	9756      	str	r7, [sp, #344]	; 0x158
10004a9e:	9757      	str	r7, [sp, #348]	; 0x15c
10004aa0:	9758      	str	r7, [sp, #352]	; 0x160
10004aa2:	ab56      	add	r3, sp, #344	; 0x158
10004aa4:	9303      	str	r3, [sp, #12]
10004aa6:	2358      	movs	r3, #88	; 0x58
10004aa8:	33ff      	adds	r3, #255	; 0xff
10004aaa:	446b      	add	r3, sp
10004aac:	9302      	str	r3, [sp, #8]
10004aae:	ab54      	add	r3, sp, #336	; 0x150
10004ab0:	9301      	str	r3, [sp, #4]
10004ab2:	ab53      	add	r3, sp, #332	; 0x14c
10004ab4:	9300      	str	r3, [sp, #0]
10004ab6:	ab52      	add	r3, sp, #328	; 0x148
10004ab8:	aa4b      	add	r2, sp, #300	; 0x12c
10004aba:	a944      	add	r1, sp, #272	; 0x110
10004abc:	486f      	ldr	r0, [pc, #444]	; (10004c7c <_Z41__static_initialization_and_destruction_0ii+0x3a8>)
10004abe:	f7fb ff85 	bl	100009cc <_ZNSt11_Tuple_implILj0EJKNSt7__cxx1112basic_stringIcSt11char_traitsIcESaIcEEES6_N14wifi_interface12CMD_DATATYPEEiibSt6vectorIS5_SaIS5_EEEEC1ERS6_SD_RKS8_RKiSH_RKbRKSB_>
10004ac2:	a856      	add	r0, sp, #344	; 0x158
10004ac4:	f7fb fd8f 	bl	100005e6 <_ZNSt6vectorINSt7__cxx1112basic_stringIcSt11char_traitsIcESaIcEEESaIS5_EED1Ev>
10004ac8:	a84b      	add	r0, sp, #300	; 0x12c
10004aca:	f01c ff95 	bl	100219f8 <_ZNSt7__cxx1112basic_stringIcSt11char_traitsIcESaIcEE10_M_disposeEv>
10004ace:	a844      	add	r0, sp, #272	; 0x110
10004ad0:	f01c ff92 	bl	100219f8 <_ZNSt7__cxx1112basic_stringIcSt11char_traitsIcESaIcEE10_M_disposeEv>
10004ad4:	aa5f      	add	r2, sp, #380	; 0x17c
10004ad6:	496a      	ldr	r1, [pc, #424]	; (10004c80 <_Z41__static_initialization_and_destruction_0ii+0x3ac>)
10004ad8:	a859      	add	r0, sp, #356	; 0x164
10004ada:	f7fb fddb 	bl	10000694 <_ZNSt7__cxx1112basic_stringIcSt11char_traitsIcESaIcEEC1IS3_EEPKcRKS3_>
10004ade:	e001      	b.n	10004ae4 <_Z41__static_initialization_and_destruction_0ii+0x210>
10004ae0:	260d      	movs	r6, #13
10004ae2:	e77f      	b.n	100049e4 <_Z41__static_initialization_and_destruction_0ii+0x110>
10004ae4:	aa66      	add	r2, sp, #408	; 0x198
10004ae6:	4967      	ldr	r1, [pc, #412]	; (10004c84 <_Z41__static_initialization_and_destruction_0ii+0x3b0>)
10004ae8:	a860      	add	r0, sp, #384	; 0x180
10004aea:	f7fb fdd3 	bl	10000694 <_ZNSt7__cxx1112basic_stringIcSt11char_traitsIcESaIcEEC1IS3_EEPKcRKS3_>
10004aee:	2303      	movs	r3, #3
10004af0:	9367      	str	r3, [sp, #412]	; 0x19c
10004af2:	3b04      	subs	r3, #4
10004af4:	9368      	str	r3, [sp, #416]	; 0x1a0
10004af6:	9369      	str	r3, [sp, #420]	; 0x1a4
10004af8:	2700      	movs	r7, #0
10004afa:	23ac      	movs	r3, #172	; 0xac
10004afc:	33ff      	adds	r3, #255	; 0xff
10004afe:	446b      	add	r3, sp
10004b00:	701f      	strb	r7, [r3, #0]
10004b02:	220c      	movs	r2, #12
10004b04:	0039      	movs	r1, r7
10004b06:	a86b      	add	r0, sp, #428	; 0x1ac
10004b08:	f017 fa9c 	bl	1001c044 <__wrap_memset>
10004b0c:	976b      	str	r7, [sp, #428]	; 0x1ac
10004b0e:	976c      	str	r7, [sp, #432]	; 0x1b0
10004b10:	976d      	str	r7, [sp, #436]	; 0x1b4
10004b12:	ab6b      	add	r3, sp, #428	; 0x1ac
10004b14:	9303      	str	r3, [sp, #12]
10004b16:	23ac      	movs	r3, #172	; 0xac
10004b18:	33ff      	adds	r3, #255	; 0xff
10004b1a:	446b      	add	r3, sp
10004b1c:	9302      	str	r3, [sp, #8]
10004b1e:	ab69      	add	r3, sp, #420	; 0x1a4
10004b20:	9301      	str	r3, [sp, #4]
10004b22:	ab68      	add	r3, sp, #416	; 0x1a0
10004b24:	9300      	str	r3, [sp, #0]
10004b26:	ab67      	add	r3, sp, #412	; 0x19c
10004b28:	aa60      	add	r2, sp, #384	; 0x180
10004b2a:	a959      	add	r1, sp, #356	; 0x164
10004b2c:	4856      	ldr	r0, [pc, #344]	; (10004c88 <_Z41__static_initialization_and_destruction_0ii+0x3b4>)
10004b2e:	f7fb ff4d 	bl	100009cc <_ZNSt11_Tuple_implILj0EJKNSt7__cxx1112basic_stringIcSt11char_traitsIcESaIcEEES6_N14wifi_interface12CMD_DATATYPEEiibSt6vectorIS5_SaIS5_EEEEC1ERS6_SD_RKS8_RKiSH_RKbRKSB_>
10004b32:	a86b      	add	r0, sp, #428	; 0x1ac
10004b34:	f7fb fd57 	bl	100005e6 <_ZNSt6vectorINSt7__cxx1112basic_stringIcSt11char_traitsIcESaIcEEESaIS5_EED1Ev>
10004b38:	a860      	add	r0, sp, #384	; 0x180
10004b3a:	f01c ff5d 	bl	100219f8 <_ZNSt7__cxx1112basic_stringIcSt11char_traitsIcESaIcEE10_M_disposeEv>
10004b3e:	a859      	add	r0, sp, #356	; 0x164
10004b40:	f01c ff5a 	bl	100219f8 <_ZNSt7__cxx1112basic_stringIcSt11char_traitsIcESaIcEE10_M_disposeEv>
10004b44:	aa74      	add	r2, sp, #464	; 0x1d0
10004b46:	4951      	ldr	r1, [pc, #324]	; (10004c8c <_Z41__static_initialization_and_destruction_0ii+0x3b8>)
10004b48:	a86e      	add	r0, sp, #440	; 0x1b8
10004b4a:	f7fb fda3 	bl	10000694 <_ZNSt7__cxx1112basic_stringIcSt11char_traitsIcESaIcEEC1IS3_EEPKcRKS3_>
10004b4e:	e001      	b.n	10004b54 <_Z41__static_initialization_and_destruction_0ii+0x280>
10004b50:	260c      	movs	r6, #12
10004b52:	e747      	b.n	100049e4 <_Z41__static_initialization_and_destruction_0ii+0x110>
10004b54:	aa7b      	add	r2, sp, #492	; 0x1ec
10004b56:	494e      	ldr	r1, [pc, #312]	; (10004c90 <_Z41__static_initialization_and_destruction_0ii+0x3bc>)
10004b58:	a875      	add	r0, sp, #468	; 0x1d4
10004b5a:	f7fb fd9b 	bl	10000694 <_ZNSt7__cxx1112basic_stringIcSt11char_traitsIcESaIcEEC1IS3_EEPKcRKS3_>
10004b5e:	2301      	movs	r3, #1
10004b60:	937c      	str	r3, [sp, #496]	; 0x1f0
10004b62:	2700      	movs	r7, #0
10004b64:	977d      	str	r7, [sp, #500]	; 0x1f4
10004b66:	22ff      	movs	r2, #255	; 0xff
10004b68:	4252      	negs	r2, r2
10004b6a:	927e      	str	r2, [sp, #504]	; 0x1f8
10004b6c:	4a49      	ldr	r2, [pc, #292]	; (10004c94 <_Z41__static_initialization_and_destruction_0ii+0x3c0>)
10004b6e:	446a      	add	r2, sp
10004b70:	7013      	strb	r3, [r2, #0]
10004b72:	220c      	movs	r2, #12
10004b74:	0039      	movs	r1, r7
10004b76:	a880      	add	r0, sp, #512	; 0x200
10004b78:	f017 fa64 	bl	1001c044 <__wrap_memset>
10004b7c:	9780      	str	r7, [sp, #512]	; 0x200
10004b7e:	9781      	str	r7, [sp, #516]	; 0x204
10004b80:	9782      	str	r7, [sp, #520]	; 0x208
10004b82:	ab80      	add	r3, sp, #512	; 0x200
10004b84:	9303      	str	r3, [sp, #12]
10004b86:	4b43      	ldr	r3, [pc, #268]	; (10004c94 <_Z41__static_initialization_and_destruction_0ii+0x3c0>)
10004b88:	446b      	add	r3, sp
10004b8a:	9302      	str	r3, [sp, #8]
10004b8c:	ab7e      	add	r3, sp, #504	; 0x1f8
10004b8e:	9301      	str	r3, [sp, #4]
10004b90:	ab7d      	add	r3, sp, #500	; 0x1f4
10004b92:	9300      	str	r3, [sp, #0]
10004b94:	ab7c      	add	r3, sp, #496	; 0x1f0
10004b96:	aa75      	add	r2, sp, #468	; 0x1d4
10004b98:	a96e      	add	r1, sp, #440	; 0x1b8
10004b9a:	483f      	ldr	r0, [pc, #252]	; (10004c98 <_Z41__static_initialization_and_destruction_0ii+0x3c4>)
10004b9c:	f7fb ff16 	bl	100009cc <_ZNSt11_Tuple_implILj0EJKNSt7__cxx1112basic_stringIcSt11char_traitsIcESaIcEEES6_N14wifi_interface12CMD_DATATYPEEiibSt6vectorIS5_SaIS5_EEEEC1ERS6_SD_RKS8_RKiSH_RKbRKSB_>
10004ba0:	a880      	add	r0, sp, #512	; 0x200
10004ba2:	f7fb fd20 	bl	100005e6 <_ZNSt6vectorINSt7__cxx1112basic_stringIcSt11char_traitsIcESaIcEEESaIS5_EED1Ev>
10004ba6:	a875      	add	r0, sp, #468	; 0x1d4
10004ba8:	f01c ff26 	bl	100219f8 <_ZNSt7__cxx1112basic_stringIcSt11char_traitsIcESaIcEE10_M_disposeEv>
10004bac:	a86e      	add	r0, sp, #440	; 0x1b8
10004bae:	f01c ff23 	bl	100219f8 <_ZNSt7__cxx1112basic_stringIcSt11char_traitsIcESaIcEE10_M_disposeEv>
10004bb2:	aa89      	add	r2, sp, #548	; 0x224
10004bb4:	4939      	ldr	r1, [pc, #228]	; (10004c9c <_Z41__static_initialization_and_destruction_0ii+0x3c8>)
10004bb6:	a883      	add	r0, sp, #524	; 0x20c
10004bb8:	f7fb fd6c 	bl	10000694 <_ZNSt7__cxx1112basic_stringIcSt11char_traitsIcESaIcEEC1IS3_EEPKcRKS3_>
10004bbc:	e001      	b.n	10004bc2 <_Z41__static_initialization_and_destruction_0ii+0x2ee>
10004bbe:	260b      	movs	r6, #11
10004bc0:	e710      	b.n	100049e4 <_Z41__static_initialization_and_destruction_0ii+0x110>
10004bc2:	aa90      	add	r2, sp, #576	; 0x240
10004bc4:	4929      	ldr	r1, [pc, #164]	; (10004c6c <_Z41__static_initialization_and_destruction_0ii+0x398>)
10004bc6:	a88a      	add	r0, sp, #552	; 0x228
10004bc8:	f7fb fd64 	bl	10000694 <_ZNSt7__cxx1112basic_stringIcSt11char_traitsIcESaIcEEC1IS3_EEPKcRKS3_>
10004bcc:	2303      	movs	r3, #3
10004bce:	9391      	str	r3, [sp, #580]	; 0x244
10004bd0:	3b04      	subs	r3, #4
10004bd2:	9392      	str	r3, [sp, #584]	; 0x248
10004bd4:	9393      	str	r3, [sp, #588]	; 0x24c
10004bd6:	2700      	movs	r7, #0
10004bd8:	4b31      	ldr	r3, [pc, #196]	; (10004ca0 <_Z41__static_initialization_and_destruction_0ii+0x3cc>)
10004bda:	446b      	add	r3, sp
10004bdc:	701f      	strb	r7, [r3, #0]
10004bde:	220c      	movs	r2, #12
10004be0:	0039      	movs	r1, r7
10004be2:	a895      	add	r0, sp, #596	; 0x254
10004be4:	f017 fa2e 	bl	1001c044 <__wrap_memset>
10004be8:	9795      	str	r7, [sp, #596]	; 0x254
10004bea:	9796      	str	r7, [sp, #600]	; 0x258
10004bec:	9797      	str	r7, [sp, #604]	; 0x25c
10004bee:	ab95      	add	r3, sp, #596	; 0x254
10004bf0:	9303      	str	r3, [sp, #12]
10004bf2:	4b2b      	ldr	r3, [pc, #172]	; (10004ca0 <_Z41__static_initialization_and_destruction_0ii+0x3cc>)
10004bf4:	446b      	add	r3, sp
10004bf6:	9302      	str	r3, [sp, #8]
10004bf8:	ab93      	add	r3, sp, #588	; 0x24c
10004bfa:	9301      	str	r3, [sp, #4]
10004bfc:	ab92      	add	r3, sp, #584	; 0x248
10004bfe:	9300      	str	r3, [sp, #0]
10004c00:	ab91      	add	r3, sp, #580	; 0x244
10004c02:	aa8a      	add	r2, sp, #552	; 0x228
10004c04:	a983      	add	r1, sp, #524	; 0x20c
10004c06:	4827      	ldr	r0, [pc, #156]	; (10004ca4 <_Z41__static_initialization_and_destruction_0ii+0x3d0>)
10004c08:	f7fb fee0 	bl	100009cc <_ZNSt11_Tuple_implILj0EJKNSt7__cxx1112basic_stringIcSt11char_traitsIcESaIcEEES6_N14wifi_interface12CMD_DATATYPEEiibSt6vectorIS5_SaIS5_EEEEC1ERS6_SD_RKS8_RKiSH_RKbRKSB_>
10004c0c:	a895      	add	r0, sp, #596	; 0x254
10004c0e:	f7fb fcea 	bl	100005e6 <_ZNSt6vectorINSt7__cxx1112basic_stringIcSt11char_traitsIcESaIcEEESaIS5_EED1Ev>
10004c12:	a88a      	add	r0, sp, #552	; 0x228
10004c14:	f01c fef0 	bl	100219f8 <_ZNSt7__cxx1112basic_stringIcSt11char_traitsIcESaIcEE10_M_disposeEv>
10004c18:	a883      	add	r0, sp, #524	; 0x20c
10004c1a:	f01c feed 	bl	100219f8 <_ZNSt7__cxx1112basic_stringIcSt11char_traitsIcESaIcEE10_M_disposeEv>
10004c1e:	aa9e      	add	r2, sp, #632	; 0x278
10004c20:	4921      	ldr	r1, [pc, #132]	; (10004ca8 <_Z41__static_initialization_and_destruction_0ii+0x3d4>)
10004c22:	a898      	add	r0, sp, #608	; 0x260
10004c24:	f7fb fd36 	bl	10000694 <_ZNSt7__cxx1112basic_stringIcSt11char_traitsIcESaIcEEC1IS3_EEPKcRKS3_>
10004c28:	e040      	b.n	10004cac <_Z41__static_initialization_and_destruction_0ii+0x3d8>
10004c2a:	260a      	movs	r6, #10
10004c2c:	e6da      	b.n	100049e4 <_Z41__static_initialization_and_destruction_0ii+0x110>
10004c2e:	46c0      	nop			; (mov r8, r8)
10004c30:	fffff73c 	.word	0xfffff73c
10004c34:	0000ffff 	.word	0x0000ffff
10004c38:	000008c4 	.word	0x000008c4
10004c3c:	20002c70 	.word	0x20002c70
10004c40:	20001ff4 	.word	0x20001ff4
10004c44:	20001ff0 	.word	0x20001ff0
10004c48:	20001fec 	.word	0x20001fec
10004c4c:	20001fe4 	.word	0x20001fe4
10004c50:	20001fe8 	.word	0x20001fe8
10004c54:	20001ff8 	.word	0x20001ff8
10004c58:	20001ffc 	.word	0x20001ffc
10004c5c:	20002004 	.word	0x20002004
10004c60:	2000273c 	.word	0x2000273c
10004c64:	00000674 	.word	0x00000674
10004c68:	20002748 	.word	0x20002748
10004c6c:	1002c1c4 	.word	0x1002c1c4
10004c70:	200020a4 	.word	0x200020a4
10004c74:	1002aebc 	.word	0x1002aebc
10004c78:	1002aec0 	.word	0x1002aec0
10004c7c:	200020f0 	.word	0x200020f0
10004c80:	10030ae0 	.word	0x10030ae0
10004c84:	1002aec4 	.word	0x1002aec4
10004c88:	2000213c 	.word	0x2000213c
10004c8c:	1002aed0 	.word	0x1002aed0
10004c90:	1002aed4 	.word	0x1002aed4
10004c94:	000001ff 	.word	0x000001ff
10004c98:	20002188 	.word	0x20002188
10004c9c:	1002aee4 	.word	0x1002aee4
10004ca0:	00000253 	.word	0x00000253
10004ca4:	200021d4 	.word	0x200021d4
10004ca8:	1002aee8 	.word	0x1002aee8
10004cac:	aaa5      	add	r2, sp, #660	; 0x294
10004cae:	49eb      	ldr	r1, [pc, #940]	; (1000505c <_Z41__static_initialization_and_destruction_0ii+0x788>)
10004cb0:	a89f      	add	r0, sp, #636	; 0x27c
10004cb2:	f7fb fcef 	bl	10000694 <_ZNSt7__cxx1112basic_stringIcSt11char_traitsIcESaIcEEC1IS3_EEPKcRKS3_>
10004cb6:	2304      	movs	r3, #4
10004cb8:	93a6      	str	r3, [sp, #664]	; 0x298
10004cba:	2300      	movs	r3, #0
10004cbc:	93a7      	str	r3, [sp, #668]	; 0x29c
10004cbe:	3305      	adds	r3, #5
10004cc0:	93a8      	str	r3, [sp, #672]	; 0x2a0
10004cc2:	4be7      	ldr	r3, [pc, #924]	; (10005060 <_Z41__static_initialization_and_destruction_0ii+0x78c>)
10004cc4:	446b      	add	r3, sp
10004cc6:	2201      	movs	r2, #1
10004cc8:	701a      	strb	r2, [r3, #0]
10004cca:	aaaf      	add	r2, sp, #700	; 0x2bc
10004ccc:	49e5      	ldr	r1, [pc, #916]	; (10005064 <_Z41__static_initialization_and_destruction_0ii+0x790>)
10004cce:	a80b      	add	r0, sp, #44	; 0x2c
10004cd0:	f7fb fce0 	bl	10000694 <_ZNSt7__cxx1112basic_stringIcSt11char_traitsIcESaIcEEC1IS3_EEPKcRKS3_>
10004cd4:	aab0      	add	r2, sp, #704	; 0x2c0
10004cd6:	49e4      	ldr	r1, [pc, #912]	; (10005068 <_Z41__static_initialization_and_destruction_0ii+0x794>)
10004cd8:	a811      	add	r0, sp, #68	; 0x44
10004cda:	f7fb fcdb 	bl	10000694 <_ZNSt7__cxx1112basic_stringIcSt11char_traitsIcESaIcEEC1IS3_EEPKcRKS3_>
10004cde:	aab1      	add	r2, sp, #708	; 0x2c4
10004ce0:	49e2      	ldr	r1, [pc, #904]	; (1000506c <_Z41__static_initialization_and_destruction_0ii+0x798>)
10004ce2:	a817      	add	r0, sp, #92	; 0x5c
10004ce4:	f7fb fcd6 	bl	10000694 <_ZNSt7__cxx1112basic_stringIcSt11char_traitsIcESaIcEEC1IS3_EEPKcRKS3_>
10004ce8:	aab2      	add	r2, sp, #712	; 0x2c8
10004cea:	49e1      	ldr	r1, [pc, #900]	; (10005070 <_Z41__static_initialization_and_destruction_0ii+0x79c>)
10004cec:	a81d      	add	r0, sp, #116	; 0x74
10004cee:	f7fb fcd1 	bl	10000694 <_ZNSt7__cxx1112basic_stringIcSt11char_traitsIcESaIcEEC1IS3_EEPKcRKS3_>
10004cf2:	aab3      	add	r2, sp, #716	; 0x2cc
10004cf4:	49df      	ldr	r1, [pc, #892]	; (10005074 <_Z41__static_initialization_and_destruction_0ii+0x7a0>)
10004cf6:	a823      	add	r0, sp, #140	; 0x8c
10004cf8:	f7fb fccc 	bl	10000694 <_ZNSt7__cxx1112basic_stringIcSt11char_traitsIcESaIcEEC1IS3_EEPKcRKS3_>
10004cfc:	aab4      	add	r2, sp, #720	; 0x2d0
10004cfe:	49de      	ldr	r1, [pc, #888]	; (10005078 <_Z41__static_initialization_and_destruction_0ii+0x7a4>)
10004d00:	a829      	add	r0, sp, #164	; 0xa4
10004d02:	f7fb fcc7 	bl	10000694 <_ZNSt7__cxx1112basic_stringIcSt11char_traitsIcESaIcEEC1IS3_EEPKcRKS3_>
10004d06:	a90b      	add	r1, sp, #44	; 0x2c
10004d08:	91ad      	str	r1, [sp, #692]	; 0x2b4
10004d0a:	2206      	movs	r2, #6
10004d0c:	92ae      	str	r2, [sp, #696]	; 0x2b8
10004d0e:	abb5      	add	r3, sp, #724	; 0x2d4
10004d10:	a8aa      	add	r0, sp, #680	; 0x2a8
10004d12:	f7fb fdf1 	bl	100008f8 <_ZNSt6vectorINSt7__cxx1112basic_stringIcSt11char_traitsIcESaIcEEESaIS5_EEC1ESt16initializer_listIS5_ERKS6_>
10004d16:	e00a      	b.n	10004d2e <_Z41__static_initialization_and_destruction_0ii+0x45a>
10004d18:	ac2f      	add	r4, sp, #188	; 0xbc
10004d1a:	ab0b      	add	r3, sp, #44	; 0x2c
10004d1c:	429c      	cmp	r4, r3
10004d1e:	d101      	bne.n	10004d24 <_Z41__static_initialization_and_destruction_0ii+0x450>
10004d20:	f001 f99a 	bl	10006058 <_Z41__static_initialization_and_destruction_0ii+0x1784>
10004d24:	3c18      	subs	r4, #24
10004d26:	0020      	movs	r0, r4
10004d28:	f01c fe66 	bl	100219f8 <_ZNSt7__cxx1112basic_stringIcSt11char_traitsIcESaIcEE10_M_disposeEv>
10004d2c:	e7f5      	b.n	10004d1a <_Z41__static_initialization_and_destruction_0ii+0x446>
10004d2e:	abaa      	add	r3, sp, #680	; 0x2a8
10004d30:	9303      	str	r3, [sp, #12]
10004d32:	4bcb      	ldr	r3, [pc, #812]	; (10005060 <_Z41__static_initialization_and_destruction_0ii+0x78c>)
10004d34:	446b      	add	r3, sp
10004d36:	9302      	str	r3, [sp, #8]
10004d38:	aba8      	add	r3, sp, #672	; 0x2a0
10004d3a:	9301      	str	r3, [sp, #4]
10004d3c:	aba7      	add	r3, sp, #668	; 0x29c
10004d3e:	9300      	str	r3, [sp, #0]
10004d40:	aba6      	add	r3, sp, #664	; 0x298
10004d42:	aa9f      	add	r2, sp, #636	; 0x27c
10004d44:	a998      	add	r1, sp, #608	; 0x260
10004d46:	48cd      	ldr	r0, [pc, #820]	; (1000507c <_Z41__static_initialization_and_destruction_0ii+0x7a8>)
10004d48:	f7fb fe40 	bl	100009cc <_ZNSt11_Tuple_implILj0EJKNSt7__cxx1112basic_stringIcSt11char_traitsIcESaIcEEES6_N14wifi_interface12CMD_DATATYPEEiibSt6vectorIS5_SaIS5_EEEEC1ERS6_SD_RKS8_RKiSH_RKbRKSB_>
10004d4c:	a8aa      	add	r0, sp, #680	; 0x2a8
10004d4e:	f7fb fc4a 	bl	100005e6 <_ZNSt6vectorINSt7__cxx1112basic_stringIcSt11char_traitsIcESaIcEEESaIS5_EED1Ev>
10004d52:	af2f      	add	r7, sp, #188	; 0xbc
10004d54:	ab0b      	add	r3, sp, #44	; 0x2c
10004d56:	429f      	cmp	r7, r3
10004d58:	d004      	beq.n	10004d64 <_Z41__static_initialization_and_destruction_0ii+0x490>
10004d5a:	3f18      	subs	r7, #24
10004d5c:	0038      	movs	r0, r7
10004d5e:	f01c fe4b 	bl	100219f8 <_ZNSt7__cxx1112basic_stringIcSt11char_traitsIcESaIcEE10_M_disposeEv>
10004d62:	e7f7      	b.n	10004d54 <_Z41__static_initialization_and_destruction_0ii+0x480>
10004d64:	a89f      	add	r0, sp, #636	; 0x27c
10004d66:	f01c fe47 	bl	100219f8 <_ZNSt7__cxx1112basic_stringIcSt11char_traitsIcESaIcEE10_M_disposeEv>
10004d6a:	a898      	add	r0, sp, #608	; 0x260
10004d6c:	f01c fe44 	bl	100219f8 <_ZNSt7__cxx1112basic_stringIcSt11char_traitsIcESaIcEE10_M_disposeEv>
10004d70:	aabc      	add	r2, sp, #752	; 0x2f0
10004d72:	49c3      	ldr	r1, [pc, #780]	; (10005080 <_Z41__static_initialization_and_destruction_0ii+0x7ac>)
10004d74:	a8b6      	add	r0, sp, #728	; 0x2d8
10004d76:	f7fb fc8d 	bl	10000694 <_ZNSt7__cxx1112basic_stringIcSt11char_traitsIcESaIcEEC1IS3_EEPKcRKS3_>
10004d7a:	e001      	b.n	10004d80 <_Z41__static_initialization_and_destruction_0ii+0x4ac>
10004d7c:	2609      	movs	r6, #9
10004d7e:	e631      	b.n	100049e4 <_Z41__static_initialization_and_destruction_0ii+0x110>
10004d80:	aac3      	add	r2, sp, #780	; 0x30c
10004d82:	49c0      	ldr	r1, [pc, #768]	; (10005084 <_Z41__static_initialization_and_destruction_0ii+0x7b0>)
10004d84:	a8bd      	add	r0, sp, #756	; 0x2f4
10004d86:	f7fb fc85 	bl	10000694 <_ZNSt7__cxx1112basic_stringIcSt11char_traitsIcESaIcEEC1IS3_EEPKcRKS3_>
10004d8a:	2302      	movs	r3, #2
10004d8c:	93c4      	str	r3, [sp, #784]	; 0x310
10004d8e:	3b03      	subs	r3, #3
10004d90:	93c5      	str	r3, [sp, #788]	; 0x314
10004d92:	93c6      	str	r3, [sp, #792]	; 0x318
10004d94:	4bbc      	ldr	r3, [pc, #752]	; (10005088 <_Z41__static_initialization_and_destruction_0ii+0x7b4>)
10004d96:	446b      	add	r3, sp
10004d98:	2201      	movs	r2, #1
10004d9a:	701a      	strb	r2, [r3, #0]
10004d9c:	320b      	adds	r2, #11
10004d9e:	2100      	movs	r1, #0
10004da0:	a8c8      	add	r0, sp, #800	; 0x320
10004da2:	f017 f94f 	bl	1001c044 <__wrap_memset>
10004da6:	2300      	movs	r3, #0
10004da8:	93c8      	str	r3, [sp, #800]	; 0x320
10004daa:	93c9      	str	r3, [sp, #804]	; 0x324
10004dac:	93ca      	str	r3, [sp, #808]	; 0x328
10004dae:	abc8      	add	r3, sp, #800	; 0x320
10004db0:	9303      	str	r3, [sp, #12]
10004db2:	4bb5      	ldr	r3, [pc, #724]	; (10005088 <_Z41__static_initialization_and_destruction_0ii+0x7b4>)
10004db4:	446b      	add	r3, sp
10004db6:	9302      	str	r3, [sp, #8]
10004db8:	abc6      	add	r3, sp, #792	; 0x318
10004dba:	9301      	str	r3, [sp, #4]
10004dbc:	abc5      	add	r3, sp, #788	; 0x314
10004dbe:	9300      	str	r3, [sp, #0]
10004dc0:	abc4      	add	r3, sp, #784	; 0x310
10004dc2:	aabd      	add	r2, sp, #756	; 0x2f4
10004dc4:	a9b6      	add	r1, sp, #728	; 0x2d8
10004dc6:	48b1      	ldr	r0, [pc, #708]	; (1000508c <_Z41__static_initialization_and_destruction_0ii+0x7b8>)
10004dc8:	f7fb fe00 	bl	100009cc <_ZNSt11_Tuple_implILj0EJKNSt7__cxx1112basic_stringIcSt11char_traitsIcESaIcEEES6_N14wifi_interface12CMD_DATATYPEEiibSt6vectorIS5_SaIS5_EEEEC1ERS6_SD_RKS8_RKiSH_RKbRKSB_>
10004dcc:	a8c8      	add	r0, sp, #800	; 0x320
10004dce:	f7fb fc0a 	bl	100005e6 <_ZNSt6vectorINSt7__cxx1112basic_stringIcSt11char_traitsIcESaIcEEESaIS5_EED1Ev>
10004dd2:	a8bd      	add	r0, sp, #756	; 0x2f4
10004dd4:	f01c fe10 	bl	100219f8 <_ZNSt7__cxx1112basic_stringIcSt11char_traitsIcESaIcEE10_M_disposeEv>
10004dd8:	a8b6      	add	r0, sp, #728	; 0x2d8
10004dda:	f01c fe0d 	bl	100219f8 <_ZNSt7__cxx1112basic_stringIcSt11char_traitsIcESaIcEE10_M_disposeEv>
10004dde:	aad1      	add	r2, sp, #836	; 0x344
10004de0:	49ab      	ldr	r1, [pc, #684]	; (10005090 <_Z41__static_initialization_and_destruction_0ii+0x7bc>)
10004de2:	a8cb      	add	r0, sp, #812	; 0x32c
10004de4:	f7fb fc56 	bl	10000694 <_ZNSt7__cxx1112basic_stringIcSt11char_traitsIcESaIcEEC1IS3_EEPKcRKS3_>
10004de8:	e001      	b.n	10004dee <_Z41__static_initialization_and_destruction_0ii+0x51a>
10004dea:	2608      	movs	r6, #8
10004dec:	e5fa      	b.n	100049e4 <_Z41__static_initialization_and_destruction_0ii+0x110>
10004dee:	aad8      	add	r2, sp, #864	; 0x360
10004df0:	49a8      	ldr	r1, [pc, #672]	; (10005094 <_Z41__static_initialization_and_destruction_0ii+0x7c0>)
10004df2:	a8d2      	add	r0, sp, #840	; 0x348
10004df4:	f7fb fc4e 	bl	10000694 <_ZNSt7__cxx1112basic_stringIcSt11char_traitsIcESaIcEEC1IS3_EEPKcRKS3_>
10004df8:	2301      	movs	r3, #1
10004dfa:	93d9      	str	r3, [sp, #868]	; 0x364
10004dfc:	220a      	movs	r2, #10
10004dfe:	92da      	str	r2, [sp, #872]	; 0x368
10004e00:	325a      	adds	r2, #90	; 0x5a
10004e02:	92db      	str	r2, [sp, #876]	; 0x36c
10004e04:	4aa4      	ldr	r2, [pc, #656]	; (10005098 <_Z41__static_initialization_and_destruction_0ii+0x7c4>)
10004e06:	446a      	add	r2, sp
10004e08:	7013      	strb	r3, [r2, #0]
10004e0a:	220c      	movs	r2, #12
10004e0c:	2100      	movs	r1, #0
10004e0e:	a8dd      	add	r0, sp, #884	; 0x374
10004e10:	f017 f918 	bl	1001c044 <__wrap_memset>
10004e14:	2300      	movs	r3, #0
10004e16:	93dd      	str	r3, [sp, #884]	; 0x374
10004e18:	93de      	str	r3, [sp, #888]	; 0x378
10004e1a:	93df      	str	r3, [sp, #892]	; 0x37c
10004e1c:	abdd      	add	r3, sp, #884	; 0x374
10004e1e:	9303      	str	r3, [sp, #12]
10004e20:	4b9d      	ldr	r3, [pc, #628]	; (10005098 <_Z41__static_initialization_and_destruction_0ii+0x7c4>)
10004e22:	446b      	add	r3, sp
10004e24:	9302      	str	r3, [sp, #8]
10004e26:	abdb      	add	r3, sp, #876	; 0x36c
10004e28:	9301      	str	r3, [sp, #4]
10004e2a:	abda      	add	r3, sp, #872	; 0x368
10004e2c:	9300      	str	r3, [sp, #0]
10004e2e:	abd9      	add	r3, sp, #868	; 0x364
10004e30:	aad2      	add	r2, sp, #840	; 0x348
